
/home/user/ics2017/nanos-lite/build/nanos-lite-x86-nemu：     文件格式 elf32-i386


Disassembly of section .text:

00100000 <_start>:
  100000:	bd 00 00 00 00       	mov    $0x0,%ebp
  100005:	bc 00 7c 00 00       	mov    $0x7c00,%esp
  10000a:	e8 29 00 00 00       	call   100038 <_trm_init>
  10000f:	90                   	nop

00100010 <_putc>:
  100010:	55                   	push   %ebp
  100011:	89 e5                	mov    %esp,%ebp
  100013:	8b 4d 08             	mov    0x8(%ebp),%ecx
  100016:	ba fd 03 00 00       	mov    $0x3fd,%edx
  10001b:	90                   	nop
  10001c:	ec                   	in     (%dx),%al
  10001d:	a8 20                	test   $0x20,%al
  10001f:	74 fb                	je     10001c <_putc+0xc>
  100021:	ba f8 03 00 00       	mov    $0x3f8,%edx
  100026:	88 c8                	mov    %cl,%al
  100028:	ee                   	out    %al,(%dx)
  100029:	5d                   	pop    %ebp
  10002a:	c3                   	ret    
  10002b:	90                   	nop

0010002c <_halt>:
  10002c:	55                   	push   %ebp
  10002d:	89 e5                	mov    %esp,%ebp
  10002f:	8b 45 08             	mov    0x8(%ebp),%eax
  100032:	d6                   	(bad)  
  100033:	eb fe                	jmp    100033 <_halt+0x7>
  100035:	66 90                	xchg   %ax,%ax
  100037:	90                   	nop

00100038 <_trm_init>:
  100038:	55                   	push   %ebp
  100039:	89 e5                	mov    %esp,%ebp
  10003b:	56                   	push   %esi
  10003c:	53                   	push   %ebx
  10003d:	31 f6                	xor    %esi,%esi
  10003f:	bb f9 03 00 00       	mov    $0x3f9,%ebx
  100044:	89 f0                	mov    %esi,%eax
  100046:	89 da                	mov    %ebx,%edx
  100048:	ee                   	out    %al,(%dx)
  100049:	b9 fb 03 00 00       	mov    $0x3fb,%ecx
  10004e:	b0 80                	mov    $0x80,%al
  100050:	89 ca                	mov    %ecx,%edx
  100052:	ee                   	out    %al,(%dx)
  100053:	b2 f8                	mov    $0xf8,%dl
  100055:	b0 01                	mov    $0x1,%al
  100057:	ee                   	out    %al,(%dx)
  100058:	89 f0                	mov    %esi,%eax
  10005a:	89 da                	mov    %ebx,%edx
  10005c:	ee                   	out    %al,(%dx)
  10005d:	b0 03                	mov    $0x3,%al
  10005f:	89 ca                	mov    %ecx,%edx
  100061:	ee                   	out    %al,(%dx)
  100062:	b2 fa                	mov    $0xfa,%dl
  100064:	b0 c7                	mov    $0xc7,%al
  100066:	ee                   	out    %al,(%dx)
  100067:	b2 fc                	mov    $0xfc,%dl
  100069:	b0 0b                	mov    $0xb,%al
  10006b:	ee                   	out    %al,(%dx)
  10006c:	e8 d3 07 00 00       	call   100844 <main>
  100071:	d6                   	(bad)  
  100072:	eb fe                	jmp    100072 <_trm_init+0x3a>

00100074 <new_page>:
  100074:	a1 00 b0 c9 02       	mov    0x2c9b000,%eax
  100079:	39 05 04 25 10 00    	cmp    %eax,0x102504
  10007f:	76 0f                	jbe    100090 <new_page+0x1c>
  100081:	8d 90 00 10 00 00    	lea    0x1000(%eax),%edx
  100087:	89 15 00 b0 c9 02    	mov    %edx,0x2c9b000
  10008d:	c3                   	ret    
  10008e:	66 90                	xchg   %ax,%ax
  100090:	55                   	push   %ebp
  100091:	89 e5                	mov    %esp,%ebp
  100093:	83 ec 28             	sub    $0x28,%esp
  100096:	c7 44 24 10 60 18 10 	movl   $0x101860,0x10(%esp)
  10009d:	00 
  10009e:	c7 44 24 0c 52 19 10 	movl   $0x101952,0xc(%esp)
  1000a5:	00 
  1000a6:	c7 44 24 08 07 00 00 	movl   $0x7,0x8(%esp)
  1000ad:	00 
  1000ae:	c7 44 24 04 77 18 10 	movl   $0x101877,0x4(%esp)
  1000b5:	00 
  1000b6:	c7 04 24 80 18 10 00 	movl   $0x101880,(%esp)
  1000bd:	e8 96 12 00 00       	call   101358 <printf>
  1000c2:	c7 04 24 01 00 00 00 	movl   $0x1,(%esp)
  1000c9:	e8 5e ff ff ff       	call   10002c <_halt>
  1000ce:	a1 00 b0 c9 02       	mov    0x2c9b000,%eax
  1000d3:	8d 90 00 10 00 00    	lea    0x1000(%eax),%edx
  1000d9:	89 15 00 b0 c9 02    	mov    %edx,0x2c9b000
  1000df:	c9                   	leave  
  1000e0:	c3                   	ret    
  1000e1:	8d 76 00             	lea    0x0(%esi),%esi

001000e4 <free_page>:
  1000e4:	55                   	push   %ebp
  1000e5:	89 e5                	mov    %esp,%ebp
  1000e7:	83 ec 18             	sub    $0x18,%esp
  1000ea:	c7 44 24 0c 48 19 10 	movl   $0x101948,0xc(%esp)
  1000f1:	00 
  1000f2:	c7 44 24 08 0e 00 00 	movl   $0xe,0x8(%esp)
  1000f9:	00 
  1000fa:	c7 44 24 04 77 18 10 	movl   $0x101877,0x4(%esp)
  100101:	00 
  100102:	c7 04 24 c4 18 10 00 	movl   $0x1018c4,(%esp)
  100109:	e8 4a 12 00 00       	call   101358 <printf>
  10010e:	c7 45 08 01 00 00 00 	movl   $0x1,0x8(%ebp)
  100115:	c9                   	leave  
  100116:	e9 11 ff ff ff       	jmp    10002c <_halt>
  10011b:	90                   	nop

0010011c <mm_brk>:
  10011c:	55                   	push   %ebp
  10011d:	89 e5                	mov    %esp,%ebp
  10011f:	56                   	push   %esi
  100120:	53                   	push   %ebx
  100121:	83 ec 10             	sub    $0x10,%esp
  100124:	8b 75 08             	mov    0x8(%ebp),%esi
  100127:	a1 00 c0 c9 02       	mov    0x2c9c000,%eax
  10012c:	8b 50 10             	mov    0x10(%eax),%edx
  10012f:	85 d2                	test   %edx,%edx
  100131:	74 45                	je     100178 <mm_brk+0x5c>
  100133:	8b 58 14             	mov    0x14(%eax),%ebx
  100136:	39 de                	cmp    %ebx,%esi
  100138:	76 41                	jbe    10017b <mm_brk+0x5f>
  10013a:	81 c3 ff 0f 00 00    	add    $0xfff,%ebx
  100140:	81 e3 00 f0 ff ff    	and    $0xfffff000,%ebx
  100146:	39 de                	cmp    %ebx,%esi
  100148:	76 2e                	jbe    100178 <mm_brk+0x5c>
  10014a:	66 90                	xchg   %ax,%ax
  10014c:	e8 23 ff ff ff       	call   100074 <new_page>
  100151:	89 44 24 08          	mov    %eax,0x8(%esp)
  100155:	89 5c 24 04          	mov    %ebx,0x4(%esp)
  100159:	a1 00 c0 c9 02       	mov    0x2c9c000,%eax
  10015e:	83 c0 04             	add    $0x4,%eax
  100161:	89 04 24             	mov    %eax,(%esp)
  100164:	e8 c3 13 00 00       	call   10152c <_map>
  100169:	81 c3 00 10 00 00    	add    $0x1000,%ebx
  10016f:	39 de                	cmp    %ebx,%esi
  100171:	77 d9                	ja     10014c <mm_brk+0x30>
  100173:	a1 00 c0 c9 02       	mov    0x2c9c000,%eax
  100178:	89 70 14             	mov    %esi,0x14(%eax)
  10017b:	89 70 10             	mov    %esi,0x10(%eax)
  10017e:	31 c0                	xor    %eax,%eax
  100180:	83 c4 10             	add    $0x10,%esp
  100183:	5b                   	pop    %ebx
  100184:	5e                   	pop    %esi
  100185:	5d                   	pop    %ebp
  100186:	c3                   	ret    
  100187:	90                   	nop

00100188 <init_mm>:
  100188:	55                   	push   %ebp
  100189:	89 e5                	mov    %esp,%ebp
  10018b:	83 ec 28             	sub    $0x28,%esp
  10018e:	a1 00 25 10 00       	mov    0x102500,%eax
  100193:	05 ff 0f 00 00       	add    $0xfff,%eax
  100198:	25 00 f0 ff ff       	and    $0xfffff000,%eax
  10019d:	a3 00 b0 c9 02       	mov    %eax,0x2c9b000
  1001a2:	89 44 24 10          	mov    %eax,0x10(%esp)
  1001a6:	c7 44 24 0c 40 19 10 	movl   $0x101940,0xc(%esp)
  1001ad:	00 
  1001ae:	c7 44 24 08 2b 00 00 	movl   $0x2b,0x8(%esp)
  1001b5:	00 
  1001b6:	c7 44 24 04 77 18 10 	movl   $0x101877,0x4(%esp)
  1001bd:	00 
  1001be:	c7 04 24 04 19 10 00 	movl   $0x101904,(%esp)
  1001c5:	e8 8e 11 00 00       	call   101358 <printf>
  1001ca:	c7 44 24 04 e4 00 10 	movl   $0x1000e4,0x4(%esp)
  1001d1:	00 
  1001d2:	c7 04 24 74 00 10 00 	movl   $0x100074,(%esp)
  1001d9:	e8 62 12 00 00       	call   101440 <_pte_init>
  1001de:	c9                   	leave  
  1001df:	c3                   	ret    

001001e0 <do_syscall>:
  1001e0:	55                   	push   %ebp
  1001e1:	89 e5                	mov    %esp,%ebp
  1001e3:	53                   	push   %ebx
  1001e4:	83 ec 24             	sub    $0x24,%esp
  1001e7:	8b 5d 08             	mov    0x8(%ebp),%ebx
  1001ea:	8b 43 1c             	mov    0x1c(%ebx),%eax
  1001ed:	83 f8 09             	cmp    $0x9,%eax
  1001f0:	0f 87 ee 00 00 00    	ja     1002e4 <do_syscall+0x104>
  1001f6:	ff 24 85 b4 19 10 00 	jmp    *0x1019b4(,%eax,4)
  1001fd:	8d 76 00             	lea    0x0(%esi),%esi
  100200:	8b 43 10             	mov    0x10(%ebx),%eax
  100203:	89 04 24             	mov    %eax,(%esp)
  100206:	e8 11 ff ff ff       	call   10011c <mm_brk>
  10020b:	89 43 1c             	mov    %eax,0x1c(%ebx)
  10020e:	31 c0                	xor    %eax,%eax
  100210:	83 c4 24             	add    $0x24,%esp
  100213:	5b                   	pop    %ebx
  100214:	5d                   	pop    %ebp
  100215:	c3                   	ret    
  100216:	66 90                	xchg   %ax,%ax
  100218:	c7 43 1c 01 00 00 00 	movl   $0x1,0x1c(%ebx)
  10021f:	31 c0                	xor    %eax,%eax
  100221:	83 c4 24             	add    $0x24,%esp
  100224:	5b                   	pop    %ebx
  100225:	5d                   	pop    %ebp
  100226:	c3                   	ret    
  100227:	90                   	nop
  100228:	8b 43 14             	mov    0x14(%ebx),%eax
  10022b:	89 44 24 08          	mov    %eax,0x8(%esp)
  10022f:	8b 43 18             	mov    0x18(%ebx),%eax
  100232:	89 44 24 04          	mov    %eax,0x4(%esp)
  100236:	8b 43 10             	mov    0x10(%ebx),%eax
  100239:	89 04 24             	mov    %eax,(%esp)
  10023c:	e8 0f 01 00 00       	call   100350 <fs_open>
  100241:	89 43 1c             	mov    %eax,0x1c(%ebx)
  100244:	31 c0                	xor    %eax,%eax
  100246:	83 c4 24             	add    $0x24,%esp
  100249:	5b                   	pop    %ebx
  10024a:	5d                   	pop    %ebp
  10024b:	c3                   	ret    
  10024c:	8b 43 14             	mov    0x14(%ebx),%eax
  10024f:	89 44 24 08          	mov    %eax,0x8(%esp)
  100253:	8b 43 18             	mov    0x18(%ebx),%eax
  100256:	89 44 24 04          	mov    %eax,0x4(%esp)
  10025a:	8b 43 10             	mov    0x10(%ebx),%eax
  10025d:	89 04 24             	mov    %eax,(%esp)
  100260:	e8 9b 01 00 00       	call   100400 <fs_read>
  100265:	89 43 1c             	mov    %eax,0x1c(%ebx)
  100268:	31 c0                	xor    %eax,%eax
  10026a:	83 c4 24             	add    $0x24,%esp
  10026d:	5b                   	pop    %ebx
  10026e:	5d                   	pop    %ebp
  10026f:	c3                   	ret    
  100270:	8b 43 14             	mov    0x14(%ebx),%eax
  100273:	89 44 24 08          	mov    %eax,0x8(%esp)
  100277:	8b 43 18             	mov    0x18(%ebx),%eax
  10027a:	89 44 24 04          	mov    %eax,0x4(%esp)
  10027e:	8b 43 10             	mov    0x10(%ebx),%eax
  100281:	89 04 24             	mov    %eax,(%esp)
  100284:	e8 23 02 00 00       	call   1004ac <fs_write>
  100289:	89 43 1c             	mov    %eax,0x1c(%ebx)
  10028c:	31 c0                	xor    %eax,%eax
  10028e:	83 c4 24             	add    $0x24,%esp
  100291:	5b                   	pop    %ebx
  100292:	5d                   	pop    %ebp
  100293:	c3                   	ret    
  100294:	8b 43 10             	mov    0x10(%ebx),%eax
  100297:	89 04 24             	mov    %eax,(%esp)
  10029a:	e8 8d fd ff ff       	call   10002c <_halt>
  10029f:	31 c0                	xor    %eax,%eax
  1002a1:	83 c4 24             	add    $0x24,%esp
  1002a4:	5b                   	pop    %ebx
  1002a5:	5d                   	pop    %ebp
  1002a6:	c3                   	ret    
  1002a7:	90                   	nop
  1002a8:	8b 43 10             	mov    0x10(%ebx),%eax
  1002ab:	89 04 24             	mov    %eax,(%esp)
  1002ae:	e8 21 03 00 00       	call   1005d4 <fs_close>
  1002b3:	89 43 1c             	mov    %eax,0x1c(%ebx)
  1002b6:	31 c0                	xor    %eax,%eax
  1002b8:	83 c4 24             	add    $0x24,%esp
  1002bb:	5b                   	pop    %ebx
  1002bc:	5d                   	pop    %ebp
  1002bd:	c3                   	ret    
  1002be:	66 90                	xchg   %ax,%ax
  1002c0:	8b 43 14             	mov    0x14(%ebx),%eax
  1002c3:	89 44 24 08          	mov    %eax,0x8(%esp)
  1002c7:	8b 43 18             	mov    0x18(%ebx),%eax
  1002ca:	89 44 24 04          	mov    %eax,0x4(%esp)
  1002ce:	8b 43 10             	mov    0x10(%ebx),%eax
  1002d1:	89 04 24             	mov    %eax,(%esp)
  1002d4:	e8 93 02 00 00       	call   10056c <fs_lseek>
  1002d9:	89 43 1c             	mov    %eax,0x1c(%ebx)
  1002dc:	31 c0                	xor    %eax,%eax
  1002de:	83 c4 24             	add    $0x24,%esp
  1002e1:	5b                   	pop    %ebx
  1002e2:	5d                   	pop    %ebp
  1002e3:	c3                   	ret    
  1002e4:	89 44 24 10          	mov    %eax,0x10(%esp)
  1002e8:	c7 44 24 0c dc 19 10 	movl   $0x1019dc,0xc(%esp)
  1002ef:	00 
  1002f0:	c7 44 24 08 6b 00 00 	movl   $0x6b,0x8(%esp)
  1002f7:	00 
  1002f8:	c7 44 24 04 5b 19 10 	movl   $0x10195b,0x4(%esp)
  1002ff:	00 
  100300:	c7 04 24 6c 19 10 00 	movl   $0x10196c,(%esp)
  100307:	e8 4c 10 00 00       	call   101358 <printf>
  10030c:	c7 04 24 01 00 00 00 	movl   $0x1,(%esp)
  100313:	e8 14 fd ff ff       	call   10002c <_halt>
  100318:	31 c0                	xor    %eax,%eax
  10031a:	83 c4 24             	add    $0x24,%esp
  10031d:	5b                   	pop    %ebx
  10031e:	5d                   	pop    %ebp
  10031f:	c3                   	ret    

00100320 <init_fs>:
  100320:	55                   	push   %ebp
  100321:	89 e5                	mov    %esp,%ebp
  100323:	a1 44 a2 c9 02       	mov    0x2c9a244,%eax
  100328:	0f af 05 40 a2 c9 02 	imul   0x2c9a240,%eax
  10032f:	c1 e0 02             	shl    $0x2,%eax
  100332:	a3 54 25 10 00       	mov    %eax,0x102554
  100337:	5d                   	pop    %ebp
  100338:	c3                   	ret    
  100339:	8d 76 00             	lea    0x0(%esi),%esi

0010033c <fs_filesz>:
  10033c:	55                   	push   %ebp
  10033d:	89 e5                	mov    %esp,%ebp
  10033f:	8b 45 08             	mov    0x8(%ebp),%eax
  100342:	c1 e0 04             	shl    $0x4,%eax
  100345:	8b 80 24 25 10 00    	mov    0x102524(%eax),%eax
  10034b:	5d                   	pop    %ebp
  10034c:	c3                   	ret    
  10034d:	8d 76 00             	lea    0x0(%esi),%esi

00100350 <fs_open>:
  100350:	55                   	push   %ebp
  100351:	89 e5                	mov    %esp,%ebp
  100353:	57                   	push   %edi
  100354:	56                   	push   %esi
  100355:	53                   	push   %ebx
  100356:	83 ec 2c             	sub    $0x2c,%esp
  100359:	8b 7d 08             	mov    0x8(%ebp),%edi
  10035c:	89 7c 24 10          	mov    %edi,0x10(%esp)
  100360:	c7 44 24 0c 70 1f 10 	movl   $0x101f70,0xc(%esp)
  100367:	00 
  100368:	c7 44 24 08 2b 00 00 	movl   $0x2b,0x8(%esp)
  10036f:	00 
  100370:	c7 44 24 04 e7 19 10 	movl   $0x1019e7,0x4(%esp)
  100377:	00 
  100378:	c7 04 24 74 1e 10 00 	movl   $0x101e74,(%esp)
  10037f:	e8 d4 0f 00 00       	call   101358 <printf>
  100384:	be 20 25 10 00       	mov    $0x102520,%esi
  100389:	31 db                	xor    %ebx,%ebx
  10038b:	eb 0c                	jmp    100399 <fs_open+0x49>
  10038d:	8d 76 00             	lea    0x0(%esi),%esi
  100390:	43                   	inc    %ebx
  100391:	83 c6 10             	add    $0x10,%esi
  100394:	83 fb 3c             	cmp    $0x3c,%ebx
  100397:	74 1f                	je     1003b8 <fs_open+0x68>
  100399:	89 7c 24 04          	mov    %edi,0x4(%esp)
  10039d:	8b 06                	mov    (%esi),%eax
  10039f:	89 04 24             	mov    %eax,(%esp)
  1003a2:	e8 fd 0f 00 00       	call   1013a4 <strcmp>
  1003a7:	85 c0                	test   %eax,%eax
  1003a9:	75 e5                	jne    100390 <fs_open+0x40>
  1003ab:	89 d8                	mov    %ebx,%eax
  1003ad:	83 c4 2c             	add    $0x2c,%esp
  1003b0:	5b                   	pop    %ebx
  1003b1:	5e                   	pop    %esi
  1003b2:	5f                   	pop    %edi
  1003b3:	5d                   	pop    %ebp
  1003b4:	c3                   	ret    
  1003b5:	8d 76 00             	lea    0x0(%esi),%esi
  1003b8:	c7 44 24 10 8c 21 10 	movl   $0x10218c,0x10(%esp)
  1003bf:	00 
  1003c0:	c7 44 24 0c 70 1f 10 	movl   $0x101f70,0xc(%esp)
  1003c7:	00 
  1003c8:	c7 44 24 08 35 00 00 	movl   $0x35,0x8(%esp)
  1003cf:	00 
  1003d0:	c7 44 24 04 e7 19 10 	movl   $0x1019e7,0x4(%esp)
  1003d7:	00 
  1003d8:	c7 04 24 80 18 10 00 	movl   $0x101880,(%esp)
  1003df:	e8 74 0f 00 00       	call   101358 <printf>
  1003e4:	c7 04 24 01 00 00 00 	movl   $0x1,(%esp)
  1003eb:	e8 3c fc ff ff       	call   10002c <_halt>
  1003f0:	b8 ff ff ff ff       	mov    $0xffffffff,%eax
  1003f5:	83 c4 2c             	add    $0x2c,%esp
  1003f8:	5b                   	pop    %ebx
  1003f9:	5e                   	pop    %esi
  1003fa:	5f                   	pop    %edi
  1003fb:	5d                   	pop    %ebp
  1003fc:	c3                   	ret    
  1003fd:	8d 76 00             	lea    0x0(%esi),%esi

00100400 <fs_read>:
  100400:	55                   	push   %ebp
  100401:	89 e5                	mov    %esp,%ebp
  100403:	57                   	push   %edi
  100404:	56                   	push   %esi
  100405:	53                   	push   %ebx
  100406:	83 ec 1c             	sub    $0x1c,%esp
  100409:	8b 45 08             	mov    0x8(%ebp),%eax
  10040c:	8b 75 0c             	mov    0xc(%ebp),%esi
  10040f:	8b 5d 10             	mov    0x10(%ebp),%ebx
  100412:	89 c2                	mov    %eax,%edx
  100414:	c1 e2 04             	shl    $0x4,%edx
  100417:	8b 8a 24 25 10 00    	mov    0x102524(%edx),%ecx
  10041d:	81 c2 20 25 10 00    	add    $0x102520,%edx
  100423:	8b 52 0c             	mov    0xc(%edx),%edx
  100426:	8d 3c 13             	lea    (%ebx,%edx,1),%edi
  100429:	39 cf                	cmp    %ecx,%edi
  10042b:	76 04                	jbe    100431 <fs_read+0x31>
  10042d:	29 d1                	sub    %edx,%ecx
  10042f:	89 cb                	mov    %ecx,%ebx
  100431:	83 f8 04             	cmp    $0x4,%eax
  100434:	74 3a                	je     100470 <fs_read+0x70>
  100436:	7f 10                	jg     100448 <fs_read+0x48>
  100438:	83 f8 02             	cmp    $0x2,%eax
  10043b:	77 47                	ja     100484 <fs_read+0x84>
  10043d:	31 c0                	xor    %eax,%eax
  10043f:	83 c4 1c             	add    $0x1c,%esp
  100442:	5b                   	pop    %ebx
  100443:	5e                   	pop    %esi
  100444:	5f                   	pop    %edi
  100445:	5d                   	pop    %ebp
  100446:	c3                   	ret    
  100447:	90                   	nop
  100448:	83 f8 05             	cmp    $0x5,%eax
  10044b:	75 37                	jne    100484 <fs_read+0x84>
  10044d:	89 5c 24 08          	mov    %ebx,0x8(%esp)
  100451:	89 54 24 04          	mov    %edx,0x4(%esp)
  100455:	89 34 24             	mov    %esi,(%esp)
  100458:	e8 cb 05 00 00       	call   100a28 <dispinfo_read>
  10045d:	01 1d 7c 25 10 00    	add    %ebx,0x10257c
  100463:	89 d8                	mov    %ebx,%eax
  100465:	83 c4 1c             	add    $0x1c,%esp
  100468:	5b                   	pop    %ebx
  100469:	5e                   	pop    %esi
  10046a:	5f                   	pop    %edi
  10046b:	5d                   	pop    %ebp
  10046c:	c3                   	ret    
  10046d:	8d 76 00             	lea    0x0(%esi),%esi
  100470:	89 5d 0c             	mov    %ebx,0xc(%ebp)
  100473:	89 75 08             	mov    %esi,0x8(%ebp)
  100476:	83 c4 1c             	add    $0x1c,%esp
  100479:	5b                   	pop    %ebx
  10047a:	5e                   	pop    %esi
  10047b:	5f                   	pop    %edi
  10047c:	5d                   	pop    %ebp
  10047d:	e9 b2 04 00 00       	jmp    100934 <events_read>
  100482:	66 90                	xchg   %ax,%ax
  100484:	89 5c 24 08          	mov    %ebx,0x8(%esp)
  100488:	c1 e0 04             	shl    $0x4,%eax
  10048b:	8d b8 20 25 10 00    	lea    0x102520(%eax),%edi
  100491:	03 90 28 25 10 00    	add    0x102528(%eax),%edx
  100497:	89 54 24 04          	mov    %edx,0x4(%esp)
  10049b:	89 34 24             	mov    %esi,(%esp)
  10049e:	e8 55 02 00 00       	call   1006f8 <ramdisk_read>
  1004a3:	01 5f 0c             	add    %ebx,0xc(%edi)
  1004a6:	89 d8                	mov    %ebx,%eax
  1004a8:	eb bb                	jmp    100465 <fs_read+0x65>
  1004aa:	66 90                	xchg   %ax,%ax

001004ac <fs_write>:
  1004ac:	55                   	push   %ebp
  1004ad:	89 e5                	mov    %esp,%ebp
  1004af:	57                   	push   %edi
  1004b0:	56                   	push   %esi
  1004b1:	53                   	push   %ebx
  1004b2:	83 ec 1c             	sub    $0x1c,%esp
  1004b5:	8b 45 08             	mov    0x8(%ebp),%eax
  1004b8:	8b 7d 0c             	mov    0xc(%ebp),%edi
  1004bb:	8b 75 10             	mov    0x10(%ebp),%esi
  1004be:	89 c2                	mov    %eax,%edx
  1004c0:	c1 e2 04             	shl    $0x4,%edx
  1004c3:	8b 92 24 25 10 00    	mov    0x102524(%edx),%edx
  1004c9:	83 f8 01             	cmp    $0x1,%eax
  1004cc:	7c 32                	jl     100500 <fs_write+0x54>
  1004ce:	83 f8 02             	cmp    $0x2,%eax
  1004d1:	7e 71                	jle    100544 <fs_write+0x98>
  1004d3:	83 f8 03             	cmp    $0x3,%eax
  1004d6:	75 28                	jne    100500 <fs_write+0x54>
  1004d8:	89 74 24 08          	mov    %esi,0x8(%esp)
  1004dc:	a1 5c 25 10 00       	mov    0x10255c,%eax
  1004e1:	89 44 24 04          	mov    %eax,0x4(%esp)
  1004e5:	89 3c 24             	mov    %edi,(%esp)
  1004e8:	e8 4f 05 00 00       	call   100a3c <fb_write>
  1004ed:	01 35 5c 25 10 00    	add    %esi,0x10255c
  1004f3:	89 f0                	mov    %esi,%eax
  1004f5:	83 c4 1c             	add    $0x1c,%esp
  1004f8:	5b                   	pop    %ebx
  1004f9:	5e                   	pop    %esi
  1004fa:	5f                   	pop    %edi
  1004fb:	5d                   	pop    %ebp
  1004fc:	c3                   	ret    
  1004fd:	8d 76 00             	lea    0x0(%esi),%esi
  100500:	89 c1                	mov    %eax,%ecx
  100502:	c1 e1 04             	shl    $0x4,%ecx
  100505:	8b 89 2c 25 10 00    	mov    0x10252c(%ecx),%ecx
  10050b:	8d 1c 0e             	lea    (%esi,%ecx,1),%ebx
  10050e:	39 d3                	cmp    %edx,%ebx
  100510:	76 04                	jbe    100516 <fs_write+0x6a>
  100512:	29 ca                	sub    %ecx,%edx
  100514:	89 d6                	mov    %edx,%esi
  100516:	89 74 24 08          	mov    %esi,0x8(%esp)
  10051a:	c1 e0 04             	shl    $0x4,%eax
  10051d:	8d 98 20 25 10 00    	lea    0x102520(%eax),%ebx
  100523:	03 88 28 25 10 00    	add    0x102528(%eax),%ecx
  100529:	89 4c 24 04          	mov    %ecx,0x4(%esp)
  10052d:	89 3c 24             	mov    %edi,(%esp)
  100530:	e8 3b 02 00 00       	call   100770 <ramdisk_write>
  100535:	01 73 0c             	add    %esi,0xc(%ebx)
  100538:	89 f0                	mov    %esi,%eax
  10053a:	83 c4 1c             	add    $0x1c,%esp
  10053d:	5b                   	pop    %ebx
  10053e:	5e                   	pop    %esi
  10053f:	5f                   	pop    %edi
  100540:	5d                   	pop    %ebp
  100541:	c3                   	ret    
  100542:	66 90                	xchg   %ax,%ax
  100544:	85 f6                	test   %esi,%esi
  100546:	74 ab                	je     1004f3 <fs_write+0x47>
  100548:	31 c0                	xor    %eax,%eax
  10054a:	31 db                	xor    %ebx,%ebx
  10054c:	0f be 04 07          	movsbl (%edi,%eax,1),%eax
  100550:	89 04 24             	mov    %eax,(%esp)
  100553:	e8 b8 fa ff ff       	call   100010 <_putc>
  100558:	43                   	inc    %ebx
  100559:	89 d8                	mov    %ebx,%eax
  10055b:	39 f3                	cmp    %esi,%ebx
  10055d:	75 ed                	jne    10054c <fs_write+0xa0>
  10055f:	89 f0                	mov    %esi,%eax
  100561:	83 c4 1c             	add    $0x1c,%esp
  100564:	5b                   	pop    %ebx
  100565:	5e                   	pop    %esi
  100566:	5f                   	pop    %edi
  100567:	5d                   	pop    %ebp
  100568:	c3                   	ret    
  100569:	8d 76 00             	lea    0x0(%esi),%esi

0010056c <fs_lseek>:
  10056c:	55                   	push   %ebp
  10056d:	89 e5                	mov    %esp,%ebp
  10056f:	8b 45 0c             	mov    0xc(%ebp),%eax
  100572:	8b 55 10             	mov    0x10(%ebp),%edx
  100575:	83 fa 01             	cmp    $0x1,%edx
  100578:	74 42                	je     1005bc <fs_lseek+0x50>
  10057a:	83 fa 02             	cmp    $0x2,%edx
  10057d:	74 29                	je     1005a8 <fs_lseek+0x3c>
  10057f:	85 d2                	test   %edx,%edx
  100581:	74 09                	je     10058c <fs_lseek+0x20>
  100583:	b8 ff ff ff ff       	mov    $0xffffffff,%eax
  100588:	5d                   	pop    %ebp
  100589:	c3                   	ret    
  10058a:	66 90                	xchg   %ax,%ax
  10058c:	85 c0                	test   %eax,%eax
  10058e:	78 f3                	js     100583 <fs_lseek+0x17>
  100590:	8b 55 08             	mov    0x8(%ebp),%edx
  100593:	c1 e2 04             	shl    $0x4,%edx
  100596:	81 c2 20 25 10 00    	add    $0x102520,%edx
  10059c:	3b 42 04             	cmp    0x4(%edx),%eax
  10059f:	77 e2                	ja     100583 <fs_lseek+0x17>
  1005a1:	89 42 0c             	mov    %eax,0xc(%edx)
  1005a4:	5d                   	pop    %ebp
  1005a5:	c3                   	ret    
  1005a6:	66 90                	xchg   %ax,%ax
  1005a8:	8b 55 08             	mov    0x8(%ebp),%edx
  1005ab:	c1 e2 04             	shl    $0x4,%edx
  1005ae:	03 82 24 25 10 00    	add    0x102524(%edx),%eax
  1005b4:	89 82 2c 25 10 00    	mov    %eax,0x10252c(%edx)
  1005ba:	5d                   	pop    %ebp
  1005bb:	c3                   	ret    
  1005bc:	8b 55 08             	mov    0x8(%ebp),%edx
  1005bf:	c1 e2 04             	shl    $0x4,%edx
  1005c2:	81 c2 20 25 10 00    	add    $0x102520,%edx
  1005c8:	03 42 0c             	add    0xc(%edx),%eax
  1005cb:	78 b6                	js     100583 <fs_lseek+0x17>
  1005cd:	3b 42 04             	cmp    0x4(%edx),%eax
  1005d0:	76 cf                	jbe    1005a1 <fs_lseek+0x35>
  1005d2:	eb af                	jmp    100583 <fs_lseek+0x17>

001005d4 <fs_close>:
  1005d4:	55                   	push   %ebp
  1005d5:	89 e5                	mov    %esp,%ebp
  1005d7:	31 c0                	xor    %eax,%eax
  1005d9:	5d                   	pop    %ebp
  1005da:	c3                   	ret    
  1005db:	90                   	nop

001005dc <loader>:
  1005dc:	55                   	push   %ebp
  1005dd:	89 e5                	mov    %esp,%ebp
  1005df:	57                   	push   %edi
  1005e0:	56                   	push   %esi
  1005e1:	53                   	push   %ebx
  1005e2:	83 ec 2c             	sub    $0x2c,%esp
  1005e5:	8b 7d 08             	mov    0x8(%ebp),%edi
  1005e8:	c7 44 24 08 00 00 00 	movl   $0x0,0x8(%esp)
  1005ef:	00 
  1005f0:	c7 44 24 04 00 00 00 	movl   $0x0,0x4(%esp)
  1005f7:	00 
  1005f8:	8b 45 0c             	mov    0xc(%ebp),%eax
  1005fb:	89 04 24             	mov    %eax,(%esp)
  1005fe:	e8 4d fd ff ff       	call   100350 <fs_open>
  100603:	89 c6                	mov    %eax,%esi
  100605:	89 04 24             	mov    %eax,(%esp)
  100608:	e8 2f fd ff ff       	call   10033c <fs_filesz>
  10060d:	89 c2                	mov    %eax,%edx
  10060f:	85 c0                	test   %eax,%eax
  100611:	0f 88 ad 00 00 00    	js     1006c4 <loader+0xe8>
  100617:	c1 fa 0c             	sar    $0xc,%edx
  10061a:	89 55 e0             	mov    %edx,-0x20(%ebp)
  10061d:	25 ff 0f 00 80       	and    $0x80000fff,%eax
  100622:	89 45 dc             	mov    %eax,-0x24(%ebp)
  100625:	0f 88 b3 00 00 00    	js     1006de <loader+0x102>
  10062b:	8b 45 e0             	mov    -0x20(%ebp),%eax
  10062e:	85 c0                	test   %eax,%eax
  100630:	0f 8e ba 00 00 00    	jle    1006f0 <loader+0x114>
  100636:	31 db                	xor    %ebx,%ebx
  100638:	e8 37 fa ff ff       	call   100074 <new_page>
  10063d:	89 44 24 08          	mov    %eax,0x8(%esp)
  100641:	89 45 e4             	mov    %eax,-0x1c(%ebp)
  100644:	8d 93 48 80 00 00    	lea    0x8048(%ebx),%edx
  10064a:	c1 e2 0c             	shl    $0xc,%edx
  10064d:	89 54 24 04          	mov    %edx,0x4(%esp)
  100651:	89 3c 24             	mov    %edi,(%esp)
  100654:	e8 d3 0e 00 00       	call   10152c <_map>
  100659:	c7 44 24 08 00 10 00 	movl   $0x1000,0x8(%esp)
  100660:	00 
  100661:	8b 45 e4             	mov    -0x1c(%ebp),%eax
  100664:	89 44 24 04          	mov    %eax,0x4(%esp)
  100668:	89 34 24             	mov    %esi,(%esp)
  10066b:	e8 90 fd ff ff       	call   100400 <fs_read>
  100670:	43                   	inc    %ebx
  100671:	3b 5d e0             	cmp    -0x20(%ebp),%ebx
  100674:	75 c2                	jne    100638 <loader+0x5c>
  100676:	c1 e3 0c             	shl    $0xc,%ebx
  100679:	81 c3 00 80 04 08    	add    $0x8048000,%ebx
  10067f:	e8 f0 f9 ff ff       	call   100074 <new_page>
  100684:	89 44 24 08          	mov    %eax,0x8(%esp)
  100688:	89 45 e4             	mov    %eax,-0x1c(%ebp)
  10068b:	89 5c 24 04          	mov    %ebx,0x4(%esp)
  10068f:	89 3c 24             	mov    %edi,(%esp)
  100692:	e8 95 0e 00 00       	call   10152c <_map>
  100697:	8b 45 dc             	mov    -0x24(%ebp),%eax
  10069a:	89 44 24 08          	mov    %eax,0x8(%esp)
  10069e:	8b 45 e4             	mov    -0x1c(%ebp),%eax
  1006a1:	89 44 24 04          	mov    %eax,0x4(%esp)
  1006a5:	89 34 24             	mov    %esi,(%esp)
  1006a8:	e8 53 fd ff ff       	call   100400 <fs_read>
  1006ad:	89 34 24             	mov    %esi,(%esp)
  1006b0:	e8 1f ff ff ff       	call   1005d4 <fs_close>
  1006b5:	b8 00 80 04 08       	mov    $0x8048000,%eax
  1006ba:	83 c4 2c             	add    $0x2c,%esp
  1006bd:	5b                   	pop    %ebx
  1006be:	5e                   	pop    %esi
  1006bf:	5f                   	pop    %edi
  1006c0:	5d                   	pop    %ebp
  1006c1:	c3                   	ret    
  1006c2:	66 90                	xchg   %ax,%ax
  1006c4:	8d 90 ff 0f 00 00    	lea    0xfff(%eax),%edx
  1006ca:	c1 fa 0c             	sar    $0xc,%edx
  1006cd:	89 55 e0             	mov    %edx,-0x20(%ebp)
  1006d0:	25 ff 0f 00 80       	and    $0x80000fff,%eax
  1006d5:	89 45 dc             	mov    %eax,-0x24(%ebp)
  1006d8:	0f 89 4d ff ff ff    	jns    10062b <loader+0x4f>
  1006de:	ff 4d dc             	decl   -0x24(%ebp)
  1006e1:	81 4d dc 00 f0 ff ff 	orl    $0xfffff000,-0x24(%ebp)
  1006e8:	ff 45 dc             	incl   -0x24(%ebp)
  1006eb:	e9 3b ff ff ff       	jmp    10062b <loader+0x4f>
  1006f0:	bb 00 80 04 08       	mov    $0x8048000,%ebx
  1006f5:	eb 88                	jmp    10067f <loader+0xa3>
  1006f7:	90                   	nop

001006f8 <ramdisk_read>:
  1006f8:	55                   	push   %ebp
  1006f9:	89 e5                	mov    %esp,%ebp
  1006fb:	57                   	push   %edi
  1006fc:	56                   	push   %esi
  1006fd:	53                   	push   %ebx
  1006fe:	83 ec 2c             	sub    $0x2c,%esp
  100701:	8b 7d 08             	mov    0x8(%ebp),%edi
  100704:	8b 5d 0c             	mov    0xc(%ebp),%ebx
  100707:	8b 75 10             	mov    0x10(%ebp),%esi
  10070a:	8d 14 33             	lea    (%ebx,%esi,1),%edx
  10070d:	b8 38 a2 c9 02       	mov    $0x2c9a238,%eax
  100712:	2d e0 2c 10 00       	sub    $0x102ce0,%eax
  100717:	39 c2                	cmp    %eax,%edx
  100719:	76 38                	jbe    100753 <ramdisk_read+0x5b>
  10071b:	c7 44 24 10 78 1f 10 	movl   $0x101f78,0x10(%esp)
  100722:	00 
  100723:	c7 44 24 0c 0a 20 10 	movl   $0x10200a,0xc(%esp)
  10072a:	00 
  10072b:	c7 44 24 08 0e 00 00 	movl   $0xe,0x8(%esp)
  100732:	00 
  100733:	c7 44 24 04 95 1f 10 	movl   $0x101f95,0x4(%esp)
  10073a:	00 
  10073b:	c7 04 24 80 18 10 00 	movl   $0x101880,(%esp)
  100742:	e8 11 0c 00 00       	call   101358 <printf>
  100747:	c7 04 24 01 00 00 00 	movl   $0x1,(%esp)
  10074e:	e8 d9 f8 ff ff       	call   10002c <_halt>
  100753:	89 75 10             	mov    %esi,0x10(%ebp)
  100756:	81 c3 e0 2c 10 00    	add    $0x102ce0,%ebx
  10075c:	89 5d 0c             	mov    %ebx,0xc(%ebp)
  10075f:	89 7d 08             	mov    %edi,0x8(%ebp)
  100762:	83 c4 2c             	add    $0x2c,%esp
  100765:	5b                   	pop    %ebx
  100766:	5e                   	pop    %esi
  100767:	5f                   	pop    %edi
  100768:	5d                   	pop    %ebp
  100769:	e9 72 0c 00 00       	jmp    1013e0 <memcpy>
  10076e:	66 90                	xchg   %ax,%ax

00100770 <ramdisk_write>:
  100770:	55                   	push   %ebp
  100771:	89 e5                	mov    %esp,%ebp
  100773:	57                   	push   %edi
  100774:	56                   	push   %esi
  100775:	53                   	push   %ebx
  100776:	83 ec 2c             	sub    $0x2c,%esp
  100779:	8b 7d 08             	mov    0x8(%ebp),%edi
  10077c:	8b 5d 0c             	mov    0xc(%ebp),%ebx
  10077f:	8b 75 10             	mov    0x10(%ebp),%esi
  100782:	8d 14 33             	lea    (%ebx,%esi,1),%edx
  100785:	b8 38 a2 c9 02       	mov    $0x2c9a238,%eax
  10078a:	2d e0 2c 10 00       	sub    $0x102ce0,%eax
  10078f:	39 c2                	cmp    %eax,%edx
  100791:	76 38                	jbe    1007cb <ramdisk_write+0x5b>
  100793:	c7 44 24 10 78 1f 10 	movl   $0x101f78,0x10(%esp)
  10079a:	00 
  10079b:	c7 44 24 0c fc 1f 10 	movl   $0x101ffc,0xc(%esp)
  1007a2:	00 
  1007a3:	c7 44 24 08 14 00 00 	movl   $0x14,0x8(%esp)
  1007aa:	00 
  1007ab:	c7 44 24 04 95 1f 10 	movl   $0x101f95,0x4(%esp)
  1007b2:	00 
  1007b3:	c7 04 24 80 18 10 00 	movl   $0x101880,(%esp)
  1007ba:	e8 99 0b 00 00       	call   101358 <printf>
  1007bf:	c7 04 24 01 00 00 00 	movl   $0x1,(%esp)
  1007c6:	e8 61 f8 ff ff       	call   10002c <_halt>
  1007cb:	89 75 10             	mov    %esi,0x10(%ebp)
  1007ce:	89 7d 0c             	mov    %edi,0xc(%ebp)
  1007d1:	81 c3 e0 2c 10 00    	add    $0x102ce0,%ebx
  1007d7:	89 5d 08             	mov    %ebx,0x8(%ebp)
  1007da:	83 c4 2c             	add    $0x2c,%esp
  1007dd:	5b                   	pop    %ebx
  1007de:	5e                   	pop    %esi
  1007df:	5f                   	pop    %edi
  1007e0:	5d                   	pop    %ebp
  1007e1:	e9 fa 0b 00 00       	jmp    1013e0 <memcpy>
  1007e6:	66 90                	xchg   %ax,%ax

001007e8 <init_ramdisk>:
  1007e8:	55                   	push   %ebp
  1007e9:	89 e5                	mov    %esp,%ebp
  1007eb:	83 ec 28             	sub    $0x28,%esp
  1007ee:	b8 38 a2 c9 02       	mov    $0x2c9a238,%eax
  1007f3:	2d e0 2c 10 00       	sub    $0x102ce0,%eax
  1007f8:	89 44 24 18          	mov    %eax,0x18(%esp)
  1007fc:	c7 44 24 14 38 a2 c9 	movl   $0x2c9a238,0x14(%esp)
  100803:	02 
  100804:	c7 44 24 10 e0 2c 10 	movl   $0x102ce0,0x10(%esp)
  10080b:	00 
  10080c:	c7 44 24 0c ef 1f 10 	movl   $0x101fef,0xc(%esp)
  100813:	00 
  100814:	c7 44 24 08 1a 00 00 	movl   $0x1a,0x8(%esp)
  10081b:	00 
  10081c:	c7 44 24 04 95 1f 10 	movl   $0x101f95,0x4(%esp)
  100823:	00 
  100824:	c7 04 24 a4 1f 10 00 	movl   $0x101fa4,(%esp)
  10082b:	e8 28 0b 00 00       	call   101358 <printf>
  100830:	c9                   	leave  
  100831:	c3                   	ret    
  100832:	66 90                	xchg   %ax,%ax

00100834 <get_ramdisk_size>:
  100834:	55                   	push   %ebp
  100835:	89 e5                	mov    %esp,%ebp
  100837:	b8 38 a2 c9 02       	mov    $0x2c9a238,%eax
  10083c:	2d e0 2c 10 00       	sub    $0x102ce0,%eax
  100841:	5d                   	pop    %ebp
  100842:	c3                   	ret    
  100843:	90                   	nop

00100844 <main>:
  100844:	55                   	push   %ebp
  100845:	89 e5                	mov    %esp,%ebp
  100847:	83 e4 f0             	and    $0xfffffff0,%esp
  10084a:	83 ec 20             	sub    $0x20,%esp
  10084d:	e8 36 f9 ff ff       	call   100188 <init_mm>
  100852:	c7 44 24 0c 22 21 10 	movl   $0x102122,0xc(%esp)
  100859:	00 
  10085a:	c7 44 24 08 14 00 00 	movl   $0x14,0x8(%esp)
  100861:	00 
  100862:	c7 44 24 04 17 20 10 	movl   $0x102017,0x4(%esp)
  100869:	00 
  10086a:	c7 04 24 38 20 10 00 	movl   $0x102038,(%esp)
  100871:	e8 e2 0a 00 00       	call   101358 <printf>
  100876:	c7 44 24 14 22 20 10 	movl   $0x102022,0x14(%esp)
  10087d:	00 
  10087e:	c7 44 24 10 2e 20 10 	movl   $0x10202e,0x10(%esp)
  100885:	00 
  100886:	c7 44 24 0c 22 21 10 	movl   $0x102122,0xc(%esp)
  10088d:	00 
  10088e:	c7 44 24 08 15 00 00 	movl   $0x15,0x8(%esp)
  100895:	00 
  100896:	c7 44 24 04 17 20 10 	movl   $0x102017,0x4(%esp)
  10089d:	00 
  10089e:	c7 04 24 70 20 10 00 	movl   $0x102070,(%esp)
  1008a5:	e8 ae 0a 00 00       	call   101358 <printf>
  1008aa:	e8 39 ff ff ff       	call   1007e8 <init_ramdisk>
  1008af:	e8 d0 01 00 00       	call   100a84 <init_device>
  1008b4:	c7 44 24 0c 22 21 10 	movl   $0x102122,0xc(%esp)
  1008bb:	00 
  1008bc:	c7 44 24 08 1c 00 00 	movl   $0x1c,0x8(%esp)
  1008c3:	00 
  1008c4:	c7 44 24 04 17 20 10 	movl   $0x102017,0x4(%esp)
  1008cb:	00 
  1008cc:	c7 04 24 9c 20 10 00 	movl   $0x10209c,(%esp)
  1008d3:	e8 80 0a 00 00       	call   101358 <printf>
  1008d8:	e8 bb 02 00 00       	call   100b98 <init_irq>
  1008dd:	e8 3e fa ff ff       	call   100320 <init_fs>
  1008e2:	c7 04 24 2c 1e 10 00 	movl   $0x101e2c,(%esp)
  1008e9:	e8 be 02 00 00       	call   100bac <load_prog>
  1008ee:	c7 04 24 e4 1d 10 00 	movl   $0x101de4,(%esp)
  1008f5:	e8 b2 02 00 00       	call   100bac <load_prog>
  1008fa:	e8 2d 0f 00 00       	call   10182c <_trap>
  1008ff:	c7 44 24 0c 22 21 10 	movl   $0x102122,0xc(%esp)
  100906:	00 
  100907:	c7 44 24 08 29 00 00 	movl   $0x29,0x8(%esp)
  10090e:	00 
  10090f:	c7 44 24 04 17 20 10 	movl   $0x102017,0x4(%esp)
  100916:	00 
  100917:	c7 04 24 e0 20 10 00 	movl   $0x1020e0,(%esp)
  10091e:	e8 35 0a 00 00       	call   101358 <printf>
  100923:	c7 04 24 01 00 00 00 	movl   $0x1,(%esp)
  10092a:	e8 fd f6 ff ff       	call   10002c <_halt>
  10092f:	31 c0                	xor    %eax,%eax
  100931:	c9                   	leave  
  100932:	c3                   	ret    
  100933:	90                   	nop

00100934 <events_read>:
  100934:	55                   	push   %ebp
  100935:	89 e5                	mov    %esp,%ebp
  100937:	56                   	push   %esi
  100938:	53                   	push   %ebx
  100939:	83 ec 20             	sub    $0x20,%esp
  10093c:	8b 75 08             	mov    0x8(%ebp),%esi
  10093f:	e8 70 0d 00 00       	call   1016b4 <_read_key>
  100944:	89 c3                	mov    %eax,%ebx
  100946:	f6 c4 80             	test   $0x80,%ah
  100949:	0f 84 81 00 00 00    	je     1009d0 <events_read+0x9c>
  10094f:	80 f7 80             	xor    $0x80,%bh
  100952:	b0 01                	mov    $0x1,%al
  100954:	85 db                	test   %ebx,%ebx
  100956:	74 7e                	je     1009d6 <events_read+0xa2>
  100958:	8b 14 9d e0 28 10 00 	mov    0x1028e0(,%ebx,4),%edx
  10095f:	84 c0                	test   %al,%al
  100961:	0f 84 99 00 00 00    	je     100a00 <events_read+0xcc>
  100967:	89 54 24 0c          	mov    %edx,0xc(%esp)
  10096b:	c7 44 24 08 4c 21 10 	movl   $0x10214c,0x8(%esp)
  100972:	00 
  100973:	c7 44 24 04 45 21 10 	movl   $0x102145,0x4(%esp)
  10097a:	00 
  10097b:	89 34 24             	mov    %esi,(%esp)
  10097e:	e8 ed 09 00 00       	call   101370 <sprintf>
  100983:	b8 27 21 10 00       	mov    $0x102127,%eax
  100988:	89 44 24 18          	mov    %eax,0x18(%esp)
  10098c:	8b 04 9d e0 28 10 00 	mov    0x1028e0(,%ebx,4),%eax
  100993:	89 44 24 14          	mov    %eax,0x14(%esp)
  100997:	89 5c 24 10          	mov    %ebx,0x10(%esp)
  10099b:	c7 44 24 0c b6 22 10 	movl   $0x1022b6,0xc(%esp)
  1009a2:	00 
  1009a3:	c7 44 24 08 1c 00 00 	movl   $0x1c,0x8(%esp)
  1009aa:	00 
  1009ab:	c7 44 24 04 35 21 10 	movl   $0x102135,0x4(%esp)
  1009b2:	00 
  1009b3:	c7 04 24 8c 22 10 00 	movl   $0x10228c,(%esp)
  1009ba:	e8 99 09 00 00       	call   101358 <printf>
  1009bf:	89 75 08             	mov    %esi,0x8(%ebp)
  1009c2:	83 c4 20             	add    $0x20,%esp
  1009c5:	5b                   	pop    %ebx
  1009c6:	5e                   	pop    %esi
  1009c7:	5d                   	pop    %ebp
  1009c8:	e9 bb 09 00 00       	jmp    101388 <strlen>
  1009cd:	8d 76 00             	lea    0x0(%esi),%esi
  1009d0:	31 c0                	xor    %eax,%eax
  1009d2:	85 db                	test   %ebx,%ebx
  1009d4:	75 82                	jne    100958 <events_read+0x24>
  1009d6:	e8 65 0c 00 00       	call   101640 <_uptime>
  1009db:	89 44 24 08          	mov    %eax,0x8(%esp)
  1009df:	c7 44 24 04 2f 21 10 	movl   $0x10212f,0x4(%esp)
  1009e6:	00 
  1009e7:	89 34 24             	mov    %esi,(%esp)
  1009ea:	e8 81 09 00 00       	call   101370 <sprintf>
  1009ef:	89 75 08             	mov    %esi,0x8(%ebp)
  1009f2:	83 c4 20             	add    $0x20,%esp
  1009f5:	5b                   	pop    %ebx
  1009f6:	5e                   	pop    %esi
  1009f7:	5d                   	pop    %ebp
  1009f8:	e9 8b 09 00 00       	jmp    101388 <strlen>
  1009fd:	8d 76 00             	lea    0x0(%esi),%esi
  100a00:	89 54 24 0c          	mov    %edx,0xc(%esp)
  100a04:	c7 44 24 08 42 21 10 	movl   $0x102142,0x8(%esp)
  100a0b:	00 
  100a0c:	c7 44 24 04 45 21 10 	movl   $0x102145,0x4(%esp)
  100a13:	00 
  100a14:	89 34 24             	mov    %esi,(%esp)
  100a17:	e8 54 09 00 00       	call   101370 <sprintf>
  100a1c:	b8 2c 21 10 00       	mov    $0x10212c,%eax
  100a21:	e9 62 ff ff ff       	jmp    100988 <events_read+0x54>
  100a26:	66 90                	xchg   %ax,%ax

00100a28 <dispinfo_read>:
  100a28:	55                   	push   %ebp
  100a29:	89 e5                	mov    %esp,%ebp
  100a2b:	8b 45 0c             	mov    0xc(%ebp),%eax
  100a2e:	05 20 b0 c9 02       	add    $0x2c9b020,%eax
  100a33:	89 45 0c             	mov    %eax,0xc(%ebp)
  100a36:	5d                   	pop    %ebp
  100a37:	e9 a4 09 00 00       	jmp    1013e0 <memcpy>

00100a3c <fb_write>:
  100a3c:	55                   	push   %ebp
  100a3d:	89 e5                	mov    %esp,%ebp
  100a3f:	83 ec 28             	sub    $0x28,%esp
  100a42:	8b 45 0c             	mov    0xc(%ebp),%eax
  100a45:	85 c0                	test   %eax,%eax
  100a47:	78 33                	js     100a7c <fb_write+0x40>
  100a49:	c1 f8 02             	sar    $0x2,%eax
  100a4c:	c7 44 24 10 01 00 00 	movl   $0x1,0x10(%esp)
  100a53:	00 
  100a54:	8b 55 10             	mov    0x10(%ebp),%edx
  100a57:	c1 ea 02             	shr    $0x2,%edx
  100a5a:	89 54 24 0c          	mov    %edx,0xc(%esp)
  100a5e:	99                   	cltd   
  100a5f:	f7 3d 40 a2 c9 02    	idivl  0x2c9a240
  100a65:	89 44 24 08          	mov    %eax,0x8(%esp)
  100a69:	89 54 24 04          	mov    %edx,0x4(%esp)
  100a6d:	8b 45 08             	mov    0x8(%ebp),%eax
  100a70:	89 04 24             	mov    %eax,(%esp)
  100a73:	e8 dc 0b 00 00       	call   101654 <_draw_rect>
  100a78:	c9                   	leave  
  100a79:	c3                   	ret    
  100a7a:	66 90                	xchg   %ax,%ax
  100a7c:	83 c0 03             	add    $0x3,%eax
  100a7f:	eb c8                	jmp    100a49 <fb_write+0xd>
  100a81:	8d 76 00             	lea    0x0(%esi),%esi

00100a84 <init_device>:
  100a84:	55                   	push   %ebp
  100a85:	89 e5                	mov    %esp,%ebp
  100a87:	83 ec 18             	sub    $0x18,%esp
  100a8a:	e8 a1 0b 00 00       	call   101630 <_ioe_init>
  100a8f:	a1 44 a2 c9 02       	mov    0x2c9a244,%eax
  100a94:	89 44 24 0c          	mov    %eax,0xc(%esp)
  100a98:	a1 40 a2 c9 02       	mov    0x2c9a240,%eax
  100a9d:	89 44 24 08          	mov    %eax,0x8(%esp)
  100aa1:	c7 44 24 04 4f 21 10 	movl   $0x10214f,0x4(%esp)
  100aa8:	00 
  100aa9:	c7 04 24 20 b0 c9 02 	movl   $0x2c9b020,(%esp)
  100ab0:	e8 bb 08 00 00       	call   101370 <sprintf>
  100ab5:	c9                   	leave  
  100ab6:	c3                   	ret    
  100ab7:	90                   	nop

00100ab8 <do_event>:
  100ab8:	55                   	push   %ebp
  100ab9:	89 e5                	mov    %esp,%ebp
  100abb:	53                   	push   %ebx
  100abc:	83 ec 24             	sub    $0x24,%esp
  100abf:	8b 45 08             	mov    0x8(%ebp),%eax
  100ac2:	8b 5d 10             	mov    0x10(%ebp),%ebx
  100ac5:	83 f8 07             	cmp    $0x7,%eax
  100ac8:	0f 84 ae 00 00 00    	je     100b7c <do_event+0xc4>
  100ace:	83 f8 08             	cmp    $0x8,%eax
  100ad1:	74 75                	je     100b48 <do_event+0x90>
  100ad3:	83 f8 01             	cmp    $0x1,%eax
  100ad6:	74 3c                	je     100b14 <do_event+0x5c>
  100ad8:	89 44 24 10          	mov    %eax,0x10(%esp)
  100adc:	c7 44 24 0c 84 23 10 	movl   $0x102384,0xc(%esp)
  100ae3:	00 
  100ae4:	c7 44 24 08 11 00 00 	movl   $0x11,0x8(%esp)
  100aeb:	00 
  100aec:	c7 44 24 04 c2 22 10 	movl   $0x1022c2,0x4(%esp)
  100af3:	00 
  100af4:	c7 04 24 40 23 10 00 	movl   $0x102340,(%esp)
  100afb:	e8 58 08 00 00       	call   101358 <printf>
  100b00:	c7 04 24 01 00 00 00 	movl   $0x1,(%esp)
  100b07:	e8 20 f5 ff ff       	call   10002c <_halt>
  100b0c:	31 c0                	xor    %eax,%eax
  100b0e:	83 c4 24             	add    $0x24,%esp
  100b11:	5b                   	pop    %ebx
  100b12:	5d                   	pop    %ebp
  100b13:	c3                   	ret    
  100b14:	c7 44 24 0c 84 23 10 	movl   $0x102384,0xc(%esp)
  100b1b:	00 
  100b1c:	c7 44 24 08 0f 00 00 	movl   $0xf,0x8(%esp)
  100b23:	00 
  100b24:	c7 44 24 04 c2 22 10 	movl   $0x1022c2,0x4(%esp)
  100b2b:	00 
  100b2c:	c7 04 24 18 23 10 00 	movl   $0x102318,(%esp)
  100b33:	e8 20 08 00 00       	call   101358 <printf>
  100b38:	89 5d 08             	mov    %ebx,0x8(%ebp)
  100b3b:	83 c4 24             	add    $0x24,%esp
  100b3e:	5b                   	pop    %ebx
  100b3f:	5d                   	pop    %ebp
  100b40:	e9 e7 00 00 00       	jmp    100c2c <schedule>
  100b45:	8d 76 00             	lea    0x0(%esi),%esi
  100b48:	c7 44 24 0c 84 23 10 	movl   $0x102384,0xc(%esp)
  100b4f:	00 
  100b50:	c7 44 24 08 07 00 00 	movl   $0x7,0x8(%esp)
  100b57:	00 
  100b58:	c7 44 24 04 c2 22 10 	movl   $0x1022c2,0x4(%esp)
  100b5f:	00 
  100b60:	c7 04 24 e4 22 10 00 	movl   $0x1022e4,(%esp)
  100b67:	e8 ec 07 00 00       	call   101358 <printf>
  100b6c:	89 1c 24             	mov    %ebx,(%esp)
  100b6f:	e8 6c f6 ff ff       	call   1001e0 <do_syscall>
  100b74:	31 c0                	xor    %eax,%eax
  100b76:	83 c4 24             	add    $0x24,%esp
  100b79:	5b                   	pop    %ebx
  100b7a:	5d                   	pop    %ebp
  100b7b:	c3                   	ret    
  100b7c:	c7 04 24 cc 22 10 00 	movl   $0x1022cc,(%esp)
  100b83:	e8 d0 07 00 00       	call   101358 <printf>
  100b88:	89 5d 08             	mov    %ebx,0x8(%ebp)
  100b8b:	83 c4 24             	add    $0x24,%esp
  100b8e:	5b                   	pop    %ebx
  100b8f:	5d                   	pop    %ebp
  100b90:	e9 97 00 00 00       	jmp    100c2c <schedule>
  100b95:	8d 76 00             	lea    0x0(%esi),%esi

00100b98 <init_irq>:
  100b98:	55                   	push   %ebp
  100b99:	89 e5                	mov    %esp,%ebp
  100b9b:	83 ec 18             	sub    $0x18,%esp
  100b9e:	c7 04 24 b8 0a 10 00 	movl   $0x100ab8,(%esp)
  100ba5:	e8 8a 0b 00 00       	call   101734 <_asye_init>
  100baa:	c9                   	leave  
  100bab:	c3                   	ret    

00100bac <load_prog>:
  100bac:	55                   	push   %ebp
  100bad:	89 e5                	mov    %esp,%ebp
  100baf:	57                   	push   %edi
  100bb0:	56                   	push   %esi
  100bb1:	53                   	push   %ebx
  100bb2:	83 ec 2c             	sub    $0x2c,%esp
  100bb5:	8b 3d 08 c0 c9 02    	mov    0x2c9c008,%edi
  100bbb:	8d 47 01             	lea    0x1(%edi),%eax
  100bbe:	a3 08 c0 c9 02       	mov    %eax,0x2c9c008
  100bc3:	c1 e7 0f             	shl    $0xf,%edi
  100bc6:	8d 9f 00 d0 c9 02    	lea    0x2c9d000(%edi),%ebx
  100bcc:	8d b7 04 d0 c9 02    	lea    0x2c9d004(%edi),%esi
  100bd2:	89 34 24             	mov    %esi,(%esp)
  100bd5:	e8 0a 09 00 00       	call   1014e4 <_protect>
  100bda:	8b 45 08             	mov    0x8(%ebp),%eax
  100bdd:	89 44 24 04          	mov    %eax,0x4(%esp)
  100be1:	89 34 24             	mov    %esi,(%esp)
  100be4:	e8 f3 f9 ff ff       	call   1005dc <loader>
  100be9:	8d 97 00 50 ca 02    	lea    0x2ca5000(%edi),%edx
  100bef:	c7 44 24 1c 00 00 00 	movl   $0x0,0x1c(%esp)
  100bf6:	00 
  100bf7:	c7 44 24 18 00 00 00 	movl   $0x0,0x18(%esp)
  100bfe:	00 
  100bff:	89 44 24 14          	mov    %eax,0x14(%esp)
  100c03:	89 5c 24 0c          	mov    %ebx,0xc(%esp)
  100c07:	89 54 24 10          	mov    %edx,0x10(%esp)
  100c0b:	89 5c 24 04          	mov    %ebx,0x4(%esp)
  100c0f:	89 54 24 08          	mov    %edx,0x8(%esp)
  100c13:	89 34 24             	mov    %esi,(%esp)
  100c16:	e8 69 09 00 00       	call   101584 <_umake>
  100c1b:	89 87 00 d0 c9 02    	mov    %eax,0x2c9d000(%edi)
  100c21:	83 c4 2c             	add    $0x2c,%esp
  100c24:	5b                   	pop    %ebx
  100c25:	5e                   	pop    %esi
  100c26:	5f                   	pop    %edi
  100c27:	5d                   	pop    %ebp
  100c28:	c3                   	ret    
  100c29:	8d 76 00             	lea    0x0(%esi),%esi

00100c2c <schedule>:
  100c2c:	55                   	push   %ebp
  100c2d:	89 e5                	mov    %esp,%ebp
  100c2f:	83 ec 18             	sub    $0x18,%esp
  100c32:	a1 00 c0 c9 02       	mov    0x2c9c000,%eax
  100c37:	85 c0                	test   %eax,%eax
  100c39:	74 5d                	je     100c98 <schedule+0x6c>
  100c3b:	8b 55 08             	mov    0x8(%ebp),%edx
  100c3e:	89 10                	mov    %edx,(%eax)
  100c40:	81 3d 00 c0 c9 02 00 	cmpl   $0x2c9d000,0x2c9c000
  100c47:	d0 c9 02 
  100c4a:	74 56                	je     100ca2 <schedule+0x76>
  100c4c:	c7 05 00 c0 c9 02 00 	movl   $0x2c9d000,0x2c9c000
  100c53:	d0 c9 02 
  100c56:	a1 04 c0 c9 02       	mov    0x2c9c004,%eax
  100c5b:	3d e8 03 00 00       	cmp    $0x3e8,%eax
  100c60:	74 1a                	je     100c7c <schedule+0x50>
  100c62:	a1 00 c0 c9 02       	mov    0x2c9c000,%eax
  100c67:	83 c0 04             	add    $0x4,%eax
  100c6a:	89 04 24             	mov    %eax,(%esp)
  100c6d:	e8 aa 08 00 00       	call   10151c <_switch>
  100c72:	a1 00 c0 c9 02       	mov    0x2c9c000,%eax
  100c77:	8b 00                	mov    (%eax),%eax
  100c79:	c9                   	leave  
  100c7a:	c3                   	ret    
  100c7b:	90                   	nop
  100c7c:	c7 05 00 c0 c9 02 00 	movl   $0x2ca5000,0x2c9c000
  100c83:	50 ca 02 
  100c86:	c7 05 04 c0 c9 02 00 	movl   $0x0,0x2c9c004
  100c8d:	00 00 00 
  100c90:	b8 00 50 ca 02       	mov    $0x2ca5000,%eax
  100c95:	eb d0                	jmp    100c67 <schedule+0x3b>
  100c97:	90                   	nop
  100c98:	c7 05 00 c0 c9 02 00 	movl   $0x2c9d000,0x2c9c000
  100c9f:	d0 c9 02 
  100ca2:	a1 04 c0 c9 02       	mov    0x2c9c004,%eax
  100ca7:	40                   	inc    %eax
  100ca8:	a3 04 c0 c9 02       	mov    %eax,0x2c9c004
  100cad:	eb ac                	jmp    100c5b <schedule+0x2f>
  100caf:	90                   	nop

00100cb0 <vprintdec>:
  100cb0:	55                   	push   %ebp
  100cb1:	89 e5                	mov    %esp,%ebp
  100cb3:	57                   	push   %edi
  100cb4:	56                   	push   %esi
  100cb5:	53                   	push   %ebx
  100cb6:	83 ec 1c             	sub    $0x1c,%esp
  100cb9:	8b 45 08             	mov    0x8(%ebp),%eax
  100cbc:	8b 7d 14             	mov    0x14(%ebp),%edi
  100cbf:	89 7d e0             	mov    %edi,-0x20(%ebp)
  100cc2:	8b 4d 18             	mov    0x18(%ebp),%ecx
  100cc5:	8b 5d 1c             	mov    0x1c(%ebp),%ebx
  100cc8:	89 5d e4             	mov    %ebx,-0x1c(%ebp)
  100ccb:	85 c0                	test   %eax,%eax
  100ccd:	0f 85 85 00 00 00    	jne    100d58 <vprintdec+0xa8>
  100cd3:	80 f9 2d             	cmp    $0x2d,%cl
  100cd6:	0f 84 54 01 00 00    	je     100e30 <vprintdec+0x180>
  100cdc:	88 ca                	mov    %cl,%dl
  100cde:	89 f8                	mov    %edi,%eax
  100ce0:	3c 2d                	cmp    $0x2d,%al
  100ce2:	8b 45 10             	mov    0x10(%ebp),%eax
  100ce5:	74 01                	je     100ce8 <vprintdec+0x38>
  100ce7:	40                   	inc    %eax
  100ce8:	0f be fa             	movsbl %dl,%edi
  100ceb:	8b 5d e4             	mov    -0x1c(%ebp),%ebx
  100cee:	48                   	dec    %eax
  100cef:	8d 70 01             	lea    0x1(%eax),%esi
  100cf2:	4e                   	dec    %esi
  100cf3:	7e 1a                	jle    100d0f <vprintdec+0x5f>
  100cf5:	8b 33                	mov    (%ebx),%esi
  100cf7:	80 fa 2b             	cmp    $0x2b,%dl
  100cfa:	74 4c                	je     100d48 <vprintdec+0x98>
  100cfc:	85 f6                	test   %esi,%esi
  100cfe:	0f 84 d4 00 00 00    	je     100dd8 <vprintdec+0x128>
  100d04:	88 16                	mov    %dl,(%esi)
  100d06:	ff 03                	incl   (%ebx)
  100d08:	48                   	dec    %eax
  100d09:	8d 70 01             	lea    0x1(%eax),%esi
  100d0c:	4e                   	dec    %esi
  100d0d:	7f e6                	jg     100cf5 <vprintdec+0x45>
  100d0f:	89 5d e4             	mov    %ebx,-0x1c(%ebp)
  100d12:	80 f9 2b             	cmp    $0x2b,%cl
  100d15:	0f 84 f9 00 00 00    	je     100e14 <vprintdec+0x164>
  100d1b:	80 7d e0 2d          	cmpb   $0x2d,-0x20(%ebp)
  100d1f:	0f 84 1f 01 00 00    	je     100e44 <vprintdec+0x194>
  100d25:	85 c0                	test   %eax,%eax
  100d27:	7e 14                	jle    100d3d <vprintdec+0x8d>
  100d29:	8b 7d e4             	mov    -0x1c(%ebp),%edi
  100d2c:	8b 17                	mov    (%edi),%edx
  100d2e:	85 d2                	test   %edx,%edx
  100d30:	0f 84 83 01 00 00    	je     100eb9 <vprintdec+0x209>
  100d36:	88 0a                	mov    %cl,(%edx)
  100d38:	8b 4d e4             	mov    -0x1c(%ebp),%ecx
  100d3b:	ff 01                	incl   (%ecx)
  100d3d:	8d 65 f4             	lea    -0xc(%ebp),%esp
  100d40:	5b                   	pop    %ebx
  100d41:	5e                   	pop    %esi
  100d42:	5f                   	pop    %edi
  100d43:	5d                   	pop    %ebp
  100d44:	c3                   	ret    
  100d45:	8d 76 00             	lea    0x0(%esi),%esi
  100d48:	85 f6                	test   %esi,%esi
  100d4a:	0f 84 10 01 00 00    	je     100e60 <vprintdec+0x1b0>
  100d50:	c6 06 20             	movb   $0x20,(%esi)
  100d53:	ff 03                	incl   (%ebx)
  100d55:	eb 97                	jmp    100cee <vprintdec+0x3e>
  100d57:	90                   	nop
  100d58:	53                   	push   %ebx
  100d59:	8b 7d 20             	mov    0x20(%ebp),%edi
  100d5c:	8d 57 01             	lea    0x1(%edi),%edx
  100d5f:	52                   	push   %edx
  100d60:	8b 5d e4             	mov    -0x1c(%ebp),%ebx
  100d63:	53                   	push   %ebx
  100d64:	0f be d1             	movsbl %cl,%edx
  100d67:	89 4d dc             	mov    %ecx,-0x24(%ebp)
  100d6a:	52                   	push   %edx
  100d6b:	0f be 7d e0          	movsbl -0x20(%ebp),%edi
  100d6f:	57                   	push   %edi
  100d70:	8b 7d 10             	mov    0x10(%ebp),%edi
  100d73:	8d 57 ff             	lea    -0x1(%edi),%edx
  100d76:	52                   	push   %edx
  100d77:	ff 75 0c             	pushl  0xc(%ebp)
  100d7a:	31 d2                	xor    %edx,%edx
  100d7c:	f7 75 0c             	divl   0xc(%ebp)
  100d7f:	89 d6                	mov    %edx,%esi
  100d81:	50                   	push   %eax
  100d82:	e8 29 ff ff ff       	call   100cb0 <vprintdec>
  100d87:	83 c4 20             	add    $0x20,%esp
  100d8a:	83 fe 09             	cmp    $0x9,%esi
  100d8d:	8b 4d dc             	mov    -0x24(%ebp),%ecx
  100d90:	77 6a                	ja     100dfc <vprintdec+0x14c>
  100d92:	8d 56 30             	lea    0x30(%esi),%edx
  100d95:	8b 7d e4             	mov    -0x1c(%ebp),%edi
  100d98:	8b 37                	mov    (%edi),%esi
  100d9a:	85 f6                	test   %esi,%esi
  100d9c:	0f 84 35 01 00 00    	je     100ed7 <vprintdec+0x227>
  100da2:	88 16                	mov    %dl,(%esi)
  100da4:	8b 7d e4             	mov    -0x1c(%ebp),%edi
  100da7:	ff 07                	incl   (%edi)
  100da9:	80 f9 2d             	cmp    $0x2d,%cl
  100dac:	75 8f                	jne    100d3d <vprintdec+0x8d>
  100dae:	8b 55 20             	mov    0x20(%ebp),%edx
  100db1:	85 d2                	test   %edx,%edx
  100db3:	75 88                	jne    100d3d <vprintdec+0x8d>
  100db5:	89 c6                	mov    %eax,%esi
  100db7:	89 c7                	mov    %eax,%edi
  100db9:	8b 5d e4             	mov    -0x1c(%ebp),%ebx
  100dbc:	85 f6                	test   %esi,%esi
  100dbe:	0f 8e d0 00 00 00    	jle    100e94 <vprintdec+0x1e4>
  100dc4:	8b 13                	mov    (%ebx),%edx
  100dc6:	85 d2                	test   %edx,%edx
  100dc8:	0f 84 d8 00 00 00    	je     100ea6 <vprintdec+0x1f6>
  100dce:	c6 02 20             	movb   $0x20,(%edx)
  100dd1:	ff 03                	incl   (%ebx)
  100dd3:	4e                   	dec    %esi
  100dd4:	eb e6                	jmp    100dbc <vprintdec+0x10c>
  100dd6:	66 90                	xchg   %ax,%ax
  100dd8:	89 4d d8             	mov    %ecx,-0x28(%ebp)
  100ddb:	88 55 dc             	mov    %dl,-0x24(%ebp)
  100dde:	89 45 e4             	mov    %eax,-0x1c(%ebp)
  100de1:	83 ec 0c             	sub    $0xc,%esp
  100de4:	57                   	push   %edi
  100de5:	e8 26 f2 ff ff       	call   100010 <_putc>
  100dea:	83 c4 10             	add    $0x10,%esp
  100ded:	8b 45 e4             	mov    -0x1c(%ebp),%eax
  100df0:	8a 55 dc             	mov    -0x24(%ebp),%dl
  100df3:	8b 4d d8             	mov    -0x28(%ebp),%ecx
  100df6:	e9 f3 fe ff ff       	jmp    100cee <vprintdec+0x3e>
  100dfb:	90                   	nop
  100dfc:	83 c6 57             	add    $0x57,%esi
  100dff:	8b 13                	mov    (%ebx),%edx
  100e01:	85 d2                	test   %edx,%edx
  100e03:	0f 84 09 01 00 00    	je     100f12 <vprintdec+0x262>
  100e09:	89 f3                	mov    %esi,%ebx
  100e0b:	88 1a                	mov    %bl,(%edx)
  100e0d:	8b 7d e4             	mov    -0x1c(%ebp),%edi
  100e10:	ff 07                	incl   (%edi)
  100e12:	eb 95                	jmp    100da9 <vprintdec+0xf9>
  100e14:	8b 13                	mov    (%ebx),%edx
  100e16:	85 d2                	test   %edx,%edx
  100e18:	0f 84 d9 00 00 00    	je     100ef7 <vprintdec+0x247>
  100e1e:	8a 4d e0             	mov    -0x20(%ebp),%cl
  100e21:	88 0a                	mov    %cl,(%edx)
  100e23:	8b 4d e4             	mov    -0x1c(%ebp),%ecx
  100e26:	ff 01                	incl   (%ecx)
  100e28:	8d 65 f4             	lea    -0xc(%ebp),%esp
  100e2b:	5b                   	pop    %ebx
  100e2c:	5e                   	pop    %esi
  100e2d:	5f                   	pop    %edi
  100e2e:	5d                   	pop    %ebp
  100e2f:	c3                   	ret    
  100e30:	80 7d e0 2d          	cmpb   $0x2d,-0x20(%ebp)
  100e34:	74 3e                	je     100e74 <vprintdec+0x1c4>
  100e36:	8b 45 10             	mov    0x10(%ebp),%eax
  100e39:	8d 65 f4             	lea    -0xc(%ebp),%esp
  100e3c:	5b                   	pop    %ebx
  100e3d:	5e                   	pop    %esi
  100e3e:	5f                   	pop    %edi
  100e3f:	5d                   	pop    %ebp
  100e40:	c3                   	ret    
  100e41:	8d 76 00             	lea    0x0(%esi),%esi
  100e44:	8b 4d e4             	mov    -0x1c(%ebp),%ecx
  100e47:	8b 11                	mov    (%ecx),%edx
  100e49:	85 d2                	test   %edx,%edx
  100e4b:	0f 84 e0 00 00 00    	je     100f31 <vprintdec+0x281>
  100e51:	c6 02 2d             	movb   $0x2d,(%edx)
  100e54:	8b 4d e4             	mov    -0x1c(%ebp),%ecx
  100e57:	ff 01                	incl   (%ecx)
  100e59:	e9 df fe ff ff       	jmp    100d3d <vprintdec+0x8d>
  100e5e:	66 90                	xchg   %ax,%ax
  100e60:	89 4d d8             	mov    %ecx,-0x28(%ebp)
  100e63:	88 55 dc             	mov    %dl,-0x24(%ebp)
  100e66:	89 45 e4             	mov    %eax,-0x1c(%ebp)
  100e69:	83 ec 0c             	sub    $0xc,%esp
  100e6c:	6a 20                	push   $0x20
  100e6e:	e9 72 ff ff ff       	jmp    100de5 <vprintdec+0x135>
  100e73:	90                   	nop
  100e74:	8b 45 e4             	mov    -0x1c(%ebp),%eax
  100e77:	8b 00                	mov    (%eax),%eax
  100e79:	85 c0                	test   %eax,%eax
  100e7b:	0f 84 c8 00 00 00    	je     100f49 <vprintdec+0x299>
  100e81:	c6 00 2d             	movb   $0x2d,(%eax)
  100e84:	8b 45 e4             	mov    -0x1c(%ebp),%eax
  100e87:	ff 00                	incl   (%eax)
  100e89:	8b 45 10             	mov    0x10(%ebp),%eax
  100e8c:	48                   	dec    %eax
  100e8d:	e9 ab fe ff ff       	jmp    100d3d <vprintdec+0x8d>
  100e92:	66 90                	xchg   %ax,%ax
  100e94:	89 f8                	mov    %edi,%eax
  100e96:	8d 57 ff             	lea    -0x1(%edi),%edx
  100e99:	85 ff                	test   %edi,%edi
  100e9b:	78 36                	js     100ed3 <vprintdec+0x223>
  100e9d:	29 c2                	sub    %eax,%edx
  100e9f:	89 d0                	mov    %edx,%eax
  100ea1:	e9 97 fe ff ff       	jmp    100d3d <vprintdec+0x8d>
  100ea6:	83 ec 0c             	sub    $0xc,%esp
  100ea9:	6a 20                	push   $0x20
  100eab:	e8 60 f1 ff ff       	call   100010 <_putc>
  100eb0:	83 c4 10             	add    $0x10,%esp
  100eb3:	4e                   	dec    %esi
  100eb4:	e9 03 ff ff ff       	jmp    100dbc <vprintdec+0x10c>
  100eb9:	89 45 e4             	mov    %eax,-0x1c(%ebp)
  100ebc:	83 ec 0c             	sub    $0xc,%esp
  100ebf:	0f be c9             	movsbl %cl,%ecx
  100ec2:	51                   	push   %ecx
  100ec3:	e8 48 f1 ff ff       	call   100010 <_putc>
  100ec8:	83 c4 10             	add    $0x10,%esp
  100ecb:	8b 45 e4             	mov    -0x1c(%ebp),%eax
  100ece:	e9 6a fe ff ff       	jmp    100d3d <vprintdec+0x8d>
  100ed3:	31 c0                	xor    %eax,%eax
  100ed5:	eb c6                	jmp    100e9d <vprintdec+0x1ed>
  100ed7:	89 4d dc             	mov    %ecx,-0x24(%ebp)
  100eda:	89 45 e0             	mov    %eax,-0x20(%ebp)
  100edd:	83 ec 0c             	sub    $0xc,%esp
  100ee0:	0f b6 d2             	movzbl %dl,%edx
  100ee3:	52                   	push   %edx
  100ee4:	e8 27 f1 ff ff       	call   100010 <_putc>
  100ee9:	83 c4 10             	add    $0x10,%esp
  100eec:	8b 45 e0             	mov    -0x20(%ebp),%eax
  100eef:	8b 4d dc             	mov    -0x24(%ebp),%ecx
  100ef2:	e9 b2 fe ff ff       	jmp    100da9 <vprintdec+0xf9>
  100ef7:	89 45 e4             	mov    %eax,-0x1c(%ebp)
  100efa:	83 ec 0c             	sub    $0xc,%esp
  100efd:	0f be 7d e0          	movsbl -0x20(%ebp),%edi
  100f01:	57                   	push   %edi
  100f02:	e8 09 f1 ff ff       	call   100010 <_putc>
  100f07:	83 c4 10             	add    $0x10,%esp
  100f0a:	8b 45 e4             	mov    -0x1c(%ebp),%eax
  100f0d:	e9 2b fe ff ff       	jmp    100d3d <vprintdec+0x8d>
  100f12:	89 45 e0             	mov    %eax,-0x20(%ebp)
  100f15:	83 ec 0c             	sub    $0xc,%esp
  100f18:	89 f0                	mov    %esi,%eax
  100f1a:	0f be f0             	movsbl %al,%esi
  100f1d:	56                   	push   %esi
  100f1e:	e8 ed f0 ff ff       	call   100010 <_putc>
  100f23:	83 c4 10             	add    $0x10,%esp
  100f26:	8b 45 e0             	mov    -0x20(%ebp),%eax
  100f29:	8b 4d dc             	mov    -0x24(%ebp),%ecx
  100f2c:	e9 78 fe ff ff       	jmp    100da9 <vprintdec+0xf9>
  100f31:	89 45 e4             	mov    %eax,-0x1c(%ebp)
  100f34:	83 ec 0c             	sub    $0xc,%esp
  100f37:	6a 2d                	push   $0x2d
  100f39:	e8 d2 f0 ff ff       	call   100010 <_putc>
  100f3e:	83 c4 10             	add    $0x10,%esp
  100f41:	8b 45 e4             	mov    -0x1c(%ebp),%eax
  100f44:	e9 f4 fd ff ff       	jmp    100d3d <vprintdec+0x8d>
  100f49:	83 ec 0c             	sub    $0xc,%esp
  100f4c:	6a 2d                	push   $0x2d
  100f4e:	e8 bd f0 ff ff       	call   100010 <_putc>
  100f53:	83 c4 10             	add    $0x10,%esp
  100f56:	e9 2e ff ff ff       	jmp    100e89 <vprintdec+0x1d9>
  100f5b:	90                   	nop

00100f5c <printdec>:
  100f5c:	55                   	push   %ebp
  100f5d:	89 e5                	mov    %esp,%ebp
  100f5f:	57                   	push   %edi
  100f60:	56                   	push   %esi
  100f61:	53                   	push   %ebx
  100f62:	83 ec 1c             	sub    $0x1c,%esp
  100f65:	8b 7d 0c             	mov    0xc(%ebp),%edi
  100f68:	8b 4d 10             	mov    0x10(%ebp),%ecx
  100f6b:	8b 55 14             	mov    0x14(%ebp),%edx
  100f6e:	8b 45 18             	mov    0x18(%ebp),%eax
  100f71:	89 c3                	mov    %eax,%ebx
  100f73:	8b 45 1c             	mov    0x1c(%ebp),%eax
  100f76:	89 5d e0             	mov    %ebx,-0x20(%ebp)
  100f79:	88 5d e4             	mov    %bl,-0x1c(%ebp)
  100f7c:	31 db                	xor    %ebx,%ebx
  100f7e:	80 fa 2d             	cmp    $0x2d,%dl
  100f81:	0f 94 c3             	sete   %bl
  100f84:	89 de                	mov    %ebx,%esi
  100f86:	8b 5d 08             	mov    0x8(%ebp),%ebx
  100f89:	85 db                	test   %ebx,%ebx
  100f8b:	75 5f                	jne    100fec <printdec+0x90>
  100f8d:	8b 10                	mov    (%eax),%edx
  100f8f:	85 c9                	test   %ecx,%ecx
  100f91:	0f 8e c5 00 00 00    	jle    10105c <printdec+0x100>
  100f97:	80 7d e0 2d          	cmpb   $0x2d,-0x20(%ebp)
  100f9b:	74 28                	je     100fc5 <printdec+0x69>
  100f9d:	0f be 5d e4          	movsbl -0x1c(%ebp),%ebx
  100fa1:	89 cf                	mov    %ecx,%edi
  100fa3:	4f                   	dec    %edi
  100fa4:	74 1d                	je     100fc3 <printdec+0x67>
  100fa6:	80 7d e4 2b          	cmpb   $0x2b,-0x1c(%ebp)
  100faa:	74 7c                	je     101028 <printdec+0xcc>
  100fac:	85 d2                	test   %edx,%edx
  100fae:	0f 84 b8 00 00 00    	je     10106c <printdec+0x110>
  100fb4:	8a 4d e4             	mov    -0x1c(%ebp),%cl
  100fb7:	88 0a                	mov    %cl,(%edx)
  100fb9:	8b 08                	mov    (%eax),%ecx
  100fbb:	8d 51 01             	lea    0x1(%ecx),%edx
  100fbe:	89 10                	mov    %edx,(%eax)
  100fc0:	4f                   	dec    %edi
  100fc1:	75 e3                	jne    100fa6 <printdec+0x4a>
  100fc3:	89 f9                	mov    %edi,%ecx
  100fc5:	85 d2                	test   %edx,%edx
  100fc7:	0f 84 e1 00 00 00    	je     1010ae <printdec+0x152>
  100fcd:	c6 02 30             	movb   $0x30,(%edx)
  100fd0:	ff 00                	incl   (%eax)
  100fd2:	80 7d e0 2d          	cmpb   $0x2d,-0x20(%ebp)
  100fd6:	74 64                	je     10103c <printdec+0xe0>
  100fd8:	46                   	inc    %esi
  100fd9:	85 c9                	test   %ecx,%ecx
  100fdb:	7e 04                	jle    100fe1 <printdec+0x85>
  100fdd:	39 ce                	cmp    %ecx,%esi
  100fdf:	7f 3b                	jg     10101c <printdec+0xc0>
  100fe1:	89 f0                	mov    %esi,%eax
  100fe3:	8d 65 f4             	lea    -0xc(%ebp),%esp
  100fe6:	5b                   	pop    %ebx
  100fe7:	5e                   	pop    %esi
  100fe8:	5f                   	pop    %edi
  100fe9:	5d                   	pop    %ebp
  100fea:	c3                   	ret    
  100feb:	90                   	nop
  100fec:	53                   	push   %ebx
  100fed:	6a 00                	push   $0x0
  100fef:	50                   	push   %eax
  100ff0:	0f be 45 e0          	movsbl -0x20(%ebp),%eax
  100ff4:	50                   	push   %eax
  100ff5:	0f be d2             	movsbl %dl,%edx
  100ff8:	52                   	push   %edx
  100ff9:	51                   	push   %ecx
  100ffa:	89 4d e4             	mov    %ecx,-0x1c(%ebp)
  100ffd:	57                   	push   %edi
  100ffe:	ff 75 08             	pushl  0x8(%ebp)
  101001:	e8 aa fc ff ff       	call   100cb0 <vprintdec>
  101006:	83 c4 20             	add    $0x20,%esp
  101009:	8b 45 08             	mov    0x8(%ebp),%eax
  10100c:	8b 4d e4             	mov    -0x1c(%ebp),%ecx
  10100f:	90                   	nop
  101010:	31 d2                	xor    %edx,%edx
  101012:	f7 f7                	div    %edi
  101014:	46                   	inc    %esi
  101015:	85 c0                	test   %eax,%eax
  101017:	75 f7                	jne    101010 <printdec+0xb4>
  101019:	eb be                	jmp    100fd9 <printdec+0x7d>
  10101b:	90                   	nop
  10101c:	89 ce                	mov    %ecx,%esi
  10101e:	89 f0                	mov    %esi,%eax
  101020:	8d 65 f4             	lea    -0xc(%ebp),%esp
  101023:	5b                   	pop    %ebx
  101024:	5e                   	pop    %esi
  101025:	5f                   	pop    %edi
  101026:	5d                   	pop    %ebp
  101027:	c3                   	ret    
  101028:	85 d2                	test   %edx,%edx
  10102a:	74 68                	je     101094 <printdec+0x138>
  10102c:	c6 02 20             	movb   $0x20,(%edx)
  10102f:	8b 08                	mov    (%eax),%ecx
  101031:	8d 51 01             	lea    0x1(%ecx),%edx
  101034:	89 10                	mov    %edx,(%eax)
  101036:	e9 68 ff ff ff       	jmp    100fa3 <printdec+0x47>
  10103b:	90                   	nop
  10103c:	89 cb                	mov    %ecx,%ebx
  10103e:	89 c7                	mov    %eax,%edi
  101040:	eb 0d                	jmp    10104f <printdec+0xf3>
  101042:	66 90                	xchg   %ax,%ax
  101044:	8b 17                	mov    (%edi),%edx
  101046:	85 d2                	test   %edx,%edx
  101048:	74 3b                	je     101085 <printdec+0x129>
  10104a:	c6 02 20             	movb   $0x20,(%edx)
  10104d:	ff 07                	incl   (%edi)
  10104f:	4b                   	dec    %ebx
  101050:	85 db                	test   %ebx,%ebx
  101052:	7f f0                	jg     101044 <printdec+0xe8>
  101054:	89 d9                	mov    %ebx,%ecx
  101056:	46                   	inc    %esi
  101057:	eb 80                	jmp    100fd9 <printdec+0x7d>
  101059:	8d 76 00             	lea    0x0(%esi),%esi
  10105c:	85 d2                	test   %edx,%edx
  10105e:	74 6c                	je     1010cc <printdec+0x170>
  101060:	c6 02 30             	movb   $0x30,(%edx)
  101063:	ff 00                	incl   (%eax)
  101065:	46                   	inc    %esi
  101066:	e9 6e ff ff ff       	jmp    100fd9 <printdec+0x7d>
  10106b:	90                   	nop
  10106c:	89 45 dc             	mov    %eax,-0x24(%ebp)
  10106f:	83 ec 0c             	sub    $0xc,%esp
  101072:	53                   	push   %ebx
  101073:	e8 98 ef ff ff       	call   100010 <_putc>
  101078:	8b 45 dc             	mov    -0x24(%ebp),%eax
  10107b:	8b 10                	mov    (%eax),%edx
  10107d:	83 c4 10             	add    $0x10,%esp
  101080:	e9 1e ff ff ff       	jmp    100fa3 <printdec+0x47>
  101085:	83 ec 0c             	sub    $0xc,%esp
  101088:	6a 20                	push   $0x20
  10108a:	e8 81 ef ff ff       	call   100010 <_putc>
  10108f:	83 c4 10             	add    $0x10,%esp
  101092:	eb bb                	jmp    10104f <printdec+0xf3>
  101094:	89 45 dc             	mov    %eax,-0x24(%ebp)
  101097:	83 ec 0c             	sub    $0xc,%esp
  10109a:	6a 20                	push   $0x20
  10109c:	e8 6f ef ff ff       	call   100010 <_putc>
  1010a1:	8b 45 dc             	mov    -0x24(%ebp),%eax
  1010a4:	8b 10                	mov    (%eax),%edx
  1010a6:	83 c4 10             	add    $0x10,%esp
  1010a9:	e9 f5 fe ff ff       	jmp    100fa3 <printdec+0x47>
  1010ae:	89 45 dc             	mov    %eax,-0x24(%ebp)
  1010b1:	89 4d e4             	mov    %ecx,-0x1c(%ebp)
  1010b4:	83 ec 0c             	sub    $0xc,%esp
  1010b7:	6a 30                	push   $0x30
  1010b9:	e8 52 ef ff ff       	call   100010 <_putc>
  1010be:	83 c4 10             	add    $0x10,%esp
  1010c1:	8b 4d e4             	mov    -0x1c(%ebp),%ecx
  1010c4:	8b 45 dc             	mov    -0x24(%ebp),%eax
  1010c7:	e9 06 ff ff ff       	jmp    100fd2 <printdec+0x76>
  1010cc:	89 4d e4             	mov    %ecx,-0x1c(%ebp)
  1010cf:	83 ec 0c             	sub    $0xc,%esp
  1010d2:	6a 30                	push   $0x30
  1010d4:	e8 37 ef ff ff       	call   100010 <_putc>
  1010d9:	83 c4 10             	add    $0x10,%esp
  1010dc:	8b 4d e4             	mov    -0x1c(%ebp),%ecx
  1010df:	46                   	inc    %esi
  1010e0:	e9 f4 fe ff ff       	jmp    100fd9 <printdec+0x7d>
  1010e5:	66 90                	xchg   %ax,%ax
  1010e7:	90                   	nop

001010e8 <printstr>:
  1010e8:	55                   	push   %ebp
  1010e9:	89 e5                	mov    %esp,%ebp
  1010eb:	56                   	push   %esi
  1010ec:	53                   	push   %ebx
  1010ed:	8b 5d 08             	mov    0x8(%ebp),%ebx
  1010f0:	8b 75 0c             	mov    0xc(%ebp),%esi
  1010f3:	8b 06                	mov    (%esi),%eax
  1010f5:	eb 0d                	jmp    101104 <printstr+0x1c>
  1010f7:	90                   	nop
  1010f8:	43                   	inc    %ebx
  1010f9:	85 c0                	test   %eax,%eax
  1010fb:	74 17                	je     101114 <printstr+0x2c>
  1010fd:	88 10                	mov    %dl,(%eax)
  1010ff:	8b 06                	mov    (%esi),%eax
  101101:	40                   	inc    %eax
  101102:	89 06                	mov    %eax,(%esi)
  101104:	0f be 13             	movsbl (%ebx),%edx
  101107:	84 d2                	test   %dl,%dl
  101109:	75 ed                	jne    1010f8 <printstr+0x10>
  10110b:	8d 65 f8             	lea    -0x8(%ebp),%esp
  10110e:	5b                   	pop    %ebx
  10110f:	5e                   	pop    %esi
  101110:	5d                   	pop    %ebp
  101111:	c3                   	ret    
  101112:	66 90                	xchg   %ax,%ax
  101114:	83 ec 0c             	sub    $0xc,%esp
  101117:	52                   	push   %edx
  101118:	e8 f3 ee ff ff       	call   100010 <_putc>
  10111d:	8b 06                	mov    (%esi),%eax
  10111f:	83 c4 10             	add    $0x10,%esp
  101122:	eb e0                	jmp    101104 <printstr+0x1c>

00101124 <vprintk>:
  101124:	55                   	push   %ebp
  101125:	89 e5                	mov    %esp,%ebp
  101127:	57                   	push   %edi
  101128:	56                   	push   %esi
  101129:	53                   	push   %ebx
  10112a:	83 ec 1c             	sub    $0x1c,%esp
  10112d:	8b 75 0c             	mov    0xc(%ebp),%esi
  101130:	31 ff                	xor    %edi,%edi
  101132:	0f be 06             	movsbl (%esi),%eax
  101135:	84 c0                	test   %al,%al
  101137:	74 1d                	je     101156 <vprintk+0x32>
  101139:	3c 25                	cmp    $0x25,%al
  10113b:	74 2f                	je     10116c <vprintk+0x48>
  10113d:	46                   	inc    %esi
  10113e:	8b 55 08             	mov    0x8(%ebp),%edx
  101141:	85 d2                	test   %edx,%edx
  101143:	0f 84 97 01 00 00    	je     1012e0 <vprintk+0x1bc>
  101149:	88 02                	mov    %al,(%edx)
  10114b:	ff 45 08             	incl   0x8(%ebp)
  10114e:	47                   	inc    %edi
  10114f:	0f be 06             	movsbl (%esi),%eax
  101152:	84 c0                	test   %al,%al
  101154:	75 e3                	jne    101139 <vprintk+0x15>
  101156:	8b 45 08             	mov    0x8(%ebp),%eax
  101159:	85 c0                	test   %eax,%eax
  10115b:	74 04                	je     101161 <vprintk+0x3d>
  10115d:	c6 00 00             	movb   $0x0,(%eax)
  101160:	47                   	inc    %edi
  101161:	89 f8                	mov    %edi,%eax
  101163:	8d 65 f4             	lea    -0xc(%ebp),%esp
  101166:	5b                   	pop    %ebx
  101167:	5e                   	pop    %esi
  101168:	5f                   	pop    %edi
  101169:	5d                   	pop    %ebp
  10116a:	c3                   	ret    
  10116b:	90                   	nop
  10116c:	0f be 46 01          	movsbl 0x1(%esi),%eax
  101170:	bb ff ff ff ff       	mov    $0xffffffff,%ebx
  101175:	c6 45 e4 20          	movb   $0x20,-0x1c(%ebp)
  101179:	8d 4e 01             	lea    0x1(%esi),%ecx
  10117c:	8d 50 e0             	lea    -0x20(%eax),%edx
  10117f:	80 fa 58             	cmp    $0x58,%dl
  101182:	77 72                	ja     1011f6 <vprintk+0xd2>
  101184:	0f b6 d2             	movzbl %dl,%edx
  101187:	ff 24 95 90 23 10 00 	jmp    *0x102390(,%edx,4)
  10118e:	66 90                	xchg   %ax,%ax
  101190:	8a 56 02             	mov    0x2(%esi),%dl
  101193:	89 ce                	mov    %ecx,%esi
  101195:	88 45 e4             	mov    %al,-0x1c(%ebp)
  101198:	0f be c2             	movsbl %dl,%eax
  10119b:	eb dc                	jmp    101179 <vprintk+0x55>
  10119d:	8d 76 00             	lea    0x0(%esi),%esi
  1011a0:	8b 45 08             	mov    0x8(%ebp),%eax
  1011a3:	85 c0                	test   %eax,%eax
  1011a5:	0f 84 84 01 00 00    	je     10132f <vprintk+0x20b>
  1011ab:	c6 00 30             	movb   $0x30,(%eax)
  1011ae:	8b 45 08             	mov    0x8(%ebp),%eax
  1011b1:	40                   	inc    %eax
  1011b2:	89 45 08             	mov    %eax,0x8(%ebp)
  1011b5:	85 c0                	test   %eax,%eax
  1011b7:	0f 84 87 01 00 00    	je     101344 <vprintk+0x220>
  1011bd:	c6 00 78             	movb   $0x78,(%eax)
  1011c0:	ff 45 08             	incl   0x8(%ebp)
  1011c3:	8b 45 10             	mov    0x10(%ebp),%eax
  1011c6:	8b 10                	mov    (%eax),%edx
  1011c8:	83 c0 04             	add    $0x4,%eax
  1011cb:	89 45 10             	mov    %eax,0x10(%ebp)
  1011ce:	b9 2b 00 00 00       	mov    $0x2b,%ecx
  1011d3:	c7 45 e0 10 00 00 00 	movl   $0x10,-0x20(%ebp)
  1011da:	83 ec 08             	sub    $0x8,%esp
  1011dd:	8d 45 08             	lea    0x8(%ebp),%eax
  1011e0:	50                   	push   %eax
  1011e1:	0f be 45 e4          	movsbl -0x1c(%ebp),%eax
  1011e5:	50                   	push   %eax
  1011e6:	51                   	push   %ecx
  1011e7:	53                   	push   %ebx
  1011e8:	ff 75 e0             	pushl  -0x20(%ebp)
  1011eb:	52                   	push   %edx
  1011ec:	e8 6b fd ff ff       	call   100f5c <printdec>
  1011f1:	01 c7                	add    %eax,%edi
  1011f3:	83 c4 20             	add    $0x20,%esp
  1011f6:	83 c6 02             	add    $0x2,%esi
  1011f9:	e9 34 ff ff ff       	jmp    101132 <vprintk+0xe>
  1011fe:	66 90                	xchg   %ax,%ax
  101200:	8b 45 10             	mov    0x10(%ebp),%eax
  101203:	83 c0 04             	add    $0x4,%eax
  101206:	8b 4d 10             	mov    0x10(%ebp),%ecx
  101209:	8b 11                	mov    (%ecx),%edx
  10120b:	85 d2                	test   %edx,%edx
  10120d:	0f 88 df 00 00 00    	js     1012f2 <vprintk+0x1ce>
  101213:	89 45 10             	mov    %eax,0x10(%ebp)
  101216:	b9 2b 00 00 00       	mov    $0x2b,%ecx
  10121b:	c7 45 e0 0a 00 00 00 	movl   $0xa,-0x20(%ebp)
  101222:	eb b6                	jmp    1011da <vprintk+0xb6>
  101224:	8b 45 10             	mov    0x10(%ebp),%eax
  101227:	8d 58 04             	lea    0x4(%eax),%ebx
  10122a:	8b 10                	mov    (%eax),%edx
  10122c:	8b 45 08             	mov    0x8(%ebp),%eax
  10122f:	85 c0                	test   %eax,%eax
  101231:	0f 84 e4 00 00 00    	je     10131b <vprintk+0x1f7>
  101237:	88 10                	mov    %dl,(%eax)
  101239:	ff 45 08             	incl   0x8(%ebp)
  10123c:	47                   	inc    %edi
  10123d:	89 5d 10             	mov    %ebx,0x10(%ebp)
  101240:	eb b4                	jmp    1011f6 <vprintk+0xd2>
  101242:	66 90                	xchg   %ax,%ax
  101244:	83 c6 02             	add    $0x2,%esi
  101247:	31 db                	xor    %ebx,%ebx
  101249:	eb 03                	jmp    10124e <vprintk+0x12a>
  10124b:	90                   	nop
  10124c:	89 d6                	mov    %edx,%esi
  10124e:	8d 14 9b             	lea    (%ebx,%ebx,4),%edx
  101251:	01 d2                	add    %edx,%edx
  101253:	8d 5c 02 d0          	lea    -0x30(%edx,%eax,1),%ebx
  101257:	8d 56 01             	lea    0x1(%esi),%edx
  10125a:	0f be 42 ff          	movsbl -0x1(%edx),%eax
  10125e:	8d 48 d0             	lea    -0x30(%eax),%ecx
  101261:	80 f9 09             	cmp    $0x9,%cl
  101264:	76 e6                	jbe    10124c <vprintk+0x128>
  101266:	4e                   	dec    %esi
  101267:	e9 0d ff ff ff       	jmp    101179 <vprintk+0x55>
  10126c:	8b 45 10             	mov    0x10(%ebp),%eax
  10126f:	83 c0 04             	add    $0x4,%eax
  101272:	89 45 e4             	mov    %eax,-0x1c(%ebp)
  101275:	8b 4d 10             	mov    0x10(%ebp),%ecx
  101278:	8b 19                	mov    (%ecx),%ebx
  10127a:	83 ec 08             	sub    $0x8,%esp
  10127d:	8d 45 08             	lea    0x8(%ebp),%eax
  101280:	50                   	push   %eax
  101281:	53                   	push   %ebx
  101282:	e8 61 fe ff ff       	call   1010e8 <printstr>
  101287:	89 1c 24             	mov    %ebx,(%esp)
  10128a:	e8 f9 00 00 00       	call   101388 <strlen>
  10128f:	01 c7                	add    %eax,%edi
  101291:	83 c4 10             	add    $0x10,%esp
  101294:	8b 45 e4             	mov    -0x1c(%ebp),%eax
  101297:	89 45 10             	mov    %eax,0x10(%ebp)
  10129a:	e9 57 ff ff ff       	jmp    1011f6 <vprintk+0xd2>
  10129f:	90                   	nop
  1012a0:	8b 45 10             	mov    0x10(%ebp),%eax
  1012a3:	8b 18                	mov    (%eax),%ebx
  1012a5:	0f be 46 02          	movsbl 0x2(%esi),%eax
  1012a9:	8b 75 10             	mov    0x10(%ebp),%esi
  1012ac:	83 c6 04             	add    $0x4,%esi
  1012af:	89 75 10             	mov    %esi,0x10(%ebp)
  1012b2:	89 ce                	mov    %ecx,%esi
  1012b4:	e9 c0 fe ff ff       	jmp    101179 <vprintk+0x55>
  1012b9:	8d 76 00             	lea    0x0(%esi),%esi
  1012bc:	8b 45 08             	mov    0x8(%ebp),%eax
  1012bf:	85 c0                	test   %eax,%eax
  1012c1:	74 45                	je     101308 <vprintk+0x1e4>
  1012c3:	c6 00 25             	movb   $0x25,(%eax)
  1012c6:	ff 45 08             	incl   0x8(%ebp)
  1012c9:	47                   	inc    %edi
  1012ca:	e9 27 ff ff ff       	jmp    1011f6 <vprintk+0xd2>
  1012cf:	90                   	nop
  1012d0:	8b 45 10             	mov    0x10(%ebp),%eax
  1012d3:	8b 10                	mov    (%eax),%edx
  1012d5:	83 c0 04             	add    $0x4,%eax
  1012d8:	e9 36 ff ff ff       	jmp    101213 <vprintk+0xef>
  1012dd:	8d 76 00             	lea    0x0(%esi),%esi
  1012e0:	83 ec 0c             	sub    $0xc,%esp
  1012e3:	50                   	push   %eax
  1012e4:	e8 27 ed ff ff       	call   100010 <_putc>
  1012e9:	83 c4 10             	add    $0x10,%esp
  1012ec:	47                   	inc    %edi
  1012ed:	e9 5d fe ff ff       	jmp    10114f <vprintk+0x2b>
  1012f2:	f7 da                	neg    %edx
  1012f4:	89 45 10             	mov    %eax,0x10(%ebp)
  1012f7:	b9 2d 00 00 00       	mov    $0x2d,%ecx
  1012fc:	c7 45 e0 0a 00 00 00 	movl   $0xa,-0x20(%ebp)
  101303:	e9 d2 fe ff ff       	jmp    1011da <vprintk+0xb6>
  101308:	83 ec 0c             	sub    $0xc,%esp
  10130b:	6a 25                	push   $0x25
  10130d:	e8 fe ec ff ff       	call   100010 <_putc>
  101312:	83 c4 10             	add    $0x10,%esp
  101315:	47                   	inc    %edi
  101316:	e9 db fe ff ff       	jmp    1011f6 <vprintk+0xd2>
  10131b:	83 ec 0c             	sub    $0xc,%esp
  10131e:	0f be d2             	movsbl %dl,%edx
  101321:	52                   	push   %edx
  101322:	e8 e9 ec ff ff       	call   100010 <_putc>
  101327:	83 c4 10             	add    $0x10,%esp
  10132a:	e9 0d ff ff ff       	jmp    10123c <vprintk+0x118>
  10132f:	83 ec 0c             	sub    $0xc,%esp
  101332:	6a 30                	push   $0x30
  101334:	e8 d7 ec ff ff       	call   100010 <_putc>
  101339:	8b 45 08             	mov    0x8(%ebp),%eax
  10133c:	83 c4 10             	add    $0x10,%esp
  10133f:	e9 71 fe ff ff       	jmp    1011b5 <vprintk+0x91>
  101344:	83 ec 0c             	sub    $0xc,%esp
  101347:	6a 78                	push   $0x78
  101349:	e8 c2 ec ff ff       	call   100010 <_putc>
  10134e:	83 c4 10             	add    $0x10,%esp
  101351:	e9 6d fe ff ff       	jmp    1011c3 <vprintk+0x9f>
  101356:	66 90                	xchg   %ax,%ax

00101358 <printf>:
  101358:	55                   	push   %ebp
  101359:	89 e5                	mov    %esp,%ebp
  10135b:	83 ec 0c             	sub    $0xc,%esp
  10135e:	8d 45 0c             	lea    0xc(%ebp),%eax
  101361:	50                   	push   %eax
  101362:	ff 75 08             	pushl  0x8(%ebp)
  101365:	6a 00                	push   $0x0
  101367:	e8 b8 fd ff ff       	call   101124 <vprintk>
  10136c:	c9                   	leave  
  10136d:	c3                   	ret    
  10136e:	66 90                	xchg   %ax,%ax

00101370 <sprintf>:
  101370:	55                   	push   %ebp
  101371:	89 e5                	mov    %esp,%ebp
  101373:	83 ec 0c             	sub    $0xc,%esp
  101376:	8d 45 10             	lea    0x10(%ebp),%eax
  101379:	50                   	push   %eax
  10137a:	ff 75 0c             	pushl  0xc(%ebp)
  10137d:	ff 75 08             	pushl  0x8(%ebp)
  101380:	e8 9f fd ff ff       	call   101124 <vprintk>
  101385:	c9                   	leave  
  101386:	c3                   	ret    
  101387:	90                   	nop

00101388 <strlen>:
  101388:	55                   	push   %ebp
  101389:	89 e5                	mov    %esp,%ebp
  10138b:	8b 55 08             	mov    0x8(%ebp),%edx
  10138e:	31 c0                	xor    %eax,%eax
  101390:	80 3a 00             	cmpb   $0x0,(%edx)
  101393:	74 0a                	je     10139f <strlen+0x17>
  101395:	8d 76 00             	lea    0x0(%esi),%esi
  101398:	40                   	inc    %eax
  101399:	80 3c 02 00          	cmpb   $0x0,(%edx,%eax,1)
  10139d:	75 f9                	jne    101398 <strlen+0x10>
  10139f:	5d                   	pop    %ebp
  1013a0:	c3                   	ret    
  1013a1:	66 90                	xchg   %ax,%ax
  1013a3:	90                   	nop

001013a4 <strcmp>:
  1013a4:	55                   	push   %ebp
  1013a5:	89 e5                	mov    %esp,%ebp
  1013a7:	56                   	push   %esi
  1013a8:	53                   	push   %ebx
  1013a9:	8b 4d 08             	mov    0x8(%ebp),%ecx
  1013ac:	8b 5d 0c             	mov    0xc(%ebp),%ebx
  1013af:	0f be 01             	movsbl (%ecx),%eax
  1013b2:	0f be 13             	movsbl (%ebx),%edx
  1013b5:	84 c0                	test   %al,%al
  1013b7:	75 14                	jne    1013cd <strcmp+0x29>
  1013b9:	eb 1d                	jmp    1013d8 <strcmp+0x34>
  1013bb:	90                   	nop
  1013bc:	41                   	inc    %ecx
  1013bd:	8d 73 01             	lea    0x1(%ebx),%esi
  1013c0:	0f be 01             	movsbl (%ecx),%eax
  1013c3:	0f be 53 01          	movsbl 0x1(%ebx),%edx
  1013c7:	84 c0                	test   %al,%al
  1013c9:	74 0d                	je     1013d8 <strcmp+0x34>
  1013cb:	89 f3                	mov    %esi,%ebx
  1013cd:	38 d0                	cmp    %dl,%al
  1013cf:	74 eb                	je     1013bc <strcmp+0x18>
  1013d1:	29 d0                	sub    %edx,%eax
  1013d3:	5b                   	pop    %ebx
  1013d4:	5e                   	pop    %esi
  1013d5:	5d                   	pop    %ebp
  1013d6:	c3                   	ret    
  1013d7:	90                   	nop
  1013d8:	31 c0                	xor    %eax,%eax
  1013da:	29 d0                	sub    %edx,%eax
  1013dc:	5b                   	pop    %ebx
  1013dd:	5e                   	pop    %esi
  1013de:	5d                   	pop    %ebp
  1013df:	c3                   	ret    

001013e0 <memcpy>:
  1013e0:	55                   	push   %ebp
  1013e1:	89 e5                	mov    %esp,%ebp
  1013e3:	57                   	push   %edi
  1013e4:	56                   	push   %esi
  1013e5:	53                   	push   %ebx
  1013e6:	8b 45 08             	mov    0x8(%ebp),%eax
  1013e9:	8b 5d 0c             	mov    0xc(%ebp),%ebx
  1013ec:	8b 75 10             	mov    0x10(%ebp),%esi
  1013ef:	89 f1                	mov    %esi,%ecx
  1013f1:	31 d2                	xor    %edx,%edx
  1013f3:	83 e1 f0             	and    $0xfffffff0,%ecx
  1013f6:	7e 42                	jle    10143a <memcpy+0x5a>
  1013f8:	8b 34 13             	mov    (%ebx,%edx,1),%esi
  1013fb:	8b 7c 13 04          	mov    0x4(%ebx,%edx,1),%edi
  1013ff:	89 34 10             	mov    %esi,(%eax,%edx,1)
  101402:	89 7c 10 04          	mov    %edi,0x4(%eax,%edx,1)
  101406:	8b 74 13 08          	mov    0x8(%ebx,%edx,1),%esi
  10140a:	8b 7c 13 0c          	mov    0xc(%ebx,%edx,1),%edi
  10140e:	89 74 10 08          	mov    %esi,0x8(%eax,%edx,1)
  101412:	89 7c 10 0c          	mov    %edi,0xc(%eax,%edx,1)
  101416:	83 c2 10             	add    $0x10,%edx
  101419:	39 d1                	cmp    %edx,%ecx
  10141b:	7f db                	jg     1013f8 <memcpy+0x18>
  10141d:	8b 75 10             	mov    0x10(%ebp),%esi
  101420:	89 ca                	mov    %ecx,%edx
  101422:	39 d6                	cmp    %edx,%esi
  101424:	76 0f                	jbe    101435 <memcpy+0x55>
  101426:	89 cf                	mov    %ecx,%edi
  101428:	8a 0c 13             	mov    (%ebx,%edx,1),%cl
  10142b:	88 0c 10             	mov    %cl,(%eax,%edx,1)
  10142e:	47                   	inc    %edi
  10142f:	89 fa                	mov    %edi,%edx
  101431:	39 fe                	cmp    %edi,%esi
  101433:	77 f3                	ja     101428 <memcpy+0x48>
  101435:	5b                   	pop    %ebx
  101436:	5e                   	pop    %esi
  101437:	5f                   	pop    %edi
  101438:	5d                   	pop    %ebp
  101439:	c3                   	ret    
  10143a:	31 c9                	xor    %ecx,%ecx
  10143c:	eb e4                	jmp    101422 <memcpy+0x42>
  10143e:	66 90                	xchg   %ax,%ax

00101440 <_pte_init>:
  101440:	55                   	push   %ebp
  101441:	89 e5                	mov    %esp,%ebp
  101443:	56                   	push   %esi
  101444:	53                   	push   %ebx
  101445:	83 ec 10             	sub    $0x10,%esp
  101448:	8b 45 08             	mov    0x8(%ebp),%eax
  10144b:	a3 04 d0 cb 02       	mov    %eax,0x2cbd004
  101450:	8b 45 0c             	mov    0xc(%ebp),%eax
  101453:	a3 00 d0 cb 02       	mov    %eax,0x2cbd000
  101458:	31 c0                	xor    %eax,%eax
  10145a:	66 90                	xchg   %ax,%ax
  10145c:	c7 04 85 00 e0 cd 02 	movl   $0x0,0x2cde000(,%eax,4)
  101463:	00 00 00 00 
  101467:	40                   	inc    %eax
  101468:	3d 00 04 00 00       	cmp    $0x400,%eax
  10146d:	75 ed                	jne    10145c <_pte_init+0x1c>
  10146f:	8b 1d 38 a2 c9 02    	mov    0x2c9a238,%ebx
  101475:	c1 eb 16             	shr    $0x16,%ebx
  101478:	8b 35 3c a2 c9 02    	mov    0x2c9a23c,%esi
  10147e:	c1 ee 16             	shr    $0x16,%esi
  101481:	39 f3                	cmp    %esi,%ebx
  101483:	73 3d                	jae    1014c2 <_pte_init+0x82>
  101485:	ba 00 e0 cb 02       	mov    $0x2cbe000,%edx
  10148a:	66 90                	xchg   %ax,%ax
  10148c:	89 d0                	mov    %edx,%eax
  10148e:	83 c8 01             	or     $0x1,%eax
  101491:	89 04 9d 00 e0 cd 02 	mov    %eax,0x2cde000(,%ebx,4)
  101498:	89 d8                	mov    %ebx,%eax
  10149a:	c1 e0 16             	shl    $0x16,%eax
  10149d:	83 c8 01             	or     $0x1,%eax
  1014a0:	43                   	inc    %ebx
  1014a1:	89 d9                	mov    %ebx,%ecx
  1014a3:	c1 e1 16             	shl    $0x16,%ecx
  1014a6:	83 c9 01             	or     $0x1,%ecx
  1014a9:	39 c8                	cmp    %ecx,%eax
  1014ab:	73 11                	jae    1014be <_pte_init+0x7e>
  1014ad:	8d 76 00             	lea    0x0(%esi),%esi
  1014b0:	89 02                	mov    %eax,(%edx)
  1014b2:	83 c2 04             	add    $0x4,%edx
  1014b5:	05 00 10 00 00       	add    $0x1000,%eax
  1014ba:	39 c1                	cmp    %eax,%ecx
  1014bc:	77 f2                	ja     1014b0 <_pte_init+0x70>
  1014be:	39 f3                	cmp    %esi,%ebx
  1014c0:	75 ca                	jne    10148c <_pte_init+0x4c>
  1014c2:	b8 00 e0 cd 02       	mov    $0x2cde000,%eax
  1014c7:	0f 22 d8             	mov    %eax,%cr3
  1014ca:	0f 20 c0             	mov    %cr0,%eax
  1014cd:	89 45 f4             	mov    %eax,-0xc(%ebp)
  1014d0:	8b 45 f4             	mov    -0xc(%ebp),%eax
  1014d3:	0d 00 00 00 80       	or     $0x80000000,%eax
  1014d8:	0f 22 c0             	mov    %eax,%cr0
  1014db:	83 c4 10             	add    $0x10,%esp
  1014de:	5b                   	pop    %ebx
  1014df:	5e                   	pop    %esi
  1014e0:	5d                   	pop    %ebp
  1014e1:	c3                   	ret    
  1014e2:	66 90                	xchg   %ax,%ax

001014e4 <_protect>:
  1014e4:	55                   	push   %ebp
  1014e5:	89 e5                	mov    %esp,%ebp
  1014e7:	53                   	push   %ebx
  1014e8:	52                   	push   %edx
  1014e9:	8b 5d 08             	mov    0x8(%ebp),%ebx
  1014ec:	ff 15 04 d0 cb 02    	call   *0x2cbd004
  1014f2:	89 43 08             	mov    %eax,0x8(%ebx)
  1014f5:	31 d2                	xor    %edx,%edx
  1014f7:	90                   	nop
  1014f8:	8b 0c 95 00 e0 cd 02 	mov    0x2cde000(,%edx,4),%ecx
  1014ff:	89 0c 90             	mov    %ecx,(%eax,%edx,4)
  101502:	42                   	inc    %edx
  101503:	81 fa 00 04 00 00    	cmp    $0x400,%edx
  101509:	75 ed                	jne    1014f8 <_protect+0x14>
  10150b:	c7 03 00 00 00 08    	movl   $0x8000000,(%ebx)
  101511:	c7 43 04 00 00 00 c0 	movl   $0xc0000000,0x4(%ebx)
  101518:	58                   	pop    %eax
  101519:	5b                   	pop    %ebx
  10151a:	5d                   	pop    %ebp
  10151b:	c3                   	ret    

0010151c <_switch>:
  10151c:	55                   	push   %ebp
  10151d:	89 e5                	mov    %esp,%ebp
  10151f:	8b 45 08             	mov    0x8(%ebp),%eax
  101522:	8b 40 08             	mov    0x8(%eax),%eax
  101525:	0f 22 d8             	mov    %eax,%cr3
  101528:	5d                   	pop    %ebp
  101529:	c3                   	ret    
  10152a:	66 90                	xchg   %ax,%ax

0010152c <_map>:
  10152c:	55                   	push   %ebp
  10152d:	89 e5                	mov    %esp,%ebp
  10152f:	56                   	push   %esi
  101530:	53                   	push   %ebx
  101531:	8b 45 0c             	mov    0xc(%ebp),%eax
  101534:	89 c3                	mov    %eax,%ebx
  101536:	c1 eb 0c             	shr    $0xc,%ebx
  101539:	81 e3 ff 03 00 00    	and    $0x3ff,%ebx
  10153f:	c1 e8 16             	shr    $0x16,%eax
  101542:	8b 55 08             	mov    0x8(%ebp),%edx
  101545:	8b 52 08             	mov    0x8(%edx),%edx
  101548:	8d 34 82             	lea    (%edx,%eax,4),%esi
  10154b:	8b 06                	mov    (%esi),%eax
  10154d:	a8 01                	test   $0x1,%al
  10154f:	74 1b                	je     10156c <_map+0x40>
  101551:	25 00 f0 ff ff       	and    $0xfffff000,%eax
  101556:	8b 55 10             	mov    0x10(%ebp),%edx
  101559:	81 e2 00 f0 ff ff    	and    $0xfffff000,%edx
  10155f:	83 ca 01             	or     $0x1,%edx
  101562:	89 14 98             	mov    %edx,(%eax,%ebx,4)
  101565:	5b                   	pop    %ebx
  101566:	5e                   	pop    %esi
  101567:	5d                   	pop    %ebp
  101568:	c3                   	ret    
  101569:	8d 76 00             	lea    0x0(%esi),%esi
  10156c:	ff 15 04 d0 cb 02    	call   *0x2cbd004
  101572:	89 c2                	mov    %eax,%edx
  101574:	81 e2 00 f0 ff ff    	and    $0xfffff000,%edx
  10157a:	83 ca 01             	or     $0x1,%edx
  10157d:	89 16                	mov    %edx,(%esi)
  10157f:	eb d5                	jmp    101556 <_map+0x2a>
  101581:	66 90                	xchg   %ax,%ax
  101583:	90                   	nop

00101584 <_umake>:
  101584:	55                   	push   %ebp
  101585:	89 e5                	mov    %esp,%ebp
  101587:	53                   	push   %ebx
  101588:	83 ec 54             	sub    $0x54,%esp
  10158b:	8b 5d 10             	mov    0x10(%ebp),%ebx
  10158e:	c7 44 24 08 04 00 00 	movl   $0x4,0x8(%esp)
  101595:	00 
  101596:	c7 44 24 04 00 00 00 	movl   $0x0,0x4(%esp)
  10159d:	00 
  10159e:	8d 43 fc             	lea    -0x4(%ebx),%eax
  1015a1:	89 04 24             	mov    %eax,(%esp)
  1015a4:	e8 37 fe ff ff       	call   1013e0 <memcpy>
  1015a9:	c7 44 24 08 04 00 00 	movl   $0x4,0x8(%esp)
  1015b0:	00 
  1015b1:	c7 44 24 04 00 00 00 	movl   $0x0,0x4(%esp)
  1015b8:	00 
  1015b9:	8d 43 f8             	lea    -0x8(%ebx),%eax
  1015bc:	89 04 24             	mov    %eax,(%esp)
  1015bf:	e8 1c fe ff ff       	call   1013e0 <memcpy>
  1015c4:	c7 44 24 08 04 00 00 	movl   $0x4,0x8(%esp)
  1015cb:	00 
  1015cc:	c7 44 24 04 00 00 00 	movl   $0x0,0x4(%esp)
  1015d3:	00 
  1015d4:	8d 43 f4             	lea    -0xc(%ebx),%eax
  1015d7:	89 04 24             	mov    %eax,(%esp)
  1015da:	e8 01 fe ff ff       	call   1013e0 <memcpy>
  1015df:	c7 44 24 08 04 00 00 	movl   $0x4,0x8(%esp)
  1015e6:	00 
  1015e7:	c7 44 24 04 00 00 00 	movl   $0x0,0x4(%esp)
  1015ee:	00 
  1015ef:	8d 43 f0             	lea    -0x10(%ebx),%eax
  1015f2:	89 04 24             	mov    %eax,(%esp)
  1015f5:	e8 e6 fd ff ff       	call   1013e0 <memcpy>
  1015fa:	c7 45 f4 02 00 00 00 	movl   $0x2,-0xc(%ebp)
  101601:	c7 45 f0 08 00 00 00 	movl   $0x8,-0x10(%ebp)
  101608:	8b 45 1c             	mov    0x1c(%ebp),%eax
  10160b:	89 45 ec             	mov    %eax,-0x14(%ebp)
  10160e:	83 eb 44             	sub    $0x44,%ebx
  101611:	c7 44 24 08 34 00 00 	movl   $0x34,0x8(%esp)
  101618:	00 
  101619:	8d 45 c4             	lea    -0x3c(%ebp),%eax
  10161c:	89 44 24 04          	mov    %eax,0x4(%esp)
  101620:	89 1c 24             	mov    %ebx,(%esp)
  101623:	e8 b8 fd ff ff       	call   1013e0 <memcpy>
  101628:	89 d8                	mov    %ebx,%eax
  10162a:	83 c4 54             	add    $0x54,%esp
  10162d:	5b                   	pop    %ebx
  10162e:	5d                   	pop    %ebp
  10162f:	c3                   	ret    

00101630 <_ioe_init>:
  101630:	55                   	push   %ebp
  101631:	89 e5                	mov    %esp,%ebp
  101633:	ba 48 00 00 00       	mov    $0x48,%edx
  101638:	ed                   	in     (%dx),%eax
  101639:	a3 00 f0 cd 02       	mov    %eax,0x2cdf000
  10163e:	5d                   	pop    %ebp
  10163f:	c3                   	ret    

00101640 <_uptime>:
  101640:	55                   	push   %ebp
  101641:	89 e5                	mov    %esp,%ebp
  101643:	ba 48 00 00 00       	mov    $0x48,%edx
  101648:	ed                   	in     (%dx),%eax
  101649:	2b 05 00 f0 cd 02    	sub    0x2cdf000,%eax
  10164f:	5d                   	pop    %ebp
  101650:	c3                   	ret    
  101651:	66 90                	xchg   %ax,%ax
  101653:	90                   	nop

00101654 <_draw_rect>:
  101654:	55                   	push   %ebp
  101655:	89 e5                	mov    %esp,%ebp
  101657:	57                   	push   %edi
  101658:	56                   	push   %esi
  101659:	53                   	push   %ebx
  10165a:	83 ec 1c             	sub    $0x1c,%esp
  10165d:	8b 45 10             	mov    0x10(%ebp),%eax
  101660:	0f af 05 40 a2 c9 02 	imul   0x2c9a240,%eax
  101667:	03 45 0c             	add    0xc(%ebp),%eax
  10166a:	8d 34 85 00 00 04 00 	lea    0x40000(,%eax,4),%esi
  101671:	8b 45 18             	mov    0x18(%ebp),%eax
  101674:	85 c0                	test   %eax,%eax
  101676:	7e 34                	jle    1016ac <_draw_rect+0x58>
  101678:	8b 45 14             	mov    0x14(%ebp),%eax
  10167b:	c1 e0 02             	shl    $0x2,%eax
  10167e:	89 45 e4             	mov    %eax,-0x1c(%ebp)
  101681:	8b 7d 08             	mov    0x8(%ebp),%edi
  101684:	31 db                	xor    %ebx,%ebx
  101686:	66 90                	xchg   %ax,%ax
  101688:	8b 45 e4             	mov    -0x1c(%ebp),%eax
  10168b:	89 44 24 08          	mov    %eax,0x8(%esp)
  10168f:	89 7c 24 04          	mov    %edi,0x4(%esp)
  101693:	89 34 24             	mov    %esi,(%esp)
  101696:	e8 45 fd ff ff       	call   1013e0 <memcpy>
  10169b:	a1 40 a2 c9 02       	mov    0x2c9a240,%eax
  1016a0:	8d 34 86             	lea    (%esi,%eax,4),%esi
  1016a3:	43                   	inc    %ebx
  1016a4:	03 7d e4             	add    -0x1c(%ebp),%edi
  1016a7:	3b 5d 18             	cmp    0x18(%ebp),%ebx
  1016aa:	75 dc                	jne    101688 <_draw_rect+0x34>
  1016ac:	83 c4 1c             	add    $0x1c,%esp
  1016af:	5b                   	pop    %ebx
  1016b0:	5e                   	pop    %esi
  1016b1:	5f                   	pop    %edi
  1016b2:	5d                   	pop    %ebp
  1016b3:	c3                   	ret    

001016b4 <_read_key>:
  1016b4:	55                   	push   %ebp
  1016b5:	89 e5                	mov    %esp,%ebp
  1016b7:	ba 64 00 00 00       	mov    $0x64,%edx
  1016bc:	ec                   	in     (%dx),%al
  1016bd:	a8 01                	test   $0x1,%al
  1016bf:	74 07                	je     1016c8 <_read_key+0x14>
  1016c1:	b2 60                	mov    $0x60,%dl
  1016c3:	ed                   	in     (%dx),%eax
  1016c4:	5d                   	pop    %ebp
  1016c5:	c3                   	ret    
  1016c6:	66 90                	xchg   %ax,%ax
  1016c8:	31 c0                	xor    %eax,%eax
  1016ca:	5d                   	pop    %ebp
  1016cb:	c3                   	ret    

001016cc <irq_handle>:
  1016cc:	55                   	push   %ebp
  1016cd:	89 e5                	mov    %esp,%ebp
  1016cf:	53                   	push   %ebx
  1016d0:	83 ec 14             	sub    $0x14,%esp
  1016d3:	8b 5d 08             	mov    0x8(%ebp),%ebx
  1016d6:	8b 15 20 f8 cd 02    	mov    0x2cdf820,%edx
  1016dc:	85 d2                	test   %edx,%edx
  1016de:	74 44                	je     101724 <irq_handle+0x58>
  1016e0:	8b 43 20             	mov    0x20(%ebx),%eax
  1016e3:	3d 80 00 00 00       	cmp    $0x80,%eax
  1016e8:	74 42                	je     10172c <irq_handle+0x60>
  1016ea:	3d 81 00 00 00       	cmp    $0x81,%eax
  1016ef:	74 2b                	je     10171c <irq_handle+0x50>
  1016f1:	83 f8 32             	cmp    $0x32,%eax
  1016f4:	0f 95 c0             	setne  %al
  1016f7:	0f b6 c0             	movzbl %al,%eax
  1016fa:	8d 44 00 01          	lea    0x1(%eax,%eax,1),%eax
  1016fe:	89 5c 24 08          	mov    %ebx,0x8(%esp)
  101702:	89 04 24             	mov    %eax,(%esp)
  101705:	c7 44 24 04 00 00 00 	movl   $0x0,0x4(%esp)
  10170c:	00 
  10170d:	ff d2                	call   *%edx
  10170f:	85 c0                	test   %eax,%eax
  101711:	74 11                	je     101724 <irq_handle+0x58>
  101713:	83 c4 14             	add    $0x14,%esp
  101716:	5b                   	pop    %ebx
  101717:	5d                   	pop    %ebp
  101718:	c3                   	ret    
  101719:	8d 76 00             	lea    0x0(%esi),%esi
  10171c:	b8 07 00 00 00       	mov    $0x7,%eax
  101721:	eb db                	jmp    1016fe <irq_handle+0x32>
  101723:	90                   	nop
  101724:	89 d8                	mov    %ebx,%eax
  101726:	83 c4 14             	add    $0x14,%esp
  101729:	5b                   	pop    %ebx
  10172a:	5d                   	pop    %ebp
  10172b:	c3                   	ret    
  10172c:	b8 08 00 00 00       	mov    $0x8,%eax
  101731:	eb cb                	jmp    1016fe <irq_handle+0x32>
  101733:	90                   	nop

00101734 <_asye_init>:
  101734:	55                   	push   %ebp
  101735:	89 e5                	mov    %esp,%ebp
  101737:	53                   	push   %ebx
  101738:	b9 3c 18 10 00       	mov    $0x10183c,%ecx
  10173d:	89 cb                	mov    %ecx,%ebx
  10173f:	c1 e9 10             	shr    $0x10,%ecx
  101742:	31 c0                	xor    %eax,%eax
  101744:	ba 20 f0 cd 02       	mov    $0x2cdf020,%edx
  101749:	66 89 1c c5 20 f0 cd 	mov    %bx,0x2cdf020(,%eax,8)
  101750:	02 
  101751:	66 c7 04 c5 22 f0 cd 	movw   $0x8,0x2cdf022(,%eax,8)
  101758:	02 08 00 
  10175b:	c6 04 c5 24 f0 cd 02 	movb   $0x0,0x2cdf024(,%eax,8)
  101762:	00 
  101763:	c6 04 c5 25 f0 cd 02 	movb   $0x8f,0x2cdf025(,%eax,8)
  10176a:	8f 
  10176b:	66 89 0c c5 26 f0 cd 	mov    %cx,0x2cdf026(,%eax,8)
  101772:	02 
  101773:	40                   	inc    %eax
  101774:	3d 00 01 00 00       	cmp    $0x100,%eax
  101779:	75 c9                	jne    101744 <_asye_init+0x10>
  10177b:	b8 33 18 10 00       	mov    $0x101833,%eax
  101780:	66 a3 20 f4 cd 02    	mov    %ax,0x2cdf420
  101786:	66 c7 05 22 f4 cd 02 	movw   $0x8,0x2cdf422
  10178d:	08 00 
  10178f:	c6 05 24 f4 cd 02 00 	movb   $0x0,0x2cdf424
  101796:	c6 05 25 f4 cd 02 ef 	movb   $0xef,0x2cdf425
  10179d:	c1 e8 10             	shr    $0x10,%eax
  1017a0:	66 a3 26 f4 cd 02    	mov    %ax,0x2cdf426
  1017a6:	b8 42 18 10 00       	mov    $0x101842,%eax
  1017ab:	66 a3 28 f4 cd 02    	mov    %ax,0x2cdf428
  1017b1:	66 c7 05 2a f4 cd 02 	movw   $0x8,0x2cdf42a
  1017b8:	08 00 
  1017ba:	c6 05 2c f4 cd 02 00 	movb   $0x0,0x2cdf42c
  1017c1:	c6 05 2d f4 cd 02 ef 	movb   $0xef,0x2cdf42d
  1017c8:	c1 e8 10             	shr    $0x10,%eax
  1017cb:	66 a3 2e f4 cd 02    	mov    %ax,0x2cdf42e
  1017d1:	b8 4b 18 10 00       	mov    $0x10184b,%eax
  1017d6:	66 a3 b0 f1 cd 02    	mov    %ax,0x2cdf1b0
  1017dc:	66 c7 05 b2 f1 cd 02 	movw   $0x8,0x2cdf1b2
  1017e3:	08 00 
  1017e5:	c6 05 b4 f1 cd 02 00 	movb   $0x0,0x2cdf1b4
  1017ec:	c6 05 b5 f1 cd 02 ef 	movb   $0xef,0x2cdf1b5
  1017f3:	c1 e8 10             	shr    $0x10,%eax
  1017f6:	66 a3 b6 f1 cd 02    	mov    %ax,0x2cdf1b6
  1017fc:	66 c7 05 04 f0 cd 02 	movw   $0x7ff,0x2cdf004
  101803:	ff 07 
  101805:	66 89 15 06 f0 cd 02 	mov    %dx,0x2cdf006
  10180c:	c1 ea 10             	shr    $0x10,%edx
  10180f:	66 89 15 08 f0 cd 02 	mov    %dx,0x2cdf008
  101816:	b8 04 f0 cd 02       	mov    $0x2cdf004,%eax
  10181b:	0f 01 18             	lidtl  (%eax)
  10181e:	8b 45 08             	mov    0x8(%ebp),%eax
  101821:	a3 20 f8 cd 02       	mov    %eax,0x2cdf820
  101826:	5b                   	pop    %ebx
  101827:	5d                   	pop    %ebp
  101828:	c3                   	ret    
  101829:	66 90                	xchg   %ax,%ax
  10182b:	90                   	nop

0010182c <_trap>:
  10182c:	55                   	push   %ebp
  10182d:	89 e5                	mov    %esp,%ebp
  10182f:	cd 81                	int    $0x81
  101831:	5d                   	pop    %ebp
  101832:	c3                   	ret    

00101833 <vecsys>:
  101833:	6a 00                	push   $0x0
  101835:	68 80 00 00 00       	push   $0x80
  10183a:	eb 15                	jmp    101851 <asm_trap>

0010183c <vecnull>:
  10183c:	6a 00                	push   $0x0
  10183e:	6a ff                	push   $0xffffffff
  101840:	eb 0f                	jmp    101851 <asm_trap>

00101842 <vectrap>:
  101842:	6a 00                	push   $0x0
  101844:	68 81 00 00 00       	push   $0x81
  101849:	eb 06                	jmp    101851 <asm_trap>

0010184b <vectime>:
  10184b:	6a 00                	push   $0x0
  10184d:	6a 32                	push   $0x32
  10184f:	eb 00                	jmp    101851 <asm_trap>

00101851 <asm_trap>:
  101851:	60                   	pusha  
  101852:	54                   	push   %esp
  101853:	e8 74 fe ff ff       	call   1016cc <irq_handle>
  101858:	89 c4                	mov    %eax,%esp
  10185a:	61                   	popa   
  10185b:	83 c4 08             	add    $0x8,%esp
  10185e:	cf                   	iret   
