
/home/user/ics2017/ics2017/nexus-am/apps/microbench/build/microbench-x86-nemu：     文件格式 elf32-i386


Disassembly of section .text:

00100000 <_start>:
  100000:	bd 00 00 00 00       	mov    $0x0,%ebp
  100005:	bc 00 7c 00 00       	mov    $0x7c00,%esp
  10000a:	e8 29 00 00 00       	call   100038 <_trm_init>
  10000f:	90                   	nop

00100010 <_putc>:
  100010:	55                   	push   %ebp
  100011:	89 e5                	mov    %esp,%ebp
  100013:	8b 4d 08             	mov    0x8(%ebp),%ecx
  100016:	ba fd 03 00 00       	mov    $0x3fd,%edx
  10001b:	90                   	nop
  10001c:	ec                   	in     (%dx),%al
  10001d:	a8 20                	test   $0x20,%al
  10001f:	74 fb                	je     10001c <_putc+0xc>
  100021:	ba f8 03 00 00       	mov    $0x3f8,%edx
  100026:	88 c8                	mov    %cl,%al
  100028:	ee                   	out    %al,(%dx)
  100029:	5d                   	pop    %ebp
  10002a:	c3                   	ret    
  10002b:	90                   	nop

0010002c <_halt>:
  10002c:	55                   	push   %ebp
  10002d:	89 e5                	mov    %esp,%ebp
  10002f:	8b 45 08             	mov    0x8(%ebp),%eax
  100032:	d6                   	(bad)  
  100033:	eb fe                	jmp    100033 <_halt+0x7>
  100035:	66 90                	xchg   %ax,%ax
  100037:	90                   	nop

00100038 <_trm_init>:
  100038:	55                   	push   %ebp
  100039:	89 e5                	mov    %esp,%ebp
  10003b:	56                   	push   %esi
  10003c:	53                   	push   %ebx
  10003d:	31 f6                	xor    %esi,%esi
  10003f:	bb f9 03 00 00       	mov    $0x3f9,%ebx
  100044:	89 f0                	mov    %esi,%eax
  100046:	89 da                	mov    %ebx,%edx
  100048:	ee                   	out    %al,(%dx)
  100049:	b9 fb 03 00 00       	mov    $0x3fb,%ecx
  10004e:	b0 80                	mov    $0x80,%al
  100050:	89 ca                	mov    %ecx,%edx
  100052:	ee                   	out    %al,(%dx)
  100053:	b2 f8                	mov    $0xf8,%dl
  100055:	b0 01                	mov    $0x1,%al
  100057:	ee                   	out    %al,(%dx)
  100058:	89 f0                	mov    %esi,%eax
  10005a:	89 da                	mov    %ebx,%edx
  10005c:	ee                   	out    %al,(%dx)
  10005d:	b0 03                	mov    $0x3,%al
  10005f:	89 ca                	mov    %ecx,%edx
  100061:	ee                   	out    %al,(%dx)
  100062:	b2 fa                	mov    $0xfa,%dl
  100064:	b0 c7                	mov    $0xc7,%al
  100066:	ee                   	out    %al,(%dx)
  100067:	b2 fc                	mov    $0xfc,%dl
  100069:	b0 0b                	mov    $0xb,%al
  10006b:	ee                   	out    %al,(%dx)
  10006c:	e8 e7 14 00 00       	call   101558 <main>
  100071:	d6                   	(bad)  
  100072:	eb fe                	jmp    100072 <_trm_init+0x3a>

00100074 <bench_15pz_prepare>:
  100074:	55                   	push   %ebp
  100075:	89 e5                	mov    %esp,%ebp
  100077:	5d                   	pop    %ebp
  100078:	c3                   	ret    
  100079:	8d 76 00             	lea    0x0(%esi),%esi

0010007c <bench_15pz_validate>:
  10007c:	55                   	push   %ebp
  10007d:	89 e5                	mov    %esp,%ebp
  10007f:	a1 b8 5a 10 00       	mov    0x105ab8,%eax
  100084:	8b 40 0c             	mov    0xc(%eax),%eax
  100087:	39 05 28 5a 10 00    	cmp    %eax,0x105a28
  10008d:	0f 94 c0             	sete   %al
  100090:	0f b6 c0             	movzbl %al,%eax
  100093:	5d                   	pop    %ebp
  100094:	c3                   	ret    
  100095:	8d 76 00             	lea    0x0(%esi),%esi

00100098 <bench_15pz_run>:
  100098:	55                   	push   %ebp
  100099:	89 e5                	mov    %esp,%ebp
  10009b:	57                   	push   %edi
  10009c:	56                   	push   %esi
  10009d:	53                   	push   %ebx
  10009e:	81 ec cc 00 00 00    	sub    $0xcc,%esp
  1000a4:	8d 85 60 ff ff ff    	lea    -0xa0(%ebp),%eax
  1000aa:	89 04 24             	mov    %eax,(%esp)
  1000ad:	e8 d2 0a 00 00       	call   100b84 <_ZN8N_puzzleILi4EEC1Ev>
  1000b2:	a1 b8 5a 10 00       	mov    0x105ab8,%eax
  1000b7:	8b 18                	mov    (%eax),%ebx
  1000b9:	85 db                	test   %ebx,%ebx
  1000bb:	0f 85 45 09 00 00    	jne    100a06 <bench_15pz_run+0x96e>
  1000c1:	c7 44 24 04 c0 57 10 	movl   $0x1057c0,0x4(%esp)
  1000c8:	00 
  1000c9:	8d 7d a8             	lea    -0x58(%ebp),%edi
  1000cc:	89 3c 24             	mov    %edi,(%esp)
  1000cf:	e8 cc 0b 00 00       	call   100ca0 <_ZN8N_puzzleILi4EEC1EPi>
  1000d4:	8a 55 a8             	mov    -0x58(%ebp),%dl
  1000d7:	88 95 60 ff ff ff    	mov    %dl,-0xa0(%ebp)
  1000dd:	8a 45 a9             	mov    -0x57(%ebp),%al
  1000e0:	88 85 61 ff ff ff    	mov    %al,-0x9f(%ebp)
  1000e6:	8a 45 aa             	mov    -0x56(%ebp),%al
  1000e9:	88 85 62 ff ff ff    	mov    %al,-0x9e(%ebp)
  1000ef:	8a 45 ab             	mov    -0x55(%ebp),%al
  1000f2:	88 85 63 ff ff ff    	mov    %al,-0x9d(%ebp)
  1000f8:	8b 45 bc             	mov    -0x44(%ebp),%eax
  1000fb:	89 85 74 ff ff ff    	mov    %eax,-0x8c(%ebp)
  100101:	31 c0                	xor    %eax,%eax
  100103:	8a 5c 87 04          	mov    0x4(%edi,%eax,4),%bl
  100107:	88 9c 85 64 ff ff ff 	mov    %bl,-0x9c(%ebp,%eax,4)
  10010e:	8a 5c 87 05          	mov    0x5(%edi,%eax,4),%bl
  100112:	88 9c 85 65 ff ff ff 	mov    %bl,-0x9b(%ebp,%eax,4)
  100119:	8a 5c 87 06          	mov    0x6(%edi,%eax,4),%bl
  10011d:	88 9c 85 66 ff ff ff 	mov    %bl,-0x9a(%ebp,%eax,4)
  100124:	8a 5c 87 07          	mov    0x7(%edi,%eax,4),%bl
  100128:	88 9c 85 67 ff ff ff 	mov    %bl,-0x99(%ebp,%eax,4)
  10012f:	40                   	inc    %eax
  100130:	83 f8 04             	cmp    $0x4,%eax
  100133:	75 ce                	jne    100103 <bench_15pz_run+0x6b>
  100135:	84 d2                	test   %dl,%dl
  100137:	0f 84 45 09 00 00    	je     100a82 <bench_15pz_run+0x9ea>
  10013d:	89 fb                	mov    %edi,%ebx
  10013f:	8d b5 60 ff ff ff    	lea    -0xa0(%ebp),%esi
  100145:	8d 4d e8             	lea    -0x18(%ebp),%ecx
  100148:	31 c0                	xor    %eax,%eax
  10014a:	0f be 54 06 04       	movsbl 0x4(%esi,%eax,1),%edx
  10014f:	84 d2                	test   %dl,%dl
  100151:	0f 85 e1 04 00 00    	jne    100638 <bench_15pz_run+0x5a0>
  100157:	c7 04 83 10 00 00 00 	movl   $0x10,(%ebx,%eax,4)
  10015e:	40                   	inc    %eax
  10015f:	83 f8 04             	cmp    $0x4,%eax
  100162:	75 e6                	jne    10014a <bench_15pz_run+0xb2>
  100164:	83 c3 10             	add    $0x10,%ebx
  100167:	83 c6 04             	add    $0x4,%esi
  10016a:	39 cb                	cmp    %ecx,%ebx
  10016c:	75 da                	jne    100148 <bench_15pz_run+0xb0>
  10016e:	8d 75 ac             	lea    -0x54(%ebp),%esi
  100171:	31 db                	xor    %ebx,%ebx
  100173:	31 c0                	xor    %eax,%eax
  100175:	89 bd 54 ff ff ff    	mov    %edi,-0xac(%ebp)
  10017b:	89 c7                	mov    %eax,%edi
  10017d:	47                   	inc    %edi
  10017e:	83 ff 10             	cmp    $0x10,%edi
  100181:	74 1e                	je     1001a1 <bench_15pz_run+0x109>
  100183:	90                   	nop
  100184:	8b 56 fc             	mov    -0x4(%esi),%edx
  100187:	89 f0                	mov    %esi,%eax
  100189:	8d 76 00             	lea    0x0(%esi),%esi
  10018c:	39 10                	cmp    %edx,(%eax)
  10018e:	7d 01                	jge    100191 <bench_15pz_run+0xf9>
  100190:	43                   	inc    %ebx
  100191:	83 c0 04             	add    $0x4,%eax
  100194:	39 c8                	cmp    %ecx,%eax
  100196:	75 f4                	jne    10018c <bench_15pz_run+0xf4>
  100198:	83 c6 04             	add    $0x4,%esi
  10019b:	47                   	inc    %edi
  10019c:	83 ff 10             	cmp    $0x10,%edi
  10019f:	75 e3                	jne    100184 <bench_15pz_run+0xec>
  1001a1:	8b bd 54 ff ff ff    	mov    -0xac(%ebp),%edi
  1001a7:	0f b6 95 61 ff ff ff 	movzbl -0x9f(%ebp),%edx
  1001ae:	b8 06 00 00 00       	mov    $0x6,%eax
  1001b3:	29 d0                	sub    %edx,%eax
  1001b5:	0f b6 95 62 ff ff ff 	movzbl -0x9e(%ebp),%edx
  1001bc:	29 d0                	sub    %edx,%eax
  1001be:	01 d8                	add    %ebx,%eax
  1001c0:	a8 01                	test   $0x1,%al
  1001c2:	0f 85 ba 08 00 00    	jne    100a82 <bench_15pz_run+0x9ea>
  1001c8:	c7 04 24 0c 00 08 00 	movl   $0x8000c,(%esp)
  1001cf:	e8 00 12 00 00       	call   1013d4 <bench_alloc>
  1001d4:	89 c2                	mov    %eax,%edx
  1001d6:	89 85 40 ff ff ff    	mov    %eax,-0xc0(%ebp)
  1001dc:	c7 80 04 00 08 00 00 	movl   $0x0,0x80004(%eax)
  1001e3:	00 00 00 
  1001e6:	c7 80 08 00 08 00 00 	movl   $0x0,0x80008(%eax)
  1001ed:	00 00 00 
  1001f0:	31 c0                	xor    %eax,%eax
  1001f2:	66 90                	xchg   %ax,%ax
  1001f4:	c7 04 82 00 00 00 00 	movl   $0x0,(%edx,%eax,4)
  1001fb:	40                   	inc    %eax
  1001fc:	3d 00 00 01 00       	cmp    $0x10000,%eax
  100201:	75 f1                	jne    1001f4 <bench_15pz_run+0x15c>
  100203:	c7 44 24 08 00 00 00 	movl   $0x0,0x8(%esp)
  10020a:	00 
  10020b:	8d 85 60 ff ff ff    	lea    -0xa0(%ebp),%eax
  100211:	89 44 24 04          	mov    %eax,0x4(%esp)
  100215:	8b b5 40 ff ff ff    	mov    -0xc0(%ebp),%esi
  10021b:	89 34 24             	mov    %esi,(%esp)
  10021e:	e8 b9 0e 00 00       	call   1010dc <_ZN14Updatable_heapI8N_puzzleILi4EELi65536EE4pushERKS1_i>
  100223:	c7 05 28 5a 10 00 ff 	movl   $0xffffffff,0x105a28
  10022a:	ff ff ff 
  10022d:	8b 8e 04 00 08 00    	mov    0x80004(%esi),%ecx
  100233:	85 c9                	test   %ecx,%ecx
  100235:	0f 84 f2 03 00 00    	je     10062d <bench_15pz_run+0x595>
  10023b:	c7 85 50 ff ff ff 00 	movl   $0x0,-0xb0(%ebp)
  100242:	00 00 00 
  100245:	8b 9d 40 ff ff ff    	mov    -0xc0(%ebp),%ebx
  10024b:	90                   	nop
  10024c:	89 5c 24 04          	mov    %ebx,0x4(%esp)
  100250:	8d 85 78 ff ff ff    	lea    -0x88(%ebp),%eax
  100256:	89 04 24             	mov    %eax,(%esp)
  100259:	e8 6a 0b 00 00       	call   100dc8 <_ZN14Updatable_heapI8N_puzzleILi4EELi65536EE3popEv>
  10025e:	50                   	push   %eax
  10025f:	ff 85 50 ff ff ff    	incl   -0xb0(%ebp)
  100265:	31 c0                	xor    %eax,%eax
  100267:	90                   	nop
  100268:	40                   	inc    %eax
  100269:	89 44 87 fc          	mov    %eax,-0x4(%edi,%eax,4)
  10026d:	83 f8 0f             	cmp    $0xf,%eax
  100270:	75 f6                	jne    100268 <bench_15pz_run+0x1d0>
  100272:	c7 45 e4 00 00 00 00 	movl   $0x0,-0x1c(%ebp)
  100279:	89 7c 24 04          	mov    %edi,0x4(%esp)
  10027d:	8d 45 90             	lea    -0x70(%ebp),%eax
  100280:	89 04 24             	mov    %eax,(%esp)
  100283:	e8 18 0a 00 00       	call   100ca0 <_ZN8N_puzzleILi4EEC1EPi>
  100288:	8d 45 90             	lea    -0x70(%ebp),%eax
  10028b:	89 44 24 04          	mov    %eax,0x4(%esp)
  10028f:	8d 85 78 ff ff ff    	lea    -0x88(%ebp),%eax
  100295:	89 04 24             	mov    %eax,(%esp)
  100298:	e8 7b 0d 00 00       	call   101018 <_ZNK8N_puzzleILi4EEeqERKS0_>
  10029d:	84 c0                	test   %al,%al
  10029f:	0f 85 0a 08 00 00    	jne    100aaf <bench_15pz_run+0xa17>
  1002a5:	80 bd 78 ff ff ff 00 	cmpb   $0x0,-0x88(%ebp)
  1002ac:	0f 84 71 03 00 00    	je     100623 <bench_15pz_run+0x58b>
  1002b2:	8a 85 7a ff ff ff    	mov    -0x86(%ebp),%al
  1002b8:	88 85 4f ff ff ff    	mov    %al,-0xb1(%ebp)
  1002be:	3c 03                	cmp    $0x3,%al
  1002c0:	0f 84 92 03 00 00    	je     100658 <bench_15pz_run+0x5c0>
  1002c6:	8d 85 78 ff ff ff    	lea    -0x88(%ebp),%eax
  1002cc:	89 44 24 04          	mov    %eax,0x4(%esp)
  1002d0:	89 1c 24             	mov    %ebx,(%esp)
  1002d3:	e8 b4 0d 00 00       	call   10108c <_ZNK14Updatable_heapI8N_puzzleILi4EELi65536EE7pointerERKS1_>
  1002d8:	85 c0                	test   %eax,%eax
  1002da:	0f 84 17 07 00 00    	je     1009f7 <bench_15pz_run+0x95f>
  1002e0:	8b 40 20             	mov    0x20(%eax),%eax
  1002e3:	40                   	inc    %eax
  1002e4:	89 85 44 ff ff ff    	mov    %eax,-0xbc(%ebp)
  1002ea:	8a 85 79 ff ff ff    	mov    -0x87(%ebp),%al
  1002f0:	88 85 48 ff ff ff    	mov    %al,-0xb8(%ebp)
  1002f6:	8a 95 7b ff ff ff    	mov    -0x85(%ebp),%dl
  1002fc:	31 c0                	xor    %eax,%eax
  1002fe:	8a 8c 85 7c ff ff ff 	mov    -0x84(%ebp,%eax,4),%cl
  100305:	88 4c 87 04          	mov    %cl,0x4(%edi,%eax,4)
  100309:	8a 8c 85 7d ff ff ff 	mov    -0x83(%ebp,%eax,4),%cl
  100310:	88 4c 87 05          	mov    %cl,0x5(%edi,%eax,4)
  100314:	8a 8c 85 7e ff ff ff 	mov    -0x82(%ebp,%eax,4),%cl
  10031b:	88 4c 87 06          	mov    %cl,0x6(%edi,%eax,4)
  10031f:	8a 8c 85 7f ff ff ff 	mov    -0x81(%ebp,%eax,4),%cl
  100326:	88 8d 54 ff ff ff    	mov    %cl,-0xac(%ebp)
  10032c:	88 4c 87 07          	mov    %cl,0x7(%edi,%eax,4)
  100330:	40                   	inc    %eax
  100331:	83 f8 04             	cmp    $0x4,%eax
  100334:	75 c8                	jne    1002fe <bench_15pz_run+0x266>
  100336:	0f b6 b5 48 ff ff ff 	movzbl -0xb8(%ebp),%esi
  10033d:	89 b5 3c ff ff ff    	mov    %esi,-0xc4(%ebp)
  100343:	0f b6 85 4f ff ff ff 	movzbl -0xb1(%ebp),%eax
  10034a:	8d 4c b5 e8          	lea    -0x18(%ebp,%esi,4),%ecx
  10034e:	0f be 4c 08 95       	movsbl -0x6b(%eax,%ecx,1),%ecx
  100353:	88 8d 4e ff ff ff    	mov    %cl,-0xb2(%ebp)
  100359:	49                   	dec    %ecx
  10035a:	81 e1 03 00 00 80    	and    $0x80000003,%ecx
  100360:	0f 88 c7 07 00 00    	js     100b2d <bench_15pz_run+0xa95>
  100366:	89 ce                	mov    %ecx,%esi
  100368:	29 c6                	sub    %eax,%esi
  10036a:	89 b5 54 ff ff ff    	mov    %esi,-0xac(%ebp)
  100370:	0f 88 ac 07 00 00    	js     100b22 <bench_15pz_run+0xa8a>
  100376:	89 c6                	mov    %eax,%esi
  100378:	f7 d6                	not    %esi
  10037a:	01 f1                	add    %esi,%ecx
  10037c:	0f 88 99 07 00 00    	js     100b1b <bench_15pz_run+0xa83>
  100382:	8b b5 54 ff ff ff    	mov    -0xac(%ebp),%esi
  100388:	29 ce                	sub    %ecx,%esi
  10038a:	01 f2                	add    %esi,%edx
  10038c:	88 95 54 ff ff ff    	mov    %dl,-0xac(%ebp)
  100392:	8b b5 3c ff ff ff    	mov    -0xc4(%ebp),%esi
  100398:	8d 4c b5 e8          	lea    -0x18(%ebp,%esi,4),%ecx
  10039c:	8a 95 4e ff ff ff    	mov    -0xb2(%ebp),%dl
  1003a2:	88 54 08 c4          	mov    %dl,-0x3c(%eax,%ecx,1)
  1003a6:	8a 85 4f ff ff ff    	mov    -0xb1(%ebp),%al
  1003ac:	40                   	inc    %eax
  1003ad:	88 85 4f ff ff ff    	mov    %al,-0xb1(%ebp)
  1003b3:	0f b6 c0             	movzbl %al,%eax
  1003b6:	c6 44 01 c4 00       	movb   $0x0,-0x3c(%ecx,%eax,1)
  1003bb:	89 fe                	mov    %edi,%esi
  1003bd:	31 c0                	xor    %eax,%eax
  1003bf:	31 d2                	xor    %edx,%edx
  1003c1:	8d 0c 00             	lea    (%eax,%eax,1),%ecx
  1003c4:	01 c1                	add    %eax,%ecx
  1003c6:	8d 0c 89             	lea    (%ecx,%ecx,4),%ecx
  1003c9:	8d 0c 88             	lea    (%eax,%ecx,4),%ecx
  1003cc:	01 c9                	add    %ecx,%ecx
  1003ce:	01 c1                	add    %eax,%ecx
  1003d0:	8d 0c 88             	lea    (%eax,%ecx,4),%ecx
  1003d3:	8d 0c 88             	lea    (%eax,%ecx,4),%ecx
  1003d6:	0f be 44 16 04       	movsbl 0x4(%esi,%edx,1),%eax
  1003db:	01 c8                	add    %ecx,%eax
  1003dd:	42                   	inc    %edx
  1003de:	83 fa 04             	cmp    $0x4,%edx
  1003e1:	75 de                	jne    1003c1 <bench_15pz_run+0x329>
  1003e3:	83 c6 04             	add    $0x4,%esi
  1003e6:	8d 55 b8             	lea    -0x48(%ebp),%edx
  1003e9:	39 d6                	cmp    %edx,%esi
  1003eb:	75 d2                	jne    1003bf <bench_15pz_run+0x327>
  1003ed:	c6 45 90 01          	movb   $0x1,-0x70(%ebp)
  1003f1:	8a 95 48 ff ff ff    	mov    -0xb8(%ebp),%dl
  1003f7:	88 55 91             	mov    %dl,-0x6f(%ebp)
  1003fa:	8a 95 4f ff ff ff    	mov    -0xb1(%ebp),%dl
  100400:	88 55 92             	mov    %dl,-0x6e(%ebp)
  100403:	8a 95 54 ff ff ff    	mov    -0xac(%ebp),%dl
  100409:	88 55 93             	mov    %dl,-0x6d(%ebp)
  10040c:	89 45 a4             	mov    %eax,-0x5c(%ebp)
  10040f:	31 c0                	xor    %eax,%eax
  100411:	8a 54 87 04          	mov    0x4(%edi,%eax,4),%dl
  100415:	88 54 85 94          	mov    %dl,-0x6c(%ebp,%eax,4)
  100419:	8a 54 87 05          	mov    0x5(%edi,%eax,4),%dl
  10041d:	88 54 85 95          	mov    %dl,-0x6b(%ebp,%eax,4)
  100421:	8a 54 87 06          	mov    0x6(%edi,%eax,4),%dl
  100425:	88 54 85 96          	mov    %dl,-0x6a(%ebp,%eax,4)
  100429:	8a 54 87 07          	mov    0x7(%edi,%eax,4),%dl
  10042d:	88 54 85 97          	mov    %dl,-0x69(%ebp,%eax,4)
  100431:	40                   	inc    %eax
  100432:	83 f8 04             	cmp    $0x4,%eax
  100435:	75 da                	jne    100411 <bench_15pz_run+0x379>
  100437:	8b 85 44 ff ff ff    	mov    -0xbc(%ebp),%eax
  10043d:	89 44 24 08          	mov    %eax,0x8(%esp)
  100441:	8d 45 90             	lea    -0x70(%ebp),%eax
  100444:	89 44 24 04          	mov    %eax,0x4(%esp)
  100448:	89 1c 24             	mov    %ebx,(%esp)
  10044b:	e8 8c 0c 00 00       	call   1010dc <_ZN14Updatable_heapI8N_puzzleILi4EELi65536EE4pushERKS1_i>
  100450:	80 bd 78 ff ff ff 00 	cmpb   $0x0,-0x88(%ebp)
  100457:	0f 84 c6 01 00 00    	je     100623 <bench_15pz_run+0x58b>
  10045d:	8a 85 7a ff ff ff    	mov    -0x86(%ebp),%al
  100463:	88 85 4f ff ff ff    	mov    %al,-0xb1(%ebp)
  100469:	89 c6                	mov    %eax,%esi
  10046b:	84 c0                	test   %al,%al
  10046d:	0f 85 ea 01 00 00    	jne    10065d <bench_15pz_run+0x5c5>
  100473:	8a 85 79 ff ff ff    	mov    -0x87(%ebp),%al
  100479:	88 85 48 ff ff ff    	mov    %al,-0xb8(%ebp)
  10047f:	3c 03                	cmp    $0x3,%al
  100481:	0f 84 99 03 00 00    	je     100820 <bench_15pz_run+0x788>
  100487:	8d 85 78 ff ff ff    	lea    -0x88(%ebp),%eax
  10048d:	89 44 24 04          	mov    %eax,0x4(%esp)
  100491:	89 1c 24             	mov    %ebx,(%esp)
  100494:	e8 f3 0b 00 00       	call   10108c <_ZNK14Updatable_heapI8N_puzzleILi4EELi65536EE7pointerERKS1_>
  100499:	85 c0                	test   %eax,%eax
  10049b:	0f 84 47 05 00 00    	je     1009e8 <bench_15pz_run+0x950>
  1004a1:	8b 40 20             	mov    0x20(%eax),%eax
  1004a4:	40                   	inc    %eax
  1004a5:	89 85 44 ff ff ff    	mov    %eax,-0xbc(%ebp)
  1004ab:	8a 8d 7b ff ff ff    	mov    -0x85(%ebp),%cl
  1004b1:	31 c0                	xor    %eax,%eax
  1004b3:	8a 94 85 7c ff ff ff 	mov    -0x84(%ebp,%eax,4),%dl
  1004ba:	88 54 87 04          	mov    %dl,0x4(%edi,%eax,4)
  1004be:	8a 94 85 7d ff ff ff 	mov    -0x83(%ebp,%eax,4),%dl
  1004c5:	88 54 87 05          	mov    %dl,0x5(%edi,%eax,4)
  1004c9:	8a 94 85 7e ff ff ff 	mov    -0x82(%ebp,%eax,4),%dl
  1004d0:	88 54 87 06          	mov    %dl,0x6(%edi,%eax,4)
  1004d4:	8a 94 85 7f ff ff ff 	mov    -0x81(%ebp,%eax,4),%dl
  1004db:	88 95 54 ff ff ff    	mov    %dl,-0xac(%ebp)
  1004e1:	88 54 87 07          	mov    %dl,0x7(%edi,%eax,4)
  1004e5:	40                   	inc    %eax
  1004e6:	83 f8 04             	cmp    $0x4,%eax
  1004e9:	75 c8                	jne    1004b3 <bench_15pz_run+0x41b>
  1004eb:	0f b6 85 48 ff ff ff 	movzbl -0xb8(%ebp),%eax
  1004f2:	0f b6 b5 4f ff ff ff 	movzbl -0xb1(%ebp),%esi
  1004f9:	89 b5 3c ff ff ff    	mov    %esi,-0xc4(%ebp)
  1004ff:	8d 54 85 ec          	lea    -0x14(%ebp,%eax,4),%edx
  100503:	0f be 54 16 94       	movsbl -0x6c(%esi,%edx,1),%edx
  100508:	88 95 4e ff ff ff    	mov    %dl,-0xb2(%ebp)
  10050e:	89 d6                	mov    %edx,%esi
  100510:	4e                   	dec    %esi
  100511:	0f 88 fc 05 00 00    	js     100b13 <bench_15pz_run+0xa7b>
  100517:	89 f2                	mov    %esi,%edx
  100519:	c1 fa 02             	sar    $0x2,%edx
  10051c:	89 d6                	mov    %edx,%esi
  10051e:	29 c6                	sub    %eax,%esi
  100520:	89 b5 54 ff ff ff    	mov    %esi,-0xac(%ebp)
  100526:	0f 88 dc 05 00 00    	js     100b08 <bench_15pz_run+0xa70>
  10052c:	89 c6                	mov    %eax,%esi
  10052e:	f7 d6                	not    %esi
  100530:	01 f2                	add    %esi,%edx
  100532:	0f 88 c9 05 00 00    	js     100b01 <bench_15pz_run+0xa69>
  100538:	8b b5 54 ff ff ff    	mov    -0xac(%ebp),%esi
  10053e:	29 d6                	sub    %edx,%esi
  100540:	89 f2                	mov    %esi,%edx
  100542:	01 ca                	add    %ecx,%edx
  100544:	88 95 54 ff ff ff    	mov    %dl,-0xac(%ebp)
  10054a:	8d 44 85 e8          	lea    -0x18(%ebp,%eax,4),%eax
  10054e:	8a 95 4e ff ff ff    	mov    -0xb2(%ebp),%dl
  100554:	8b b5 3c ff ff ff    	mov    -0xc4(%ebp),%esi
  10055a:	88 54 06 c4          	mov    %dl,-0x3c(%esi,%eax,1)
  10055e:	8a 85 48 ff ff ff    	mov    -0xb8(%ebp),%al
  100564:	40                   	inc    %eax
  100565:	88 85 48 ff ff ff    	mov    %al,-0xb8(%ebp)
  10056b:	0f b6 c0             	movzbl %al,%eax
  10056e:	8d 44 85 e8          	lea    -0x18(%ebp,%eax,4),%eax
  100572:	c6 44 06 c4 00       	movb   $0x0,-0x3c(%esi,%eax,1)
  100577:	89 fe                	mov    %edi,%esi
  100579:	31 c0                	xor    %eax,%eax
  10057b:	31 d2                	xor    %edx,%edx
  10057d:	8d 0c 00             	lea    (%eax,%eax,1),%ecx
  100580:	01 c1                	add    %eax,%ecx
  100582:	8d 0c 89             	lea    (%ecx,%ecx,4),%ecx
  100585:	8d 0c 88             	lea    (%eax,%ecx,4),%ecx
  100588:	01 c9                	add    %ecx,%ecx
  10058a:	01 c1                	add    %eax,%ecx
  10058c:	8d 0c 88             	lea    (%eax,%ecx,4),%ecx
  10058f:	8d 0c 88             	lea    (%eax,%ecx,4),%ecx
  100592:	0f be 44 16 04       	movsbl 0x4(%esi,%edx,1),%eax
  100597:	01 c8                	add    %ecx,%eax
  100599:	42                   	inc    %edx
  10059a:	83 fa 04             	cmp    $0x4,%edx
  10059d:	75 de                	jne    10057d <bench_15pz_run+0x4e5>
  10059f:	83 c6 04             	add    $0x4,%esi
  1005a2:	8d 55 b8             	lea    -0x48(%ebp),%edx
  1005a5:	39 d6                	cmp    %edx,%esi
  1005a7:	75 d2                	jne    10057b <bench_15pz_run+0x4e3>
  1005a9:	c6 45 90 01          	movb   $0x1,-0x70(%ebp)
  1005ad:	8a 95 48 ff ff ff    	mov    -0xb8(%ebp),%dl
  1005b3:	88 55 91             	mov    %dl,-0x6f(%ebp)
  1005b6:	8a 95 4f ff ff ff    	mov    -0xb1(%ebp),%dl
  1005bc:	88 55 92             	mov    %dl,-0x6e(%ebp)
  1005bf:	8a 95 54 ff ff ff    	mov    -0xac(%ebp),%dl
  1005c5:	88 55 93             	mov    %dl,-0x6d(%ebp)
  1005c8:	89 45 a4             	mov    %eax,-0x5c(%ebp)
  1005cb:	31 c0                	xor    %eax,%eax
  1005cd:	8a 54 87 04          	mov    0x4(%edi,%eax,4),%dl
  1005d1:	88 54 85 94          	mov    %dl,-0x6c(%ebp,%eax,4)
  1005d5:	8a 54 87 05          	mov    0x5(%edi,%eax,4),%dl
  1005d9:	88 54 85 95          	mov    %dl,-0x6b(%ebp,%eax,4)
  1005dd:	8a 54 87 06          	mov    0x6(%edi,%eax,4),%dl
  1005e1:	88 54 85 96          	mov    %dl,-0x6a(%ebp,%eax,4)
  1005e5:	8a 54 87 07          	mov    0x7(%edi,%eax,4),%dl
  1005e9:	88 54 85 97          	mov    %dl,-0x69(%ebp,%eax,4)
  1005ed:	40                   	inc    %eax
  1005ee:	83 f8 04             	cmp    $0x4,%eax
  1005f1:	75 da                	jne    1005cd <bench_15pz_run+0x535>
  1005f3:	8b 85 44 ff ff ff    	mov    -0xbc(%ebp),%eax
  1005f9:	89 44 24 08          	mov    %eax,0x8(%esp)
  1005fd:	8d 45 90             	lea    -0x70(%ebp),%eax
  100600:	89 44 24 04          	mov    %eax,0x4(%esp)
  100604:	89 1c 24             	mov    %ebx,(%esp)
  100607:	e8 d0 0a 00 00       	call   1010dc <_ZN14Updatable_heapI8N_puzzleILi4EELi65536EE4pushERKS1_i>
  10060c:	80 bd 78 ff ff ff 00 	cmpb   $0x0,-0x88(%ebp)
  100613:	74 0e                	je     100623 <bench_15pz_run+0x58b>
  100615:	8a 95 79 ff ff ff    	mov    -0x87(%ebp),%dl
  10061b:	84 d2                	test   %dl,%dl
  10061d:	0f 85 b4 03 00 00    	jne    1009d7 <bench_15pz_run+0x93f>
  100623:	8b 93 04 00 08 00    	mov    0x80004(%ebx),%edx
  100629:	85 d2                	test   %edx,%edx
  10062b:	75 13                	jne    100640 <bench_15pz_run+0x5a8>
  10062d:	8d 65 f4             	lea    -0xc(%ebp),%esp
  100630:	5b                   	pop    %ebx
  100631:	5e                   	pop    %esi
  100632:	5f                   	pop    %edi
  100633:	5d                   	pop    %ebp
  100634:	c3                   	ret    
  100635:	8d 76 00             	lea    0x0(%esi),%esi
  100638:	89 14 83             	mov    %edx,(%ebx,%eax,4)
  10063b:	e9 1e fb ff ff       	jmp    10015e <bench_15pz_run+0xc6>
  100640:	81 bd 50 ff ff ff 00 	cmpl   $0x10000,-0xb0(%ebp)
  100647:	00 01 00 
  10064a:	0f 85 fc fb ff ff    	jne    10024c <bench_15pz_run+0x1b4>
  100650:	8d 65 f4             	lea    -0xc(%ebp),%esp
  100653:	5b                   	pop    %ebx
  100654:	5e                   	pop    %esi
  100655:	5f                   	pop    %edi
  100656:	5d                   	pop    %ebp
  100657:	c3                   	ret    
  100658:	be 03 00 00 00       	mov    $0x3,%esi
  10065d:	8d 85 78 ff ff ff    	lea    -0x88(%ebp),%eax
  100663:	89 44 24 04          	mov    %eax,0x4(%esp)
  100667:	89 1c 24             	mov    %ebx,(%esp)
  10066a:	e8 1d 0a 00 00       	call   10108c <_ZNK14Updatable_heapI8N_puzzleILi4EELi65536EE7pointerERKS1_>
  10066f:	85 c0                	test   %eax,%eax
  100671:	0f 84 7b 04 00 00    	je     100af2 <bench_15pz_run+0xa5a>
  100677:	8b 40 20             	mov    0x20(%eax),%eax
  10067a:	40                   	inc    %eax
  10067b:	89 85 48 ff ff ff    	mov    %eax,-0xb8(%ebp)
  100681:	8a 85 79 ff ff ff    	mov    -0x87(%ebp),%al
  100687:	88 85 4f ff ff ff    	mov    %al,-0xb1(%ebp)
  10068d:	8a 85 7b ff ff ff    	mov    -0x85(%ebp),%al
  100693:	88 c2                	mov    %al,%dl
  100695:	31 c0                	xor    %eax,%eax
  100697:	8a 8c 85 7c ff ff ff 	mov    -0x84(%ebp,%eax,4),%cl
  10069e:	88 4c 87 04          	mov    %cl,0x4(%edi,%eax,4)
  1006a2:	8a 8c 85 7d ff ff ff 	mov    -0x83(%ebp,%eax,4),%cl
  1006a9:	88 4c 87 05          	mov    %cl,0x5(%edi,%eax,4)
  1006ad:	8a 8c 85 7e ff ff ff 	mov    -0x82(%ebp,%eax,4),%cl
  1006b4:	88 4c 87 06          	mov    %cl,0x6(%edi,%eax,4)
  1006b8:	8a 8c 85 7f ff ff ff 	mov    -0x81(%ebp,%eax,4),%cl
  1006bf:	88 8d 54 ff ff ff    	mov    %cl,-0xac(%ebp)
  1006c5:	88 4c 87 07          	mov    %cl,0x7(%edi,%eax,4)
  1006c9:	40                   	inc    %eax
  1006ca:	83 f8 04             	cmp    $0x4,%eax
  1006cd:	75 c8                	jne    100697 <bench_15pz_run+0x5ff>
  1006cf:	88 95 44 ff ff ff    	mov    %dl,-0xbc(%ebp)
  1006d5:	0f b6 85 4f ff ff ff 	movzbl -0xb1(%ebp),%eax
  1006dc:	89 c2                	mov    %eax,%edx
  1006de:	89 85 3c ff ff ff    	mov    %eax,-0xc4(%ebp)
  1006e4:	89 f0                	mov    %esi,%eax
  1006e6:	0f b6 c8             	movzbl %al,%ecx
  1006e9:	8d 44 95 e8          	lea    -0x18(%ebp,%edx,4),%eax
  1006ed:	0f be 44 01 93       	movsbl -0x6d(%ecx,%eax,1),%eax
  1006f2:	88 85 4e ff ff ff    	mov    %al,-0xb2(%ebp)
  1006f8:	48                   	dec    %eax
  1006f9:	25 03 00 00 80       	and    $0x80000003,%eax
  1006fe:	0f 88 60 04 00 00    	js     100b64 <bench_15pz_run+0xacc>
  100704:	89 c2                	mov    %eax,%edx
  100706:	29 ca                	sub    %ecx,%edx
  100708:	89 95 54 ff ff ff    	mov    %edx,-0xac(%ebp)
  10070e:	0f 88 2a 04 00 00    	js     100b3e <bench_15pz_run+0xaa6>
  100714:	ba 01 00 00 00       	mov    $0x1,%edx
  100719:	29 ca                	sub    %ecx,%edx
  10071b:	01 d0                	add    %edx,%eax
  10071d:	0f 88 30 04 00 00    	js     100b53 <bench_15pz_run+0xabb>
  100723:	8b 95 54 ff ff ff    	mov    -0xac(%ebp),%edx
  100729:	29 c2                	sub    %eax,%edx
  10072b:	8b 85 44 ff ff ff    	mov    -0xbc(%ebp),%eax
  100731:	01 d0                	add    %edx,%eax
  100733:	88 85 54 ff ff ff    	mov    %al,-0xac(%ebp)
  100739:	8b 85 3c ff ff ff    	mov    -0xc4(%ebp),%eax
  10073f:	8d 44 85 e8          	lea    -0x18(%ebp,%eax,4),%eax
  100743:	8a 95 4e ff ff ff    	mov    -0xb2(%ebp),%dl
  100749:	88 54 01 c4          	mov    %dl,-0x3c(%ecx,%eax,1)
  10074d:	8d 56 ff             	lea    -0x1(%esi),%edx
  100750:	88 95 44 ff ff ff    	mov    %dl,-0xbc(%ebp)
  100756:	0f b6 d2             	movzbl %dl,%edx
  100759:	c6 44 10 c4 00       	movb   $0x0,-0x3c(%eax,%edx,1)
  10075e:	89 fe                	mov    %edi,%esi
  100760:	31 c0                	xor    %eax,%eax
  100762:	31 d2                	xor    %edx,%edx
  100764:	8d 0c 00             	lea    (%eax,%eax,1),%ecx
  100767:	01 c1                	add    %eax,%ecx
  100769:	8d 0c 89             	lea    (%ecx,%ecx,4),%ecx
  10076c:	8d 0c 88             	lea    (%eax,%ecx,4),%ecx
  10076f:	01 c9                	add    %ecx,%ecx
  100771:	01 c1                	add    %eax,%ecx
  100773:	8d 0c 88             	lea    (%eax,%ecx,4),%ecx
  100776:	8d 0c 88             	lea    (%eax,%ecx,4),%ecx
  100779:	0f be 44 16 04       	movsbl 0x4(%esi,%edx,1),%eax
  10077e:	01 c8                	add    %ecx,%eax
  100780:	42                   	inc    %edx
  100781:	83 fa 04             	cmp    $0x4,%edx
  100784:	75 de                	jne    100764 <bench_15pz_run+0x6cc>
  100786:	83 c6 04             	add    $0x4,%esi
  100789:	8d 55 b8             	lea    -0x48(%ebp),%edx
  10078c:	39 d6                	cmp    %edx,%esi
  10078e:	75 d2                	jne    100762 <bench_15pz_run+0x6ca>
  100790:	c6 45 90 01          	movb   $0x1,-0x70(%ebp)
  100794:	8a 95 4f ff ff ff    	mov    -0xb1(%ebp),%dl
  10079a:	88 55 91             	mov    %dl,-0x6f(%ebp)
  10079d:	8a 95 44 ff ff ff    	mov    -0xbc(%ebp),%dl
  1007a3:	88 55 92             	mov    %dl,-0x6e(%ebp)
  1007a6:	8a 95 54 ff ff ff    	mov    -0xac(%ebp),%dl
  1007ac:	88 55 93             	mov    %dl,-0x6d(%ebp)
  1007af:	89 45 a4             	mov    %eax,-0x5c(%ebp)
  1007b2:	31 c0                	xor    %eax,%eax
  1007b4:	8a 54 87 04          	mov    0x4(%edi,%eax,4),%dl
  1007b8:	88 54 85 94          	mov    %dl,-0x6c(%ebp,%eax,4)
  1007bc:	8a 54 87 05          	mov    0x5(%edi,%eax,4),%dl
  1007c0:	88 54 85 95          	mov    %dl,-0x6b(%ebp,%eax,4)
  1007c4:	8a 54 87 06          	mov    0x6(%edi,%eax,4),%dl
  1007c8:	88 54 85 96          	mov    %dl,-0x6a(%ebp,%eax,4)
  1007cc:	8a 54 87 07          	mov    0x7(%edi,%eax,4),%dl
  1007d0:	88 54 85 97          	mov    %dl,-0x69(%ebp,%eax,4)
  1007d4:	40                   	inc    %eax
  1007d5:	83 f8 04             	cmp    $0x4,%eax
  1007d8:	75 da                	jne    1007b4 <bench_15pz_run+0x71c>
  1007da:	8b 85 48 ff ff ff    	mov    -0xb8(%ebp),%eax
  1007e0:	89 44 24 08          	mov    %eax,0x8(%esp)
  1007e4:	8d 45 90             	lea    -0x70(%ebp),%eax
  1007e7:	89 44 24 04          	mov    %eax,0x4(%esp)
  1007eb:	89 1c 24             	mov    %ebx,(%esp)
  1007ee:	e8 e9 08 00 00       	call   1010dc <_ZN14Updatable_heapI8N_puzzleILi4EELi65536EE4pushERKS1_i>
  1007f3:	80 bd 78 ff ff ff 00 	cmpb   $0x0,-0x88(%ebp)
  1007fa:	0f 84 23 fe ff ff    	je     100623 <bench_15pz_run+0x58b>
  100800:	8a 85 7a ff ff ff    	mov    -0x86(%ebp),%al
  100806:	88 85 4f ff ff ff    	mov    %al,-0xb1(%ebp)
  10080c:	8a 85 79 ff ff ff    	mov    -0x87(%ebp),%al
  100812:	88 85 48 ff ff ff    	mov    %al,-0xb8(%ebp)
  100818:	3c 03                	cmp    $0x3,%al
  10081a:	0f 85 67 fc ff ff    	jne    100487 <bench_15pz_run+0x3ef>
  100820:	b2 03                	mov    $0x3,%dl
  100822:	89 95 54 ff ff ff    	mov    %edx,-0xac(%ebp)
  100828:	8d 85 78 ff ff ff    	lea    -0x88(%ebp),%eax
  10082e:	89 44 24 04          	mov    %eax,0x4(%esp)
  100832:	89 1c 24             	mov    %ebx,(%esp)
  100835:	e8 52 08 00 00       	call   10108c <_ZNK14Updatable_heapI8N_puzzleILi4EELi65536EE7pointerERKS1_>
  10083a:	85 c0                	test   %eax,%eax
  10083c:	8b 95 54 ff ff ff    	mov    -0xac(%ebp),%edx
  100842:	0f 84 9b 02 00 00    	je     100ae3 <bench_15pz_run+0xa4b>
  100848:	8b 40 20             	mov    0x20(%eax),%eax
  10084b:	40                   	inc    %eax
  10084c:	89 85 48 ff ff ff    	mov    %eax,-0xb8(%ebp)
  100852:	8a 8d 7b ff ff ff    	mov    -0x85(%ebp),%cl
  100858:	31 c0                	xor    %eax,%eax
  10085a:	89 d6                	mov    %edx,%esi
  10085c:	8a 94 85 7c ff ff ff 	mov    -0x84(%ebp,%eax,4),%dl
  100863:	88 54 87 04          	mov    %dl,0x4(%edi,%eax,4)
  100867:	8a 94 85 7d ff ff ff 	mov    -0x83(%ebp,%eax,4),%dl
  10086e:	88 54 87 05          	mov    %dl,0x5(%edi,%eax,4)
  100872:	8a 94 85 7e ff ff ff 	mov    -0x82(%ebp,%eax,4),%dl
  100879:	88 54 87 06          	mov    %dl,0x6(%edi,%eax,4)
  10087d:	8a 94 85 7f ff ff ff 	mov    -0x81(%ebp,%eax,4),%dl
  100884:	88 95 54 ff ff ff    	mov    %dl,-0xac(%ebp)
  10088a:	88 54 87 07          	mov    %dl,0x7(%edi,%eax,4)
  10088e:	40                   	inc    %eax
  10088f:	83 f8 04             	cmp    $0x4,%eax
  100892:	75 c8                	jne    10085c <bench_15pz_run+0x7c4>
  100894:	89 f2                	mov    %esi,%edx
  100896:	0f b6 c2             	movzbl %dl,%eax
  100899:	89 85 54 ff ff ff    	mov    %eax,-0xac(%ebp)
  10089f:	0f b6 b5 4f ff ff ff 	movzbl -0xb1(%ebp),%esi
  1008a6:	89 b5 3c ff ff ff    	mov    %esi,-0xc4(%ebp)
  1008ac:	8d 44 85 e4          	lea    -0x1c(%ebp,%eax,4),%eax
  1008b0:	0f be 44 06 94       	movsbl -0x6c(%esi,%eax,1),%eax
  1008b5:	88 85 4e ff ff ff    	mov    %al,-0xb2(%ebp)
  1008bb:	89 c6                	mov    %eax,%esi
  1008bd:	4e                   	dec    %esi
  1008be:	0f 88 96 02 00 00    	js     100b5a <bench_15pz_run+0xac2>
  1008c4:	89 f0                	mov    %esi,%eax
  1008c6:	c1 f8 02             	sar    $0x2,%eax
  1008c9:	89 c6                	mov    %eax,%esi
  1008cb:	2b b5 54 ff ff ff    	sub    -0xac(%ebp),%esi
  1008d1:	89 b5 44 ff ff ff    	mov    %esi,-0xbc(%ebp)
  1008d7:	0f 88 91 02 00 00    	js     100b6e <bench_15pz_run+0xad6>
  1008dd:	be 01 00 00 00       	mov    $0x1,%esi
  1008e2:	2b b5 54 ff ff ff    	sub    -0xac(%ebp),%esi
  1008e8:	01 f0                	add    %esi,%eax
  1008ea:	0f 88 47 02 00 00    	js     100b37 <bench_15pz_run+0xa9f>
  1008f0:	88 95 4d ff ff ff    	mov    %dl,-0xb3(%ebp)
  1008f6:	8b 95 44 ff ff ff    	mov    -0xbc(%ebp),%edx
  1008fc:	29 c2                	sub    %eax,%edx
  1008fe:	89 d0                	mov    %edx,%eax
  100900:	01 c8                	add    %ecx,%eax
  100902:	88 85 44 ff ff ff    	mov    %al,-0xbc(%ebp)
  100908:	8b 85 54 ff ff ff    	mov    -0xac(%ebp),%eax
  10090e:	8d 44 85 e8          	lea    -0x18(%ebp,%eax,4),%eax
  100912:	8a 8d 4e ff ff ff    	mov    -0xb2(%ebp),%cl
  100918:	8b b5 3c ff ff ff    	mov    -0xc4(%ebp),%esi
  10091e:	88 4c 06 c4          	mov    %cl,-0x3c(%esi,%eax,1)
  100922:	8a 95 4d ff ff ff    	mov    -0xb3(%ebp),%dl
  100928:	8d 42 ff             	lea    -0x1(%edx),%eax
  10092b:	88 85 54 ff ff ff    	mov    %al,-0xac(%ebp)
  100931:	0f b6 c0             	movzbl %al,%eax
  100934:	8d 44 85 e8          	lea    -0x18(%ebp,%eax,4),%eax
  100938:	c6 44 06 c4 00       	movb   $0x0,-0x3c(%esi,%eax,1)
  10093d:	89 fe                	mov    %edi,%esi
  10093f:	31 c0                	xor    %eax,%eax
  100941:	31 d2                	xor    %edx,%edx
  100943:	8d 0c 00             	lea    (%eax,%eax,1),%ecx
  100946:	01 c1                	add    %eax,%ecx
  100948:	8d 0c 89             	lea    (%ecx,%ecx,4),%ecx
  10094b:	8d 0c 88             	lea    (%eax,%ecx,4),%ecx
  10094e:	01 c9                	add    %ecx,%ecx
  100950:	01 c1                	add    %eax,%ecx
  100952:	8d 0c 88             	lea    (%eax,%ecx,4),%ecx
  100955:	8d 0c 88             	lea    (%eax,%ecx,4),%ecx
  100958:	0f be 44 16 04       	movsbl 0x4(%esi,%edx,1),%eax
  10095d:	01 c8                	add    %ecx,%eax
  10095f:	42                   	inc    %edx
  100960:	83 fa 04             	cmp    $0x4,%edx
  100963:	75 de                	jne    100943 <bench_15pz_run+0x8ab>
  100965:	83 c6 04             	add    $0x4,%esi
  100968:	8d 55 b8             	lea    -0x48(%ebp),%edx
  10096b:	39 d6                	cmp    %edx,%esi
  10096d:	75 d2                	jne    100941 <bench_15pz_run+0x8a9>
  10096f:	c6 45 90 01          	movb   $0x1,-0x70(%ebp)
  100973:	8a 95 54 ff ff ff    	mov    -0xac(%ebp),%dl
  100979:	88 55 91             	mov    %dl,-0x6f(%ebp)
  10097c:	8a 95 4f ff ff ff    	mov    -0xb1(%ebp),%dl
  100982:	88 55 92             	mov    %dl,-0x6e(%ebp)
  100985:	8a 95 44 ff ff ff    	mov    -0xbc(%ebp),%dl
  10098b:	88 55 93             	mov    %dl,-0x6d(%ebp)
  10098e:	89 45 a4             	mov    %eax,-0x5c(%ebp)
  100991:	31 c0                	xor    %eax,%eax
  100993:	8a 54 87 04          	mov    0x4(%edi,%eax,4),%dl
  100997:	88 54 85 94          	mov    %dl,-0x6c(%ebp,%eax,4)
  10099b:	8a 54 87 05          	mov    0x5(%edi,%eax,4),%dl
  10099f:	88 54 85 95          	mov    %dl,-0x6b(%ebp,%eax,4)
  1009a3:	8a 54 87 06          	mov    0x6(%edi,%eax,4),%dl
  1009a7:	88 54 85 96          	mov    %dl,-0x6a(%ebp,%eax,4)
  1009ab:	8a 54 87 07          	mov    0x7(%edi,%eax,4),%dl
  1009af:	88 54 85 97          	mov    %dl,-0x69(%ebp,%eax,4)
  1009b3:	40                   	inc    %eax
  1009b4:	83 f8 04             	cmp    $0x4,%eax
  1009b7:	75 da                	jne    100993 <bench_15pz_run+0x8fb>
  1009b9:	8b 85 48 ff ff ff    	mov    -0xb8(%ebp),%eax
  1009bf:	89 44 24 08          	mov    %eax,0x8(%esp)
  1009c3:	8d 45 90             	lea    -0x70(%ebp),%eax
  1009c6:	89 44 24 04          	mov    %eax,0x4(%esp)
  1009ca:	89 1c 24             	mov    %ebx,(%esp)
  1009cd:	e8 0a 07 00 00       	call   1010dc <_ZN14Updatable_heapI8N_puzzleILi4EELi65536EE4pushERKS1_i>
  1009d2:	e9 4c fc ff ff       	jmp    100623 <bench_15pz_run+0x58b>
  1009d7:	8a 85 7a ff ff ff    	mov    -0x86(%ebp),%al
  1009dd:	88 85 4f ff ff ff    	mov    %al,-0xb1(%ebp)
  1009e3:	e9 3a fe ff ff       	jmp    100822 <bench_15pz_run+0x78a>
  1009e8:	c7 85 44 ff ff ff 00 	movl   $0x80000000,-0xbc(%ebp)
  1009ef:	00 00 80 
  1009f2:	e9 b4 fa ff ff       	jmp    1004ab <bench_15pz_run+0x413>
  1009f7:	c7 85 44 ff ff ff 00 	movl   $0x80000000,-0xbc(%ebp)
  1009fe:	00 00 80 
  100a01:	e9 e4 f8 ff ff       	jmp    1002ea <bench_15pz_run+0x252>
  100a06:	c7 44 24 04 80 57 10 	movl   $0x105780,0x4(%esp)
  100a0d:	00 
  100a0e:	8d 7d a8             	lea    -0x58(%ebp),%edi
  100a11:	89 3c 24             	mov    %edi,(%esp)
  100a14:	e8 87 02 00 00       	call   100ca0 <_ZN8N_puzzleILi4EEC1EPi>
  100a19:	8a 55 a8             	mov    -0x58(%ebp),%dl
  100a1c:	88 95 60 ff ff ff    	mov    %dl,-0xa0(%ebp)
  100a22:	8a 45 a9             	mov    -0x57(%ebp),%al
  100a25:	88 85 61 ff ff ff    	mov    %al,-0x9f(%ebp)
  100a2b:	8a 45 aa             	mov    -0x56(%ebp),%al
  100a2e:	88 85 62 ff ff ff    	mov    %al,-0x9e(%ebp)
  100a34:	8a 45 ab             	mov    -0x55(%ebp),%al
  100a37:	88 85 63 ff ff ff    	mov    %al,-0x9d(%ebp)
  100a3d:	8b 45 bc             	mov    -0x44(%ebp),%eax
  100a40:	89 85 74 ff ff ff    	mov    %eax,-0x8c(%ebp)
  100a46:	31 c0                	xor    %eax,%eax
  100a48:	8a 5c 87 04          	mov    0x4(%edi,%eax,4),%bl
  100a4c:	88 9c 85 64 ff ff ff 	mov    %bl,-0x9c(%ebp,%eax,4)
  100a53:	8a 5c 87 05          	mov    0x5(%edi,%eax,4),%bl
  100a57:	88 9c 85 65 ff ff ff 	mov    %bl,-0x9b(%ebp,%eax,4)
  100a5e:	8a 5c 87 06          	mov    0x6(%edi,%eax,4),%bl
  100a62:	88 9c 85 66 ff ff ff 	mov    %bl,-0x9a(%ebp,%eax,4)
  100a69:	8a 5c 87 07          	mov    0x7(%edi,%eax,4),%bl
  100a6d:	88 9c 85 67 ff ff ff 	mov    %bl,-0x99(%ebp,%eax,4)
  100a74:	40                   	inc    %eax
  100a75:	83 f8 04             	cmp    $0x4,%eax
  100a78:	75 ce                	jne    100a48 <bench_15pz_run+0x9b0>
  100a7a:	84 d2                	test   %dl,%dl
  100a7c:	0f 85 bb f6 ff ff    	jne    10013d <bench_15pz_run+0xa5>
  100a82:	c7 44 24 08 25 00 00 	movl   $0x25,0x8(%esp)
  100a89:	00 
  100a8a:	c7 44 24 04 c9 4f 10 	movl   $0x104fc9,0x4(%esp)
  100a91:	00 
  100a92:	c7 04 24 b0 4f 10 00 	movl   $0x104fb0,(%esp)
  100a99:	e8 96 44 00 00       	call   104f34 <printf>
  100a9e:	c7 04 24 01 00 00 00 	movl   $0x1,(%esp)
  100aa5:	e8 82 f5 ff ff       	call   10002c <_halt>
  100aaa:	e9 19 f7 ff ff       	jmp    1001c8 <bench_15pz_run+0x130>
  100aaf:	8d 85 78 ff ff ff    	lea    -0x88(%ebp),%eax
  100ab5:	89 44 24 04          	mov    %eax,0x4(%esp)
  100ab9:	8b 85 40 ff ff ff    	mov    -0xc0(%ebp),%eax
  100abf:	89 04 24             	mov    %eax,(%esp)
  100ac2:	e8 c5 05 00 00       	call   10108c <_ZNK14Updatable_heapI8N_puzzleILi4EELi65536EE7pointerERKS1_>
  100ac7:	85 c0                	test   %eax,%eax
  100ac9:	0f 84 aa 00 00 00    	je     100b79 <bench_15pz_run+0xae1>
  100acf:	8b 40 20             	mov    0x20(%eax),%eax
  100ad2:	0f af 85 50 ff ff ff 	imul   -0xb0(%ebp),%eax
  100ad9:	a3 28 5a 10 00       	mov    %eax,0x105a28
  100ade:	e9 4a fb ff ff       	jmp    10062d <bench_15pz_run+0x595>
  100ae3:	c7 85 48 ff ff ff 00 	movl   $0x80000000,-0xb8(%ebp)
  100aea:	00 00 80 
  100aed:	e9 60 fd ff ff       	jmp    100852 <bench_15pz_run+0x7ba>
  100af2:	c7 85 48 ff ff ff 00 	movl   $0x80000000,-0xb8(%ebp)
  100af9:	00 00 80 
  100afc:	e9 80 fb ff ff       	jmp    100681 <bench_15pz_run+0x5e9>
  100b01:	f7 da                	neg    %edx
  100b03:	e9 30 fa ff ff       	jmp    100538 <bench_15pz_run+0x4a0>
  100b08:	f7 9d 54 ff ff ff    	negl   -0xac(%ebp)
  100b0e:	e9 19 fa ff ff       	jmp    10052c <bench_15pz_run+0x494>
  100b13:	8d 72 02             	lea    0x2(%edx),%esi
  100b16:	e9 fc f9 ff ff       	jmp    100517 <bench_15pz_run+0x47f>
  100b1b:	f7 d9                	neg    %ecx
  100b1d:	e9 60 f8 ff ff       	jmp    100382 <bench_15pz_run+0x2ea>
  100b22:	f7 9d 54 ff ff ff    	negl   -0xac(%ebp)
  100b28:	e9 49 f8 ff ff       	jmp    100376 <bench_15pz_run+0x2de>
  100b2d:	49                   	dec    %ecx
  100b2e:	83 c9 fc             	or     $0xfffffffc,%ecx
  100b31:	41                   	inc    %ecx
  100b32:	e9 2f f8 ff ff       	jmp    100366 <bench_15pz_run+0x2ce>
  100b37:	f7 d8                	neg    %eax
  100b39:	e9 b2 fd ff ff       	jmp    1008f0 <bench_15pz_run+0x858>
  100b3e:	f7 9d 54 ff ff ff    	negl   -0xac(%ebp)
  100b44:	ba 01 00 00 00       	mov    $0x1,%edx
  100b49:	29 ca                	sub    %ecx,%edx
  100b4b:	01 d0                	add    %edx,%eax
  100b4d:	0f 89 d0 fb ff ff    	jns    100723 <bench_15pz_run+0x68b>
  100b53:	f7 d8                	neg    %eax
  100b55:	e9 c9 fb ff ff       	jmp    100723 <bench_15pz_run+0x68b>
  100b5a:	83 c0 02             	add    $0x2,%eax
  100b5d:	89 c6                	mov    %eax,%esi
  100b5f:	e9 60 fd ff ff       	jmp    1008c4 <bench_15pz_run+0x82c>
  100b64:	48                   	dec    %eax
  100b65:	83 c8 fc             	or     $0xfffffffc,%eax
  100b68:	40                   	inc    %eax
  100b69:	e9 96 fb ff ff       	jmp    100704 <bench_15pz_run+0x66c>
  100b6e:	f7 9d 44 ff ff ff    	negl   -0xbc(%ebp)
  100b74:	e9 64 fd ff ff       	jmp    1008dd <bench_15pz_run+0x845>
  100b79:	b8 ff ff ff 7f       	mov    $0x7fffffff,%eax
  100b7e:	e9 4f ff ff ff       	jmp    100ad2 <bench_15pz_run+0xa3a>
  100b83:	90                   	nop

00100b84 <_ZN8N_puzzleILi4EEC1Ev>:
  100b84:	55                   	push   %ebp
  100b85:	89 e5                	mov    %esp,%ebp
  100b87:	57                   	push   %edi
  100b88:	56                   	push   %esi
  100b89:	53                   	push   %ebx
  100b8a:	83 ec 6c             	sub    $0x6c,%esp
  100b8d:	8b 7d 08             	mov    0x8(%ebp),%edi
  100b90:	c6 07 01             	movb   $0x1,(%edi)
  100b93:	c6 47 03 00          	movb   $0x0,0x3(%edi)
  100b97:	31 c0                	xor    %eax,%eax
  100b99:	8d 76 00             	lea    0x0(%esi),%esi
  100b9c:	89 44 85 a8          	mov    %eax,-0x58(%ebp,%eax,4)
  100ba0:	40                   	inc    %eax
  100ba1:	83 f8 10             	cmp    $0x10,%eax
  100ba4:	75 f6                	jne    100b9c <_ZN8N_puzzleILi4EEC1Ev+0x18>
  100ba6:	c7 45 98 10 00 00 00 	movl   $0x10,-0x68(%ebp)
  100bad:	c7 45 a4 00 00 00 00 	movl   $0x0,-0x5c(%ebp)
  100bb4:	8d 47 10             	lea    0x10(%edi),%eax
  100bb7:	89 45 94             	mov    %eax,-0x6c(%ebp)
  100bba:	8b 55 98             	mov    -0x68(%ebp),%edx
  100bbd:	89 d6                	mov    %edx,%esi
  100bbf:	31 db                	xor    %ebx,%ebx
  100bc1:	8b 45 94             	mov    -0x6c(%ebp),%eax
  100bc4:	29 d0                	sub    %edx,%eax
  100bc6:	89 45 a0             	mov    %eax,-0x60(%ebp)
  100bc9:	e8 f2 08 00 00       	call   1014c0 <bench_rand>
  100bce:	99                   	cltd   
  100bcf:	f7 fe                	idiv   %esi
  100bd1:	8b 4c 95 a8          	mov    -0x58(%ebp,%edx,4),%ecx
  100bd5:	8b 45 a0             	mov    -0x60(%ebp),%eax
  100bd8:	88 4c 18 04          	mov    %cl,0x4(%eax,%ebx,1)
  100bdc:	85 c9                	test   %ecx,%ecx
  100bde:	75 6c                	jne    100c4c <_ZN8N_puzzleILi4EEC1Ev+0xc8>
  100be0:	8a 45 a4             	mov    -0x5c(%ebp),%al
  100be3:	88 47 01             	mov    %al,0x1(%edi)
  100be6:	88 5f 02             	mov    %bl,0x2(%edi)
  100be9:	8b 44 b5 a4          	mov    -0x5c(%ebp,%esi,4),%eax
  100bed:	89 44 95 a8          	mov    %eax,-0x58(%ebp,%edx,4)
  100bf1:	43                   	inc    %ebx
  100bf2:	4e                   	dec    %esi
  100bf3:	83 fb 04             	cmp    $0x4,%ebx
  100bf6:	75 d1                	jne    100bc9 <_ZN8N_puzzleILi4EEC1Ev+0x45>
  100bf8:	ff 45 a4             	incl   -0x5c(%ebp)
  100bfb:	83 6d 98 04          	subl   $0x4,-0x68(%ebp)
  100bff:	83 7d a4 04          	cmpl   $0x4,-0x5c(%ebp)
  100c03:	75 b5                	jne    100bba <_ZN8N_puzzleILi4EEC1Ev+0x36>
  100c05:	c7 47 14 00 00 00 00 	movl   $0x0,0x14(%edi)
  100c0c:	31 f6                	xor    %esi,%esi
  100c0e:	31 c0                	xor    %eax,%eax
  100c10:	31 d2                	xor    %edx,%edx
  100c12:	8d 1c 37             	lea    (%edi,%esi,1),%ebx
  100c15:	8d 0c 00             	lea    (%eax,%eax,1),%ecx
  100c18:	01 c1                	add    %eax,%ecx
  100c1a:	8d 0c 89             	lea    (%ecx,%ecx,4),%ecx
  100c1d:	8d 0c 88             	lea    (%eax,%ecx,4),%ecx
  100c20:	01 c9                	add    %ecx,%ecx
  100c22:	01 c1                	add    %eax,%ecx
  100c24:	8d 0c 88             	lea    (%eax,%ecx,4),%ecx
  100c27:	8d 0c 88             	lea    (%eax,%ecx,4),%ecx
  100c2a:	0f be 44 13 04       	movsbl 0x4(%ebx,%edx,1),%eax
  100c2f:	01 c8                	add    %ecx,%eax
  100c31:	42                   	inc    %edx
  100c32:	83 fa 04             	cmp    $0x4,%edx
  100c35:	75 de                	jne    100c15 <_ZN8N_puzzleILi4EEC1Ev+0x91>
  100c37:	83 c6 04             	add    $0x4,%esi
  100c3a:	83 fe 10             	cmp    $0x10,%esi
  100c3d:	75 d1                	jne    100c10 <_ZN8N_puzzleILi4EEC1Ev+0x8c>
  100c3f:	89 47 14             	mov    %eax,0x14(%edi)
  100c42:	83 c4 6c             	add    $0x6c,%esp
  100c45:	5b                   	pop    %ebx
  100c46:	5e                   	pop    %esi
  100c47:	5f                   	pop    %edi
  100c48:	5d                   	pop    %ebp
  100c49:	c3                   	ret    
  100c4a:	66 90                	xchg   %ax,%ax
  100c4c:	8d 41 ff             	lea    -0x1(%ecx),%eax
  100c4f:	89 45 9c             	mov    %eax,-0x64(%ebp)
  100c52:	85 c0                	test   %eax,%eax
  100c54:	78 22                	js     100c78 <_ZN8N_puzzleILi4EEC1Ev+0xf4>
  100c56:	8b 4d 9c             	mov    -0x64(%ebp),%ecx
  100c59:	c1 f9 02             	sar    $0x2,%ecx
  100c5c:	2b 4d a4             	sub    -0x5c(%ebp),%ecx
  100c5f:	78 28                	js     100c89 <_ZN8N_puzzleILi4EEC1Ev+0x105>
  100c61:	25 03 00 00 80       	and    $0x80000003,%eax
  100c66:	78 2a                	js     100c92 <_ZN8N_puzzleILi4EEC1Ev+0x10e>
  100c68:	29 d8                	sub    %ebx,%eax
  100c6a:	78 2f                	js     100c9b <_ZN8N_puzzleILi4EEC1Ev+0x117>
  100c6c:	01 c8                	add    %ecx,%eax
  100c6e:	00 47 03             	add    %al,0x3(%edi)
  100c71:	e9 73 ff ff ff       	jmp    100be9 <_ZN8N_puzzleILi4EEC1Ev+0x65>
  100c76:	66 90                	xchg   %ax,%ax
  100c78:	83 c1 02             	add    $0x2,%ecx
  100c7b:	89 4d 9c             	mov    %ecx,-0x64(%ebp)
  100c7e:	8b 4d 9c             	mov    -0x64(%ebp),%ecx
  100c81:	c1 f9 02             	sar    $0x2,%ecx
  100c84:	2b 4d a4             	sub    -0x5c(%ebp),%ecx
  100c87:	79 d8                	jns    100c61 <_ZN8N_puzzleILi4EEC1Ev+0xdd>
  100c89:	f7 d9                	neg    %ecx
  100c8b:	25 03 00 00 80       	and    $0x80000003,%eax
  100c90:	79 d6                	jns    100c68 <_ZN8N_puzzleILi4EEC1Ev+0xe4>
  100c92:	48                   	dec    %eax
  100c93:	83 c8 fc             	or     $0xfffffffc,%eax
  100c96:	40                   	inc    %eax
  100c97:	29 d8                	sub    %ebx,%eax
  100c99:	79 d1                	jns    100c6c <_ZN8N_puzzleILi4EEC1Ev+0xe8>
  100c9b:	f7 d8                	neg    %eax
  100c9d:	eb cd                	jmp    100c6c <_ZN8N_puzzleILi4EEC1Ev+0xe8>
  100c9f:	90                   	nop

00100ca0 <_ZN8N_puzzleILi4EEC1EPi>:
  100ca0:	55                   	push   %ebp
  100ca1:	89 e5                	mov    %esp,%ebp
  100ca3:	57                   	push   %edi
  100ca4:	56                   	push   %esi
  100ca5:	53                   	push   %ebx
  100ca6:	83 ec 18             	sub    $0x18,%esp
  100ca9:	8b 5d 08             	mov    0x8(%ebp),%ebx
  100cac:	c6 03 01             	movb   $0x1,(%ebx)
  100caf:	c6 43 03 00          	movb   $0x0,0x3(%ebx)
  100cb3:	8d 45 e4             	lea    -0x1c(%ebp),%eax
  100cb6:	66 90                	xchg   %ax,%ax
  100cb8:	c6 00 00             	movb   $0x0,(%eax)
  100cbb:	40                   	inc    %eax
  100cbc:	8d 75 f4             	lea    -0xc(%ebp),%esi
  100cbf:	39 f0                	cmp    %esi,%eax
  100cc1:	75 f5                	jne    100cb8 <_ZN8N_puzzleILi4EEC1EPi+0x18>
  100cc3:	8b 45 0c             	mov    0xc(%ebp),%eax
  100cc6:	89 45 dc             	mov    %eax,-0x24(%ebp)
  100cc9:	89 de                	mov    %ebx,%esi
  100ccb:	c7 45 e0 00 00 00 00 	movl   $0x0,-0x20(%ebp)
  100cd2:	8b 55 dc             	mov    -0x24(%ebp),%edx
  100cd5:	31 c0                	xor    %eax,%eax
  100cd7:	8b 0a                	mov    (%edx),%ecx
  100cd9:	88 4c 06 04          	mov    %cl,0x4(%esi,%eax,1)
  100cdd:	8b 0a                	mov    (%edx),%ecx
  100cdf:	c6 44 0d e4 01       	movb   $0x1,-0x1c(%ebp,%ecx,1)
  100ce4:	85 c9                	test   %ecx,%ecx
  100ce6:	0f 85 80 00 00 00    	jne    100d6c <_ZN8N_puzzleILi4EEC1EPi+0xcc>
  100cec:	8a 4d e0             	mov    -0x20(%ebp),%cl
  100cef:	88 4b 01             	mov    %cl,0x1(%ebx)
  100cf2:	88 43 02             	mov    %al,0x2(%ebx)
  100cf5:	40                   	inc    %eax
  100cf6:	83 c2 04             	add    $0x4,%edx
  100cf9:	83 f8 04             	cmp    $0x4,%eax
  100cfc:	75 d9                	jne    100cd7 <_ZN8N_puzzleILi4EEC1EPi+0x37>
  100cfe:	ff 45 e0             	incl   -0x20(%ebp)
  100d01:	83 45 dc 10          	addl   $0x10,-0x24(%ebp)
  100d05:	83 c6 04             	add    $0x4,%esi
  100d08:	83 7d e0 04          	cmpl   $0x4,-0x20(%ebp)
  100d0c:	75 c4                	jne    100cd2 <_ZN8N_puzzleILi4EEC1EPi+0x32>
  100d0e:	8d 45 e4             	lea    -0x1c(%ebp),%eax
  100d11:	8d 76 00             	lea    0x0(%esi),%esi
  100d14:	80 38 00             	cmpb   $0x0,(%eax)
  100d17:	0f 84 9f 00 00 00    	je     100dbc <_ZN8N_puzzleILi4EEC1EPi+0x11c>
  100d1d:	40                   	inc    %eax
  100d1e:	8d 75 f4             	lea    -0xc(%ebp),%esi
  100d21:	39 c6                	cmp    %eax,%esi
  100d23:	75 ef                	jne    100d14 <_ZN8N_puzzleILi4EEC1EPi+0x74>
  100d25:	c7 43 14 00 00 00 00 	movl   $0x0,0x14(%ebx)
  100d2c:	31 ff                	xor    %edi,%edi
  100d2e:	31 c0                	xor    %eax,%eax
  100d30:	31 d2                	xor    %edx,%edx
  100d32:	8d 34 3b             	lea    (%ebx,%edi,1),%esi
  100d35:	8d 0c 00             	lea    (%eax,%eax,1),%ecx
  100d38:	01 c1                	add    %eax,%ecx
  100d3a:	8d 0c 89             	lea    (%ecx,%ecx,4),%ecx
  100d3d:	8d 0c 88             	lea    (%eax,%ecx,4),%ecx
  100d40:	01 c9                	add    %ecx,%ecx
  100d42:	01 c1                	add    %eax,%ecx
  100d44:	8d 0c 88             	lea    (%eax,%ecx,4),%ecx
  100d47:	8d 0c 88             	lea    (%eax,%ecx,4),%ecx
  100d4a:	0f be 44 16 04       	movsbl 0x4(%esi,%edx,1),%eax
  100d4f:	01 c8                	add    %ecx,%eax
  100d51:	42                   	inc    %edx
  100d52:	83 fa 04             	cmp    $0x4,%edx
  100d55:	75 de                	jne    100d35 <_ZN8N_puzzleILi4EEC1EPi+0x95>
  100d57:	83 c7 04             	add    $0x4,%edi
  100d5a:	83 ff 10             	cmp    $0x10,%edi
  100d5d:	75 d1                	jne    100d30 <_ZN8N_puzzleILi4EEC1EPi+0x90>
  100d5f:	89 43 14             	mov    %eax,0x14(%ebx)
  100d62:	83 c4 18             	add    $0x18,%esp
  100d65:	5b                   	pop    %ebx
  100d66:	5e                   	pop    %esi
  100d67:	5f                   	pop    %edi
  100d68:	5d                   	pop    %ebp
  100d69:	c3                   	ret    
  100d6a:	66 90                	xchg   %ax,%ax
  100d6c:	89 cf                	mov    %ecx,%edi
  100d6e:	4f                   	dec    %edi
  100d6f:	78 2b                	js     100d9c <_ZN8N_puzzleILi4EEC1EPi+0xfc>
  100d71:	c1 ff 02             	sar    $0x2,%edi
  100d74:	2b 7d e0             	sub    -0x20(%ebp),%edi
  100d77:	89 f9                	mov    %edi,%ecx
  100d79:	78 2e                	js     100da9 <_ZN8N_puzzleILi4EEC1EPi+0x109>
  100d7b:	02 4b 03             	add    0x3(%ebx),%cl
  100d7e:	89 cf                	mov    %ecx,%edi
  100d80:	88 4b 03             	mov    %cl,0x3(%ebx)
  100d83:	8b 0a                	mov    (%edx),%ecx
  100d85:	49                   	dec    %ecx
  100d86:	81 e1 03 00 00 80    	and    $0x80000003,%ecx
  100d8c:	78 26                	js     100db4 <_ZN8N_puzzleILi4EEC1EPi+0x114>
  100d8e:	29 c1                	sub    %eax,%ecx
  100d90:	78 1e                	js     100db0 <_ZN8N_puzzleILi4EEC1EPi+0x110>
  100d92:	01 f9                	add    %edi,%ecx
  100d94:	88 4b 03             	mov    %cl,0x3(%ebx)
  100d97:	e9 59 ff ff ff       	jmp    100cf5 <_ZN8N_puzzleILi4EEC1EPi+0x55>
  100d9c:	8d 79 02             	lea    0x2(%ecx),%edi
  100d9f:	c1 ff 02             	sar    $0x2,%edi
  100da2:	2b 7d e0             	sub    -0x20(%ebp),%edi
  100da5:	89 f9                	mov    %edi,%ecx
  100da7:	79 d2                	jns    100d7b <_ZN8N_puzzleILi4EEC1EPi+0xdb>
  100da9:	f7 d9                	neg    %ecx
  100dab:	eb ce                	jmp    100d7b <_ZN8N_puzzleILi4EEC1EPi+0xdb>
  100dad:	8d 76 00             	lea    0x0(%esi),%esi
  100db0:	f7 d9                	neg    %ecx
  100db2:	eb de                	jmp    100d92 <_ZN8N_puzzleILi4EEC1EPi+0xf2>
  100db4:	49                   	dec    %ecx
  100db5:	83 c9 fc             	or     $0xfffffffc,%ecx
  100db8:	41                   	inc    %ecx
  100db9:	eb d3                	jmp    100d8e <_ZN8N_puzzleILi4EEC1EPi+0xee>
  100dbb:	90                   	nop
  100dbc:	c6 03 00             	movb   $0x0,(%ebx)
  100dbf:	83 c4 18             	add    $0x18,%esp
  100dc2:	5b                   	pop    %ebx
  100dc3:	5e                   	pop    %esi
  100dc4:	5f                   	pop    %edi
  100dc5:	5d                   	pop    %ebp
  100dc6:	c3                   	ret    
  100dc7:	90                   	nop

00100dc8 <_ZN14Updatable_heapI8N_puzzleILi4EELi65536EE3popEv>:
  100dc8:	55                   	push   %ebp
  100dc9:	89 e5                	mov    %esp,%ebp
  100dcb:	57                   	push   %edi
  100dcc:	56                   	push   %esi
  100dcd:	53                   	push   %ebx
  100dce:	83 ec 5c             	sub    $0x5c,%esp
  100dd1:	8b 75 0c             	mov    0xc(%ebp),%esi
  100dd4:	8b 86 04 00 08 00    	mov    0x80004(%esi),%eax
  100dda:	85 c0                	test   %eax,%eax
  100ddc:	0f 84 e2 01 00 00    	je     100fc4 <_ZN14Updatable_heapI8N_puzzleILi4EELi65536EE3popEv+0x1fc>
  100de2:	8b 8e 04 00 04 00    	mov    0x40004(%esi),%ecx
  100de8:	8a 19                	mov    (%ecx),%bl
  100dea:	88 5d b7             	mov    %bl,-0x49(%ebp)
  100ded:	8a 59 01             	mov    0x1(%ecx),%bl
  100df0:	88 5d b6             	mov    %bl,-0x4a(%ebp)
  100df3:	8a 59 02             	mov    0x2(%ecx),%bl
  100df6:	88 5d b5             	mov    %bl,-0x4b(%ebp)
  100df9:	8a 59 03             	mov    0x3(%ecx),%bl
  100dfc:	88 5d b4             	mov    %bl,-0x4c(%ebp)
  100dff:	8b 79 14             	mov    0x14(%ecx),%edi
  100e02:	89 7d b0             	mov    %edi,-0x50(%ebp)
  100e05:	8d 55 d4             	lea    -0x2c(%ebp),%edx
  100e08:	8a 59 04             	mov    0x4(%ecx),%bl
  100e0b:	88 1a                	mov    %bl,(%edx)
  100e0d:	8a 59 05             	mov    0x5(%ecx),%bl
  100e10:	88 5a 01             	mov    %bl,0x1(%edx)
  100e13:	8a 59 06             	mov    0x6(%ecx),%bl
  100e16:	88 5a 02             	mov    %bl,0x2(%edx)
  100e19:	8a 59 07             	mov    0x7(%ecx),%bl
  100e1c:	88 5a 03             	mov    %bl,0x3(%edx)
  100e1f:	83 c1 04             	add    $0x4,%ecx
  100e22:	83 c2 04             	add    $0x4,%edx
  100e25:	8d 7d e4             	lea    -0x1c(%ebp),%edi
  100e28:	39 fa                	cmp    %edi,%edx
  100e2a:	75 dc                	jne    100e08 <_ZN14Updatable_heapI8N_puzzleILi4EELi65536EE3popEv+0x40>
  100e2c:	83 f8 01             	cmp    $0x1,%eax
  100e2f:	0f 84 e3 00 00 00    	je     100f18 <_ZN14Updatable_heapI8N_puzzleILi4EELi65536EE3popEv+0x150>
  100e35:	0f 8e a1 01 00 00    	jle    100fdc <_ZN14Updatable_heapI8N_puzzleILi4EELi65536EE3popEv+0x214>
  100e3b:	8b 94 86 00 00 04 00 	mov    0x40000(%esi,%eax,4),%edx
  100e42:	89 96 04 00 04 00    	mov    %edx,0x40004(%esi)
  100e48:	c7 42 1c 01 00 00 00 	movl   $0x1,0x1c(%edx)
  100e4f:	48                   	dec    %eax
  100e50:	89 86 04 00 08 00    	mov    %eax,0x80004(%esi)
  100e56:	bf 01 00 00 00       	mov    $0x1,%edi
  100e5b:	89 75 0c             	mov    %esi,0xc(%ebp)
  100e5e:	89 fe                	mov    %edi,%esi
  100e60:	8b 7d 0c             	mov    0xc(%ebp),%edi
  100e63:	eb 42                	jmp    100ea7 <_ZN14Updatable_heapI8N_puzzleILi4EELi65536EE3popEv+0xdf>
  100e65:	8d 76 00             	lea    0x0(%esi),%esi
  100e68:	8d 4a 01             	lea    0x1(%edx),%ecx
  100e6b:	8b 84 97 04 00 04 00 	mov    0x40004(%edi,%edx,4),%eax
  100e72:	8b 55 bc             	mov    -0x44(%ebp),%edx
  100e75:	3b 50 24             	cmp    0x24(%eax),%edx
  100e78:	0f 8c a4 00 00 00    	jl     100f22 <_ZN14Updatable_heapI8N_puzzleILi4EELi65536EE3popEv+0x15a>
  100e7e:	8d 14 8f             	lea    (%edi,%ecx,4),%edx
  100e81:	8b 5d c4             	mov    -0x3c(%ebp),%ebx
  100e84:	89 9a 00 00 04 00    	mov    %ebx,0x40000(%edx)
  100e8a:	8b 5d c0             	mov    -0x40(%ebp),%ebx
  100e8d:	89 83 00 00 04 00    	mov    %eax,0x40000(%ebx)
  100e93:	89 70 1c             	mov    %esi,0x1c(%eax)
  100e96:	8b 82 00 00 04 00    	mov    0x40000(%edx),%eax
  100e9c:	89 48 1c             	mov    %ecx,0x1c(%eax)
  100e9f:	89 ce                	mov    %ecx,%esi
  100ea1:	8b 87 04 00 08 00    	mov    0x80004(%edi),%eax
  100ea7:	8d 14 36             	lea    (%esi,%esi,1),%edx
  100eaa:	39 d0                	cmp    %edx,%eax
  100eac:	0f 8e c6 00 00 00    	jle    100f78 <_ZN14Updatable_heapI8N_puzzleILi4EELi65536EE3popEv+0x1b0>
  100eb2:	8d 04 b7             	lea    (%edi,%esi,4),%eax
  100eb5:	89 45 c0             	mov    %eax,-0x40(%ebp)
  100eb8:	8b 80 00 00 04 00    	mov    0x40000(%eax),%eax
  100ebe:	89 45 c4             	mov    %eax,-0x3c(%ebp)
  100ec1:	8b 40 24             	mov    0x24(%eax),%eax
  100ec4:	89 45 bc             	mov    %eax,-0x44(%ebp)
  100ec7:	8d 0c 97             	lea    (%edi,%edx,4),%ecx
  100eca:	89 4d b8             	mov    %ecx,-0x48(%ebp)
  100ecd:	8b 89 00 00 04 00    	mov    0x40000(%ecx),%ecx
  100ed3:	8b 59 24             	mov    0x24(%ecx),%ebx
  100ed6:	39 d8                	cmp    %ebx,%eax
  100ed8:	7c 8e                	jl     100e68 <_ZN14Updatable_heapI8N_puzzleILi4EELi65536EE3popEv+0xa0>
  100eda:	8d 42 01             	lea    0x1(%edx),%eax
  100edd:	89 45 bc             	mov    %eax,-0x44(%ebp)
  100ee0:	8b 84 97 04 00 04 00 	mov    0x40004(%edi,%edx,4),%eax
  100ee7:	3b 58 24             	cmp    0x24(%eax),%ebx
  100eea:	0f 8d 20 01 00 00    	jge    101010 <_ZN14Updatable_heapI8N_puzzleILi4EELi65536EE3popEv+0x248>
  100ef0:	8b 45 c4             	mov    -0x3c(%ebp),%eax
  100ef3:	8b 5d b8             	mov    -0x48(%ebp),%ebx
  100ef6:	89 83 00 00 04 00    	mov    %eax,0x40000(%ebx)
  100efc:	8b 45 c0             	mov    -0x40(%ebp),%eax
  100eff:	89 88 00 00 04 00    	mov    %ecx,0x40000(%eax)
  100f05:	89 71 1c             	mov    %esi,0x1c(%ecx)
  100f08:	8b 83 00 00 04 00    	mov    0x40000(%ebx),%eax
  100f0e:	89 50 1c             	mov    %edx,0x1c(%eax)
  100f11:	89 d6                	mov    %edx,%esi
  100f13:	eb 8c                	jmp    100ea1 <_ZN14Updatable_heapI8N_puzzleILi4EELi65536EE3popEv+0xd9>
  100f15:	8d 76 00             	lea    0x0(%esi),%esi
  100f18:	c7 86 04 00 08 00 00 	movl   $0x0,0x80004(%esi)
  100f1f:	00 00 00 
  100f22:	8b 7d 08             	mov    0x8(%ebp),%edi
  100f25:	8a 45 b7             	mov    -0x49(%ebp),%al
  100f28:	88 07                	mov    %al,(%edi)
  100f2a:	8a 45 b6             	mov    -0x4a(%ebp),%al
  100f2d:	88 47 01             	mov    %al,0x1(%edi)
  100f30:	8a 45 b5             	mov    -0x4b(%ebp),%al
  100f33:	88 47 02             	mov    %al,0x2(%edi)
  100f36:	8a 45 b4             	mov    -0x4c(%ebp),%al
  100f39:	88 47 03             	mov    %al,0x3(%edi)
  100f3c:	8b 75 b0             	mov    -0x50(%ebp),%esi
  100f3f:	89 77 14             	mov    %esi,0x14(%edi)
  100f42:	89 fa                	mov    %edi,%edx
  100f44:	8d 45 d4             	lea    -0x2c(%ebp),%eax
  100f47:	8a 18                	mov    (%eax),%bl
  100f49:	88 5a 04             	mov    %bl,0x4(%edx)
  100f4c:	8a 58 01             	mov    0x1(%eax),%bl
  100f4f:	88 5a 05             	mov    %bl,0x5(%edx)
  100f52:	8a 58 02             	mov    0x2(%eax),%bl
  100f55:	88 5a 06             	mov    %bl,0x6(%edx)
  100f58:	8a 48 03             	mov    0x3(%eax),%cl
  100f5b:	88 4a 07             	mov    %cl,0x7(%edx)
  100f5e:	83 c0 04             	add    $0x4,%eax
  100f61:	83 c2 04             	add    $0x4,%edx
  100f64:	8d 75 e4             	lea    -0x1c(%ebp),%esi
  100f67:	39 f0                	cmp    %esi,%eax
  100f69:	75 dc                	jne    100f47 <_ZN14Updatable_heapI8N_puzzleILi4EELi65536EE3popEv+0x17f>
  100f6b:	8b 45 08             	mov    0x8(%ebp),%eax
  100f6e:	83 c4 5c             	add    $0x5c,%esp
  100f71:	5b                   	pop    %ebx
  100f72:	5e                   	pop    %esi
  100f73:	5f                   	pop    %edi
  100f74:	5d                   	pop    %ebp
  100f75:	c2 04 00             	ret    $0x4
  100f78:	89 7d 0c             	mov    %edi,0xc(%ebp)
  100f7b:	89 f7                	mov    %esi,%edi
  100f7d:	8b 75 0c             	mov    0xc(%ebp),%esi
  100f80:	39 c2                	cmp    %eax,%edx
  100f82:	75 9e                	jne    100f22 <_ZN14Updatable_heapI8N_puzzleILi4EELi65536EE3popEv+0x15a>
  100f84:	8d 0c 86             	lea    (%esi,%eax,4),%ecx
  100f87:	89 4d c4             	mov    %ecx,-0x3c(%ebp)
  100f8a:	8b 99 00 00 04 00    	mov    0x40000(%ecx),%ebx
  100f90:	8d 14 be             	lea    (%esi,%edi,4),%edx
  100f93:	8b 8a 00 00 04 00    	mov    0x40000(%edx),%ecx
  100f99:	8b 71 24             	mov    0x24(%ecx),%esi
  100f9c:	39 73 24             	cmp    %esi,0x24(%ebx)
  100f9f:	7d 81                	jge    100f22 <_ZN14Updatable_heapI8N_puzzleILi4EELi65536EE3popEv+0x15a>
  100fa1:	8b 75 c4             	mov    -0x3c(%ebp),%esi
  100fa4:	89 8e 00 00 04 00    	mov    %ecx,0x40000(%esi)
  100faa:	89 9a 00 00 04 00    	mov    %ebx,0x40000(%edx)
  100fb0:	89 7b 1c             	mov    %edi,0x1c(%ebx)
  100fb3:	8b 96 00 00 04 00    	mov    0x40000(%esi),%edx
  100fb9:	89 42 1c             	mov    %eax,0x1c(%edx)
  100fbc:	e9 61 ff ff ff       	jmp    100f22 <_ZN14Updatable_heapI8N_puzzleILi4EELi65536EE3popEv+0x15a>
  100fc1:	8d 76 00             	lea    0x0(%esi),%esi
  100fc4:	8b 45 08             	mov    0x8(%ebp),%eax
  100fc7:	89 04 24             	mov    %eax,(%esp)
  100fca:	e8 b5 fb ff ff       	call   100b84 <_ZN8N_puzzleILi4EEC1Ev>
  100fcf:	8b 45 08             	mov    0x8(%ebp),%eax
  100fd2:	83 c4 5c             	add    $0x5c,%esp
  100fd5:	5b                   	pop    %ebx
  100fd6:	5e                   	pop    %esi
  100fd7:	5f                   	pop    %edi
  100fd8:	5d                   	pop    %ebp
  100fd9:	c2 04 00             	ret    $0x4
  100fdc:	c7 44 24 08 51 00 00 	movl   $0x51,0x8(%esp)
  100fe3:	00 
  100fe4:	c7 44 24 04 a0 4f 10 	movl   $0x104fa0,0x4(%esp)
  100feb:	00 
  100fec:	c7 04 24 b0 4f 10 00 	movl   $0x104fb0,(%esp)
  100ff3:	e8 3c 3f 00 00       	call   104f34 <printf>
  100ff8:	c7 04 24 01 00 00 00 	movl   $0x1,(%esp)
  100fff:	e8 28 f0 ff ff       	call   10002c <_halt>
  101004:	8b 86 04 00 08 00    	mov    0x80004(%esi),%eax
  10100a:	e9 2c fe ff ff       	jmp    100e3b <_ZN14Updatable_heapI8N_puzzleILi4EELi65536EE3popEv+0x73>
  10100f:	90                   	nop
  101010:	8b 4d bc             	mov    -0x44(%ebp),%ecx
  101013:	e9 66 fe ff ff       	jmp    100e7e <_ZN14Updatable_heapI8N_puzzleILi4EELi65536EE3popEv+0xb6>

00101018 <_ZNK8N_puzzleILi4EEeqERKS0_>:
  101018:	55                   	push   %ebp
  101019:	89 e5                	mov    %esp,%ebp
  10101b:	57                   	push   %edi
  10101c:	56                   	push   %esi
  10101d:	53                   	push   %ebx
  10101e:	83 ec 01             	sub    $0x1,%esp
  101021:	8b 7d 08             	mov    0x8(%ebp),%edi
  101024:	8a 07                	mov    (%edi),%al
  101026:	84 c0                	test   %al,%al
  101028:	74 09                	je     101033 <_ZNK8N_puzzleILi4EEeqERKS0_+0x1b>
  10102a:	8b 45 0c             	mov    0xc(%ebp),%eax
  10102d:	8a 00                	mov    (%eax),%al
  10102f:	84 c0                	test   %al,%al
  101031:	75 09                	jne    10103c <_ZNK8N_puzzleILi4EEeqERKS0_+0x24>
  101033:	83 c4 01             	add    $0x1,%esp
  101036:	5b                   	pop    %ebx
  101037:	5e                   	pop    %esi
  101038:	5f                   	pop    %edi
  101039:	5d                   	pop    %ebp
  10103a:	c3                   	ret    
  10103b:	90                   	nop
  10103c:	8b 5d 0c             	mov    0xc(%ebp),%ebx
  10103f:	8b 73 14             	mov    0x14(%ebx),%esi
  101042:	39 77 14             	cmp    %esi,0x14(%edi)
  101045:	74 0a                	je     101051 <_ZNK8N_puzzleILi4EEeqERKS0_+0x39>
  101047:	31 c0                	xor    %eax,%eax
  101049:	83 c4 01             	add    $0x1,%esp
  10104c:	5b                   	pop    %ebx
  10104d:	5e                   	pop    %esi
  10104e:	5f                   	pop    %edi
  10104f:	5d                   	pop    %ebp
  101050:	c3                   	ret    
  101051:	31 c9                	xor    %ecx,%ecx
  101053:	88 45 f3             	mov    %al,-0xd(%ebp)
  101056:	89 d8                	mov    %ebx,%eax
  101058:	31 d2                	xor    %edx,%edx
  10105a:	8d 34 0f             	lea    (%edi,%ecx,1),%esi
  10105d:	8d 1c 08             	lea    (%eax,%ecx,1),%ebx
  101060:	89 45 0c             	mov    %eax,0xc(%ebp)
  101063:	8a 44 1a 04          	mov    0x4(%edx,%ebx,1),%al
  101067:	38 44 32 04          	cmp    %al,0x4(%edx,%esi,1)
  10106b:	75 da                	jne    101047 <_ZNK8N_puzzleILi4EEeqERKS0_+0x2f>
  10106d:	42                   	inc    %edx
  10106e:	83 fa 04             	cmp    $0x4,%edx
  101071:	75 f0                	jne    101063 <_ZNK8N_puzzleILi4EEeqERKS0_+0x4b>
  101073:	8b 45 0c             	mov    0xc(%ebp),%eax
  101076:	83 c1 04             	add    $0x4,%ecx
  101079:	83 f9 10             	cmp    $0x10,%ecx
  10107c:	75 da                	jne    101058 <_ZNK8N_puzzleILi4EEeqERKS0_+0x40>
  10107e:	8a 45 f3             	mov    -0xd(%ebp),%al
  101081:	83 c4 01             	add    $0x1,%esp
  101084:	5b                   	pop    %ebx
  101085:	5e                   	pop    %esi
  101086:	5f                   	pop    %edi
  101087:	5d                   	pop    %ebp
  101088:	c3                   	ret    
  101089:	66 90                	xchg   %ax,%ax
  10108b:	90                   	nop

0010108c <_ZNK14Updatable_heapI8N_puzzleILi4EELi65536EE7pointerERKS1_>:
  10108c:	55                   	push   %ebp
  10108d:	89 e5                	mov    %esp,%ebp
  10108f:	56                   	push   %esi
  101090:	53                   	push   %ebx
  101091:	83 ec 10             	sub    $0x10,%esp
  101094:	8b 75 0c             	mov    0xc(%ebp),%esi
  101097:	80 3e 00             	cmpb   $0x0,(%esi)
  10109a:	74 3c                	je     1010d8 <_ZNK14Updatable_heapI8N_puzzleILi4EELi65536EE7pointerERKS1_+0x4c>
  10109c:	0f b7 56 14          	movzwl 0x14(%esi),%edx
  1010a0:	8b 45 08             	mov    0x8(%ebp),%eax
  1010a3:	8b 1c 90             	mov    (%eax,%edx,4),%ebx
  1010a6:	85 db                	test   %ebx,%ebx
  1010a8:	75 09                	jne    1010b3 <_ZNK14Updatable_heapI8N_puzzleILi4EELi65536EE7pointerERKS1_+0x27>
  1010aa:	eb 20                	jmp    1010cc <_ZNK14Updatable_heapI8N_puzzleILi4EELi65536EE7pointerERKS1_+0x40>
  1010ac:	8b 5b 18             	mov    0x18(%ebx),%ebx
  1010af:	85 db                	test   %ebx,%ebx
  1010b1:	74 19                	je     1010cc <_ZNK14Updatable_heapI8N_puzzleILi4EELi65536EE7pointerERKS1_+0x40>
  1010b3:	89 74 24 04          	mov    %esi,0x4(%esp)
  1010b7:	89 1c 24             	mov    %ebx,(%esp)
  1010ba:	e8 59 ff ff ff       	call   101018 <_ZNK8N_puzzleILi4EEeqERKS0_>
  1010bf:	84 c0                	test   %al,%al
  1010c1:	74 e9                	je     1010ac <_ZNK14Updatable_heapI8N_puzzleILi4EELi65536EE7pointerERKS1_+0x20>
  1010c3:	89 d8                	mov    %ebx,%eax
  1010c5:	83 c4 10             	add    $0x10,%esp
  1010c8:	5b                   	pop    %ebx
  1010c9:	5e                   	pop    %esi
  1010ca:	5d                   	pop    %ebp
  1010cb:	c3                   	ret    
  1010cc:	31 c0                	xor    %eax,%eax
  1010ce:	83 c4 10             	add    $0x10,%esp
  1010d1:	5b                   	pop    %ebx
  1010d2:	5e                   	pop    %esi
  1010d3:	5d                   	pop    %ebp
  1010d4:	c3                   	ret    
  1010d5:	8d 76 00             	lea    0x0(%esi),%esi
  1010d8:	31 d2                	xor    %edx,%edx
  1010da:	eb c4                	jmp    1010a0 <_ZNK14Updatable_heapI8N_puzzleILi4EELi65536EE7pointerERKS1_+0x14>

001010dc <_ZN14Updatable_heapI8N_puzzleILi4EELi65536EE4pushERKS1_i>:
  1010dc:	55                   	push   %ebp
  1010dd:	89 e5                	mov    %esp,%ebp
  1010df:	57                   	push   %edi
  1010e0:	56                   	push   %esi
  1010e1:	53                   	push   %ebx
  1010e2:	83 ec 2c             	sub    $0x2c,%esp
  1010e5:	8b 5d 08             	mov    0x8(%ebp),%ebx
  1010e8:	8b 75 0c             	mov    0xc(%ebp),%esi
  1010eb:	89 74 24 04          	mov    %esi,0x4(%esp)
  1010ef:	89 1c 24             	mov    %ebx,(%esp)
  1010f2:	e8 95 ff ff ff       	call   10108c <_ZNK14Updatable_heapI8N_puzzleILi4EELi65536EE7pointerERKS1_>
  1010f7:	85 c0                	test   %eax,%eax
  1010f9:	0f 84 95 00 00 00    	je     101194 <_ZN14Updatable_heapI8N_puzzleILi4EELi65536EE4pushERKS1_i+0xb8>
  1010ff:	80 78 28 00          	cmpb   $0x0,0x28(%eax)
  101103:	0f 85 83 00 00 00    	jne    10118c <_ZN14Updatable_heapI8N_puzzleILi4EELi65536EE4pushERKS1_i+0xb0>
  101109:	80 38 00             	cmpb   $0x0,(%eax)
  10110c:	0f 84 00 02 00 00    	je     101312 <_ZN14Updatable_heapI8N_puzzleILi4EELi65536EE4pushERKS1_i+0x236>
  101112:	0f be 50 03          	movsbl 0x3(%eax),%edx
  101116:	03 55 10             	add    0x10(%ebp),%edx
  101119:	3b 50 24             	cmp    0x24(%eax),%edx
  10111c:	7d 6e                	jge    10118c <_ZN14Updatable_heapI8N_puzzleILi4EELi65536EE4pushERKS1_i+0xb0>
  10111e:	89 50 24             	mov    %edx,0x24(%eax)
  101121:	8b 48 1c             	mov    0x1c(%eax),%ecx
  101124:	83 f9 01             	cmp    $0x1,%ecx
  101127:	74 63                	je     10118c <_ZN14Updatable_heapI8N_puzzleILi4EELi65536EE4pushERKS1_i+0xb0>
  101129:	89 c8                	mov    %ecx,%eax
  10112b:	c1 e8 1f             	shr    $0x1f,%eax
  10112e:	01 c8                	add    %ecx,%eax
  101130:	d1 f8                	sar    %eax
  101132:	8b bc 83 00 00 04 00 	mov    0x40000(%ebx,%eax,4),%edi
  101139:	8b b4 8b 00 00 04 00 	mov    0x40000(%ebx,%ecx,4),%esi
  101140:	8b 56 24             	mov    0x24(%esi),%edx
  101143:	39 57 24             	cmp    %edx,0x24(%edi)
  101146:	7f 20                	jg     101168 <_ZN14Updatable_heapI8N_puzzleILi4EELi65536EE4pushERKS1_i+0x8c>
  101148:	eb 42                	jmp    10118c <_ZN14Updatable_heapI8N_puzzleILi4EELi65536EE4pushERKS1_i+0xb0>
  10114a:	66 90                	xchg   %ax,%ax
  10114c:	89 c2                	mov    %eax,%edx
  10114e:	c1 ea 1f             	shr    $0x1f,%edx
  101151:	01 c2                	add    %eax,%edx
  101153:	d1 fa                	sar    %edx
  101155:	8b bc 93 00 00 04 00 	mov    0x40000(%ebx,%edx,4),%edi
  10115c:	8b 4e 24             	mov    0x24(%esi),%ecx
  10115f:	39 4f 24             	cmp    %ecx,0x24(%edi)
  101162:	7e 28                	jle    10118c <_ZN14Updatable_heapI8N_puzzleILi4EELi65536EE4pushERKS1_i+0xb0>
  101164:	89 c1                	mov    %eax,%ecx
  101166:	89 d0                	mov    %edx,%eax
  101168:	8d 14 8b             	lea    (%ebx,%ecx,4),%edx
  10116b:	89 ba 00 00 04 00    	mov    %edi,0x40000(%edx)
  101171:	89 b4 83 00 00 04 00 	mov    %esi,0x40000(%ebx,%eax,4)
  101178:	89 46 1c             	mov    %eax,0x1c(%esi)
  10117b:	8b 92 00 00 04 00    	mov    0x40000(%edx),%edx
  101181:	89 4a 1c             	mov    %ecx,0x1c(%edx)
  101184:	83 f8 01             	cmp    $0x1,%eax
  101187:	75 c3                	jne    10114c <_ZN14Updatable_heapI8N_puzzleILi4EELi65536EE4pushERKS1_i+0x70>
  101189:	8d 76 00             	lea    0x0(%esi),%esi
  10118c:	83 c4 2c             	add    $0x2c,%esp
  10118f:	5b                   	pop    %ebx
  101190:	5e                   	pop    %esi
  101191:	5f                   	pop    %edi
  101192:	5d                   	pop    %ebp
  101193:	c3                   	ret    
  101194:	8b 83 04 00 08 00    	mov    0x80004(%ebx),%eax
  10119a:	3d 00 00 01 00       	cmp    $0x10000,%eax
  10119f:	0f 8f 83 01 00 00    	jg     101328 <_ZN14Updatable_heapI8N_puzzleILi4EELi65536EE4pushERKS1_i+0x24c>
  1011a5:	40                   	inc    %eax
  1011a6:	89 83 04 00 08 00    	mov    %eax,0x80004(%ebx)
  1011ac:	c7 04 24 30 00 00 00 	movl   $0x30,(%esp)
  1011b3:	e8 1c 02 00 00       	call   1013d4 <bench_alloc>
  1011b8:	8b bb 04 00 08 00    	mov    0x80004(%ebx),%edi
  1011be:	89 7d e0             	mov    %edi,-0x20(%ebp)
  1011c1:	8a 0e                	mov    (%esi),%cl
  1011c3:	88 4d e7             	mov    %cl,-0x19(%ebp)
  1011c6:	8b 56 14             	mov    0x14(%esi),%edx
  1011c9:	84 c9                	test   %cl,%cl
  1011cb:	0f 85 2f 01 00 00    	jne    101300 <_ZN14Updatable_heapI8N_puzzleILi4EELi65536EE4pushERKS1_i+0x224>
  1011d1:	31 c9                	xor    %ecx,%ecx
  1011d3:	8b 3c 8b             	mov    (%ebx,%ecx,4),%edi
  1011d6:	89 7d dc             	mov    %edi,-0x24(%ebp)
  1011d9:	8a 4d e7             	mov    -0x19(%ebp),%cl
  1011dc:	88 08                	mov    %cl,(%eax)
  1011de:	8a 4e 01             	mov    0x1(%esi),%cl
  1011e1:	88 48 01             	mov    %cl,0x1(%eax)
  1011e4:	8a 4e 02             	mov    0x2(%esi),%cl
  1011e7:	88 48 02             	mov    %cl,0x2(%eax)
  1011ea:	8a 4e 03             	mov    0x3(%esi),%cl
  1011ed:	88 4d e6             	mov    %cl,-0x1a(%ebp)
  1011f0:	88 48 03             	mov    %cl,0x3(%eax)
  1011f3:	89 50 14             	mov    %edx,0x14(%eax)
  1011f6:	89 f1                	mov    %esi,%ecx
  1011f8:	89 c2                	mov    %eax,%edx
  1011fa:	31 ff                	xor    %edi,%edi
  1011fc:	89 45 d8             	mov    %eax,-0x28(%ebp)
  1011ff:	8a 41 04             	mov    0x4(%ecx),%al
  101202:	88 42 04             	mov    %al,0x4(%edx)
  101205:	8a 41 05             	mov    0x5(%ecx),%al
  101208:	88 42 05             	mov    %al,0x5(%edx)
  10120b:	8a 41 06             	mov    0x6(%ecx),%al
  10120e:	88 42 06             	mov    %al,0x6(%edx)
  101211:	8a 41 07             	mov    0x7(%ecx),%al
  101214:	88 42 07             	mov    %al,0x7(%edx)
  101217:	47                   	inc    %edi
  101218:	83 c1 04             	add    $0x4,%ecx
  10121b:	83 c2 04             	add    $0x4,%edx
  10121e:	83 ff 04             	cmp    $0x4,%edi
  101221:	75 dc                	jne    1011ff <_ZN14Updatable_heapI8N_puzzleILi4EELi65536EE4pushERKS1_i+0x123>
  101223:	8b 45 d8             	mov    -0x28(%ebp),%eax
  101226:	8b 7d dc             	mov    -0x24(%ebp),%edi
  101229:	89 78 18             	mov    %edi,0x18(%eax)
  10122c:	8b 7d e0             	mov    -0x20(%ebp),%edi
  10122f:	89 78 1c             	mov    %edi,0x1c(%eax)
  101232:	8b 7d 10             	mov    0x10(%ebp),%edi
  101235:	89 78 20             	mov    %edi,0x20(%eax)
  101238:	80 7d e7 00          	cmpb   $0x0,-0x19(%ebp)
  10123c:	0f 84 c6 00 00 00    	je     101308 <_ZN14Updatable_heapI8N_puzzleILi4EELi65536EE4pushERKS1_i+0x22c>
  101242:	0f be 55 e6          	movsbl -0x1a(%ebp),%edx
  101246:	03 55 10             	add    0x10(%ebp),%edx
  101249:	89 50 24             	mov    %edx,0x24(%eax)
  10124c:	c6 40 28 00          	movb   $0x0,0x28(%eax)
  101250:	c7 40 2c 00 00 00 00 	movl   $0x0,0x2c(%eax)
  101257:	80 3e 00             	cmpb   $0x0,(%esi)
  10125a:	0f 84 98 00 00 00    	je     1012f8 <_ZN14Updatable_heapI8N_puzzleILi4EELi65536EE4pushERKS1_i+0x21c>
  101260:	0f b7 56 14          	movzwl 0x14(%esi),%edx
  101264:	89 04 93             	mov    %eax,(%ebx,%edx,4)
  101267:	8b b3 04 00 08 00    	mov    0x80004(%ebx),%esi
  10126d:	89 84 b3 00 00 04 00 	mov    %eax,0x40000(%ebx,%esi,4)
  101274:	83 fe 01             	cmp    $0x1,%esi
  101277:	0f 84 de 00 00 00    	je     10135b <_ZN14Updatable_heapI8N_puzzleILi4EELi65536EE4pushERKS1_i+0x27f>
  10127d:	89 f2                	mov    %esi,%edx
  10127f:	c1 ea 1f             	shr    $0x1f,%edx
  101282:	01 f2                	add    %esi,%edx
  101284:	d1 fa                	sar    %edx
  101286:	8b bc 93 00 00 04 00 	mov    0x40000(%ebx,%edx,4),%edi
  10128d:	8b 4f 24             	mov    0x24(%edi),%ecx
  101290:	39 48 24             	cmp    %ecx,0x24(%eax)
  101293:	7c 1f                	jl     1012b4 <_ZN14Updatable_heapI8N_puzzleILi4EELi65536EE4pushERKS1_i+0x1d8>
  101295:	eb 44                	jmp    1012db <_ZN14Updatable_heapI8N_puzzleILi4EELi65536EE4pushERKS1_i+0x1ff>
  101297:	90                   	nop
  101298:	89 d1                	mov    %edx,%ecx
  10129a:	c1 e9 1f             	shr    $0x1f,%ecx
  10129d:	01 d1                	add    %edx,%ecx
  10129f:	d1 f9                	sar    %ecx
  1012a1:	8b bc 8b 00 00 04 00 	mov    0x40000(%ebx,%ecx,4),%edi
  1012a8:	8b 70 24             	mov    0x24(%eax),%esi
  1012ab:	39 77 24             	cmp    %esi,0x24(%edi)
  1012ae:	7e 25                	jle    1012d5 <_ZN14Updatable_heapI8N_puzzleILi4EELi65536EE4pushERKS1_i+0x1f9>
  1012b0:	89 d6                	mov    %edx,%esi
  1012b2:	89 ca                	mov    %ecx,%edx
  1012b4:	8d 0c b3             	lea    (%ebx,%esi,4),%ecx
  1012b7:	89 b9 00 00 04 00    	mov    %edi,0x40000(%ecx)
  1012bd:	89 84 93 00 00 04 00 	mov    %eax,0x40000(%ebx,%edx,4)
  1012c4:	89 50 1c             	mov    %edx,0x1c(%eax)
  1012c7:	8b 89 00 00 04 00    	mov    0x40000(%ecx),%ecx
  1012cd:	89 71 1c             	mov    %esi,0x1c(%ecx)
  1012d0:	83 fa 01             	cmp    $0x1,%edx
  1012d3:	75 c3                	jne    101298 <_ZN14Updatable_heapI8N_puzzleILi4EELi65536EE4pushERKS1_i+0x1bc>
  1012d5:	8b b3 04 00 08 00    	mov    0x80004(%ebx),%esi
  1012db:	8b 83 08 00 08 00    	mov    0x80008(%ebx),%eax
  1012e1:	39 c6                	cmp    %eax,%esi
  1012e3:	7d 02                	jge    1012e7 <_ZN14Updatable_heapI8N_puzzleILi4EELi65536EE4pushERKS1_i+0x20b>
  1012e5:	89 c6                	mov    %eax,%esi
  1012e7:	89 b3 08 00 08 00    	mov    %esi,0x80008(%ebx)
  1012ed:	83 c4 2c             	add    $0x2c,%esp
  1012f0:	5b                   	pop    %ebx
  1012f1:	5e                   	pop    %esi
  1012f2:	5f                   	pop    %edi
  1012f3:	5d                   	pop    %ebp
  1012f4:	c3                   	ret    
  1012f5:	8d 76 00             	lea    0x0(%esi),%esi
  1012f8:	31 d2                	xor    %edx,%edx
  1012fa:	e9 65 ff ff ff       	jmp    101264 <_ZN14Updatable_heapI8N_puzzleILi4EELi65536EE4pushERKS1_i+0x188>
  1012ff:	90                   	nop
  101300:	0f b7 ca             	movzwl %dx,%ecx
  101303:	e9 cb fe ff ff       	jmp    1011d3 <_ZN14Updatable_heapI8N_puzzleILi4EELi65536EE4pushERKS1_i+0xf7>
  101308:	ba 40 00 00 00       	mov    $0x40,%edx
  10130d:	e9 34 ff ff ff       	jmp    101246 <_ZN14Updatable_heapI8N_puzzleILi4EELi65536EE4pushERKS1_i+0x16a>
  101312:	8b 7d 10             	mov    0x10(%ebp),%edi
  101315:	8d 57 40             	lea    0x40(%edi),%edx
  101318:	39 50 24             	cmp    %edx,0x24(%eax)
  10131b:	0f 8f fd fd ff ff    	jg     10111e <_ZN14Updatable_heapI8N_puzzleILi4EELi65536EE4pushERKS1_i+0x42>
  101321:	e9 66 fe ff ff       	jmp    10118c <_ZN14Updatable_heapI8N_puzzleILi4EELi65536EE4pushERKS1_i+0xb0>
  101326:	66 90                	xchg   %ax,%ax
  101328:	c7 44 24 08 93 00 00 	movl   $0x93,0x8(%esp)
  10132f:	00 
  101330:	c7 44 24 04 a0 4f 10 	movl   $0x104fa0,0x4(%esp)
  101337:	00 
  101338:	c7 04 24 b0 4f 10 00 	movl   $0x104fb0,(%esp)
  10133f:	e8 f0 3b 00 00       	call   104f34 <printf>
  101344:	c7 04 24 01 00 00 00 	movl   $0x1,(%esp)
  10134b:	e8 dc ec ff ff       	call   10002c <_halt>
  101350:	8b 83 04 00 08 00    	mov    0x80004(%ebx),%eax
  101356:	e9 4a fe ff ff       	jmp    1011a5 <_ZN14Updatable_heapI8N_puzzleILi4EELi65536EE4pushERKS1_i+0xc9>
  10135b:	be 01 00 00 00       	mov    $0x1,%esi
  101360:	e9 76 ff ff ff       	jmp    1012db <_ZN14Updatable_heapI8N_puzzleILi4EELi65536EE4pushERKS1_i+0x1ff>
  101365:	66 90                	xchg   %ax,%ax
  101367:	90                   	nop

00101368 <run_once>:
  101368:	55                   	push   %ebp
  101369:	89 e5                	mov    %esp,%ebp
  10136b:	53                   	push   %ebx
  10136c:	50                   	push   %eax
  10136d:	8b 5d 0c             	mov    0xc(%ebp),%ebx
  101370:	a1 60 57 10 00       	mov    0x105760,%eax
  101375:	a3 2c 5a 10 00       	mov    %eax,0x105a2c
  10137a:	a1 b4 5a 10 00       	mov    0x105ab4,%eax
  10137f:	ff 10                	call   *(%eax)
  101381:	e8 f2 3b 00 00       	call   104f78 <_uptime>
  101386:	89 43 08             	mov    %eax,0x8(%ebx)
  101389:	a1 b4 5a 10 00       	mov    0x105ab4,%eax
  10138e:	ff 50 04             	call   *0x4(%eax)
  101391:	e8 e2 3b 00 00       	call   104f78 <_uptime>
  101396:	2b 43 08             	sub    0x8(%ebx),%eax
  101399:	89 43 08             	mov    %eax,0x8(%ebx)
  10139c:	a1 b4 5a 10 00       	mov    0x105ab4,%eax
  1013a1:	ff 50 08             	call   *0x8(%eax)
  1013a4:	89 03                	mov    %eax,(%ebx)
  1013a6:	5a                   	pop    %edx
  1013a7:	5b                   	pop    %ebx
  1013a8:	5d                   	pop    %ebp
  1013a9:	c3                   	ret    
  1013aa:	66 90                	xchg   %ax,%ax

001013ac <score>:
  1013ac:	55                   	push   %ebp
  1013ad:	89 e5                	mov    %esp,%ebp
  1013af:	8b 4d 10             	mov    0x10(%ebp),%ecx
  1013b2:	85 c9                	test   %ecx,%ecx
  1013b4:	74 1a                	je     1013d0 <score+0x24>
  1013b6:	a1 b8 5a 10 00       	mov    0x105ab8,%eax
  1013bb:	8b 40 08             	mov    0x8(%eax),%eax
  1013be:	8d 04 80             	lea    (%eax,%eax,4),%eax
  1013c1:	8d 04 80             	lea    (%eax,%eax,4),%eax
  1013c4:	c1 e0 02             	shl    $0x2,%eax
  1013c7:	31 d2                	xor    %edx,%edx
  1013c9:	f7 f1                	div    %ecx
  1013cb:	5d                   	pop    %ebp
  1013cc:	c3                   	ret    
  1013cd:	8d 76 00             	lea    0x0(%esi),%esi
  1013d0:	31 c0                	xor    %eax,%eax
  1013d2:	5d                   	pop    %ebp
  1013d3:	c3                   	ret    

001013d4 <bench_alloc>:
  1013d4:	55                   	push   %ebp
  1013d5:	89 e5                	mov    %esp,%ebp
  1013d7:	53                   	push   %ebx
  1013d8:	83 ec 14             	sub    $0x14,%esp
  1013db:	8b 1d 2c 5a 10 00    	mov    0x105a2c,%ebx
  1013e1:	89 d8                	mov    %ebx,%eax
  1013e3:	83 e0 0f             	and    $0xf,%eax
  1013e6:	74 05                	je     1013ed <bench_alloc+0x19>
  1013e8:	29 c3                	sub    %eax,%ebx
  1013ea:	83 c3 10             	add    $0x10,%ebx
  1013ed:	8b 45 08             	mov    0x8(%ebp),%eax
  1013f0:	01 d8                	add    %ebx,%eax
  1013f2:	a3 2c 5a 10 00       	mov    %eax,0x105a2c
  1013f7:	39 05 60 57 10 00    	cmp    %eax,0x105760
  1013fd:	77 0c                	ja     10140b <bench_alloc+0x37>
  1013ff:	39 05 64 57 10 00    	cmp    %eax,0x105764
  101405:	0f 87 85 00 00 00    	ja     101490 <bench_alloc+0xbc>
  10140b:	c7 44 24 08 79 00 00 	movl   $0x79,0x8(%esp)
  101412:	00 
  101413:	c7 44 24 04 35 50 10 	movl   $0x105035,0x4(%esp)
  10141a:	00 
  10141b:	c7 04 24 b0 4f 10 00 	movl   $0x104fb0,(%esp)
  101422:	e8 0d 3b 00 00       	call   104f34 <printf>
  101427:	c7 04 24 01 00 00 00 	movl   $0x1,(%esp)
  10142e:	e8 f9 eb ff ff       	call   10002c <_halt>
  101433:	8b 0d 2c 5a 10 00    	mov    0x105a2c,%ecx
  101439:	89 c8                	mov    %ecx,%eax
  10143b:	89 da                	mov    %ebx,%edx
  10143d:	39 cb                	cmp    %ecx,%ebx
  10143f:	74 0b                	je     10144c <bench_alloc+0x78>
  101441:	8d 76 00             	lea    0x0(%esi),%esi
  101444:	c6 02 00             	movb   $0x0,(%edx)
  101447:	42                   	inc    %edx
  101448:	39 ca                	cmp    %ecx,%edx
  10144a:	75 f8                	jne    101444 <bench_alloc+0x70>
  10144c:	2b 05 60 57 10 00    	sub    0x105760,%eax
  101452:	8b 15 b8 5a 10 00    	mov    0x105ab8,%edx
  101458:	3b 42 04             	cmp    0x4(%edx),%eax
  10145b:	76 28                	jbe    101485 <bench_alloc+0xb1>
  10145d:	c7 44 24 08 7b 00 00 	movl   $0x7b,0x8(%esp)
  101464:	00 
  101465:	c7 44 24 04 35 50 10 	movl   $0x105035,0x4(%esp)
  10146c:	00 
  10146d:	c7 04 24 b0 4f 10 00 	movl   $0x104fb0,(%esp)
  101474:	e8 bb 3a 00 00       	call   104f34 <printf>
  101479:	c7 04 24 01 00 00 00 	movl   $0x1,(%esp)
  101480:	e8 a7 eb ff ff       	call   10002c <_halt>
  101485:	89 d8                	mov    %ebx,%eax
  101487:	83 c4 14             	add    $0x14,%esp
  10148a:	5b                   	pop    %ebx
  10148b:	5d                   	pop    %ebp
  10148c:	c3                   	ret    
  10148d:	8d 76 00             	lea    0x0(%esi),%esi
  101490:	89 c1                	mov    %eax,%ecx
  101492:	eb a7                	jmp    10143b <bench_alloc+0x67>

00101494 <bench_free>:
  101494:	55                   	push   %ebp
  101495:	89 e5                	mov    %esp,%ebp
  101497:	5d                   	pop    %ebp
  101498:	c3                   	ret    
  101499:	8d 76 00             	lea    0x0(%esi),%esi

0010149c <bench_reset>:
  10149c:	55                   	push   %ebp
  10149d:	89 e5                	mov    %esp,%ebp
  10149f:	a1 60 57 10 00       	mov    0x105760,%eax
  1014a4:	a3 2c 5a 10 00       	mov    %eax,0x105a2c
  1014a9:	5d                   	pop    %ebp
  1014aa:	c3                   	ret    
  1014ab:	90                   	nop

001014ac <bench_srand>:
  1014ac:	55                   	push   %ebp
  1014ad:	89 e5                	mov    %esp,%ebp
  1014af:	8b 45 08             	mov    0x8(%ebp),%eax
  1014b2:	25 ff 7f 00 00       	and    $0x7fff,%eax
  1014b7:	a3 00 58 10 00       	mov    %eax,0x105800
  1014bc:	5d                   	pop    %ebp
  1014bd:	c3                   	ret    
  1014be:	66 90                	xchg   %ax,%ax

001014c0 <bench_rand>:
  1014c0:	55                   	push   %ebp
  1014c1:	89 e5                	mov    %esp,%ebp
  1014c3:	a1 00 58 10 00       	mov    0x105800,%eax
  1014c8:	8d 14 00             	lea    (%eax,%eax,1),%edx
  1014cb:	01 c2                	add    %eax,%edx
  1014cd:	8d 14 90             	lea    (%eax,%edx,4),%edx
  1014d0:	c1 e2 04             	shl    $0x4,%edx
  1014d3:	01 c2                	add    %eax,%edx
  1014d5:	c1 e2 08             	shl    $0x8,%edx
  1014d8:	29 c2                	sub    %eax,%edx
  1014da:	8d 84 90 c3 9e 26 00 	lea    0x269ec3(%eax,%edx,4),%eax
  1014e1:	a3 00 58 10 00       	mov    %eax,0x105800
  1014e6:	c1 f8 10             	sar    $0x10,%eax
  1014e9:	25 ff 7f 00 00       	and    $0x7fff,%eax
  1014ee:	5d                   	pop    %ebp
  1014ef:	c3                   	ret    

001014f0 <checksum>:
  1014f0:	55                   	push   %ebp
  1014f1:	89 e5                	mov    %esp,%ebp
  1014f3:	57                   	push   %edi
  1014f4:	56                   	push   %esi
  1014f5:	53                   	push   %ebx
  1014f6:	8b 5d 08             	mov    0x8(%ebp),%ebx
  1014f9:	8b 7d 0c             	mov    0xc(%ebp),%edi
  1014fc:	b9 c5 9d 1c 81       	mov    $0x811c9dc5,%ecx
  101501:	8d 73 04             	lea    0x4(%ebx),%esi
  101504:	39 fe                	cmp    %edi,%esi
  101506:	73 2c                	jae    101534 <checksum+0x44>
  101508:	31 d2                	xor    %edx,%edx
  10150a:	0f b6 04 13          	movzbl (%ebx,%edx,1),%eax
  10150e:	31 c8                	xor    %ecx,%eax
  101510:	89 c1                	mov    %eax,%ecx
  101512:	c1 e1 10             	shl    $0x10,%ecx
  101515:	01 c1                	add    %eax,%ecx
  101517:	01 c9                	add    %ecx,%ecx
  101519:	01 c1                	add    %eax,%ecx
  10151b:	8d 0c c8             	lea    (%eax,%ecx,8),%ecx
  10151e:	8d 0c c8             	lea    (%eax,%ecx,8),%ecx
  101521:	01 c9                	add    %ecx,%ecx
  101523:	01 c1                	add    %eax,%ecx
  101525:	42                   	inc    %edx
  101526:	83 fa 04             	cmp    $0x4,%edx
  101529:	75 df                	jne    10150a <checksum+0x1a>
  10152b:	89 f3                	mov    %esi,%ebx
  10152d:	8d 73 04             	lea    0x4(%ebx),%esi
  101530:	39 fe                	cmp    %edi,%esi
  101532:	72 d4                	jb     101508 <checksum+0x18>
  101534:	89 c8                	mov    %ecx,%eax
  101536:	c1 e0 0d             	shl    $0xd,%eax
  101539:	01 c1                	add    %eax,%ecx
  10153b:	89 c8                	mov    %ecx,%eax
  10153d:	c1 f8 07             	sar    $0x7,%eax
  101540:	31 c8                	xor    %ecx,%eax
  101542:	8d 14 c0             	lea    (%eax,%eax,8),%edx
  101545:	89 d0                	mov    %edx,%eax
  101547:	c1 f8 11             	sar    $0x11,%eax
  10154a:	31 d0                	xor    %edx,%eax
  10154c:	89 c2                	mov    %eax,%edx
  10154e:	c1 e2 05             	shl    $0x5,%edx
  101551:	01 d0                	add    %edx,%eax
  101553:	5b                   	pop    %ebx
  101554:	5e                   	pop    %esi
  101555:	5f                   	pop    %edi
  101556:	5d                   	pop    %ebp
  101557:	c3                   	ret    

00101558 <main>:
  101558:	55                   	push   %ebp
  101559:	89 e5                	mov    %esp,%ebp
  10155b:	57                   	push   %edi
  10155c:	56                   	push   %esi
  10155d:	53                   	push   %ebx
  10155e:	83 e4 f0             	and    $0xfffffff0,%esp
  101561:	83 ec 20             	sub    $0x20,%esp
  101564:	e8 ff 39 00 00       	call   104f68 <_ioe_init>
  101569:	be 20 58 10 00       	mov    $0x105820,%esi
  10156e:	bb 01 00 00 00       	mov    $0x1,%ebx
  101573:	8d 7c 24 14          	lea    0x14(%esp),%edi
  101577:	eb 40                	jmp    1015b9 <main+0x61>
  101579:	8d 76 00             	lea    0x0(%esi),%esi
  10157c:	8b 46 10             	mov    0x10(%esi),%eax
  10157f:	89 44 24 08          	mov    %eax,0x8(%esp)
  101583:	8b 46 0c             	mov    0xc(%esi),%eax
  101586:	89 44 24 04          	mov    %eax,0x4(%esp)
  10158a:	c7 04 24 09 50 10 00 	movl   $0x105009,(%esp)
  101591:	e8 9e 39 00 00       	call   104f34 <printf>
  101596:	c7 44 24 04 13 50 10 	movl   $0x105013,0x4(%esp)
  10159d:	00 
  10159e:	c7 04 24 29 50 10 00 	movl   $0x105029,(%esp)
  1015a5:	e8 8a 39 00 00       	call   104f34 <printf>
  1015aa:	83 c6 34             	add    $0x34,%esi
  1015ad:	81 fe 28 5a 10 00    	cmp    $0x105a28,%esi
  1015b3:	0f 84 99 00 00 00    	je     101652 <main+0xfa>
  1015b9:	89 35 b4 5a 10 00    	mov    %esi,0x105ab4
  1015bf:	8d 46 14             	lea    0x14(%esi),%eax
  1015c2:	a3 b8 5a 10 00       	mov    %eax,0x105ab8
  1015c7:	a1 64 57 10 00       	mov    0x105764,%eax
  1015cc:	2b 05 60 57 10 00    	sub    0x105760,%eax
  1015d2:	3b 46 18             	cmp    0x18(%esi),%eax
  1015d5:	72 a5                	jb     10157c <main+0x24>
  1015d7:	8b 46 10             	mov    0x10(%esi),%eax
  1015da:	89 44 24 08          	mov    %eax,0x8(%esp)
  1015de:	8b 46 0c             	mov    0xc(%esi),%eax
  1015e1:	89 44 24 04          	mov    %eax,0x4(%esp)
  1015e5:	c7 04 24 09 50 10 00 	movl   $0x105009,(%esp)
  1015ec:	e8 43 39 00 00       	call   104f34 <printf>
  1015f1:	89 7c 24 04          	mov    %edi,0x4(%esp)
  1015f5:	89 34 24             	mov    %esi,(%esp)
  1015f8:	e8 6b fd ff ff       	call   101368 <run_once>
  1015fd:	8b 44 24 14          	mov    0x14(%esp),%eax
  101601:	85 c0                	test   %eax,%eax
  101603:	0f 84 93 00 00 00    	je     10169c <main+0x144>
  101609:	b8 db 4f 10 00       	mov    $0x104fdb,%eax
  10160e:	89 04 24             	mov    %eax,(%esp)
  101611:	e8 1e 39 00 00       	call   104f34 <printf>
  101616:	8b 44 24 14          	mov    0x14(%esp),%eax
  10161a:	83 e0 01             	and    $0x1,%eax
  10161d:	89 44 24 0c          	mov    %eax,0xc(%esp)
  101621:	0f 84 81 00 00 00    	je     1016a8 <main+0x150>
  101627:	c7 04 24 e9 4f 10 00 	movl   $0x104fe9,(%esp)
  10162e:	e8 01 39 00 00       	call   104f34 <printf>
  101633:	23 5c 24 0c          	and    0xc(%esp),%ebx
  101637:	c7 04 24 c7 4f 10 00 	movl   $0x104fc7,(%esp)
  10163e:	e8 f1 38 00 00       	call   104f34 <printf>
  101643:	83 c6 34             	add    $0x34,%esi
  101646:	81 fe 28 5a 10 00    	cmp    $0x105a28,%esi
  10164c:	0f 85 67 ff ff ff    	jne    1015b9 <main+0x61>
  101652:	c7 04 24 1c 51 10 00 	movl   $0x10511c,(%esp)
  101659:	e8 d6 38 00 00       	call   104f34 <printf>
  10165e:	85 db                	test   %ebx,%ebx
  101660:	75 57                	jne    1016b9 <main+0x161>
  101662:	b8 e4 4f 10 00       	mov    $0x104fe4,%eax
  101667:	89 44 24 04          	mov    %eax,0x4(%esp)
  10166b:	c7 04 24 fb 4f 10 00 	movl   $0x104ffb,(%esp)
  101672:	e8 bd 38 00 00       	call   104f34 <printf>
  101677:	c7 04 24 c7 4f 10 00 	movl   $0x104fc7,(%esp)
  10167e:	e8 b1 38 00 00       	call   104f34 <printf>
  101683:	c7 04 24 00 00 00 00 	movl   $0x0,(%esp)
  10168a:	e8 9d e9 ff ff       	call   10002c <_halt>
  10168f:	31 c0                	xor    %eax,%eax
  101691:	8d 65 f4             	lea    -0xc(%ebp),%esp
  101694:	5b                   	pop    %ebx
  101695:	5e                   	pop    %esi
  101696:	5f                   	pop    %edi
  101697:	5d                   	pop    %ebp
  101698:	c3                   	ret    
  101699:	8d 76 00             	lea    0x0(%esi),%esi
  10169c:	b8 dd 4f 10 00       	mov    $0x104fdd,%eax
  1016a1:	e9 68 ff ff ff       	jmp    10160e <main+0xb6>
  1016a6:	66 90                	xchg   %ax,%ax
  1016a8:	c7 04 24 f2 4f 10 00 	movl   $0x104ff2,(%esp)
  1016af:	e8 80 38 00 00       	call   104f34 <printf>
  1016b4:	e9 7a ff ff ff       	jmp    101633 <main+0xdb>
  1016b9:	b8 df 4f 10 00       	mov    $0x104fdf,%eax
  1016be:	eb a7                	jmp    101667 <main+0x10f>

001016c0 <compile_bf>:
  1016c0:	55                   	push   %ebp
  1016c1:	89 e5                	mov    %esp,%ebp
  1016c3:	57                   	push   %edi
  1016c4:	56                   	push   %esi
  1016c5:	53                   	push   %ebx
  1016c6:	83 ec 08             	sub    $0x8,%esp
  1016c9:	8b 3d 34 5a 10 00    	mov    0x105a34,%edi
  1016cf:	8a 0f                	mov    (%edi),%cl
  1016d1:	84 c9                	test   %cl,%cl
  1016d3:	0f 84 64 01 00 00    	je     10183d <compile_bf+0x17d>
  1016d9:	8b 1d 38 5a 10 00    	mov    0x105a38,%ebx
  1016df:	8b 35 40 5a 10 00    	mov    0x105a40,%esi
  1016e5:	a1 3c 5a 10 00       	mov    0x105a3c,%eax
  1016ea:	89 45 ec             	mov    %eax,-0x14(%ebp)
  1016ed:	8d 57 01             	lea    0x1(%edi),%edx
  1016f0:	89 5d f0             	mov    %ebx,-0x10(%ebp)
  1016f3:	31 c0                	xor    %eax,%eax
  1016f5:	8d 76 00             	lea    0x0(%esi),%esi
  1016f8:	83 e9 2b             	sub    $0x2b,%ecx
  1016fb:	80 f9 32             	cmp    $0x32,%cl
  1016fe:	0f 87 20 01 00 00    	ja     101824 <compile_bf+0x164>
  101704:	0f b6 c9             	movzbl %cl,%ecx
  101707:	ff 24 8d 50 51 10 00 	jmp    *0x105150(,%ecx,4)
  10170e:	66 90                	xchg   %ax,%ax
  101710:	85 db                	test   %ebx,%ebx
  101712:	0f 84 12 01 00 00    	je     10182a <compile_bf+0x16a>
  101718:	4b                   	dec    %ebx
  101719:	8b 7d ec             	mov    -0x14(%ebp),%edi
  10171c:	0f b7 0c 5f          	movzwl (%edi,%ebx,2),%ecx
  101720:	0f b7 f8             	movzwl %ax,%edi
  101723:	8d 3c be             	lea    (%esi,%edi,4),%edi
  101726:	66 c7 07 08 00       	movw   $0x8,(%edi)
  10172b:	66 89 4f 02          	mov    %cx,0x2(%edi)
  10172f:	66 89 44 8e 02       	mov    %ax,0x2(%esi,%ecx,4)
  101734:	89 5d f0             	mov    %ebx,-0x10(%ebp)
  101737:	90                   	nop
  101738:	40                   	inc    %eax
  101739:	89 d7                	mov    %edx,%edi
  10173b:	8a 0a                	mov    (%edx),%cl
  10173d:	84 c9                	test   %cl,%cl
  10173f:	74 63                	je     1017a4 <compile_bf+0xe4>
  101741:	42                   	inc    %edx
  101742:	66 3d ff 0f          	cmp    $0xfff,%ax
  101746:	76 b0                	jbe    1016f8 <compile_bf+0x38>
  101748:	8b 55 f0             	mov    -0x10(%ebp),%edx
  10174b:	89 15 38 5a 10 00    	mov    %edx,0x105a38
  101751:	89 3d 34 5a 10 00    	mov    %edi,0x105a34
  101757:	85 db                	test   %ebx,%ebx
  101759:	75 5c                	jne    1017b7 <compile_bf+0xf7>
  10175b:	66 3d 00 10          	cmp    $0x1000,%ax
  10175f:	74 56                	je     1017b7 <compile_bf+0xf7>
  101761:	0f b7 c0             	movzwl %ax,%eax
  101764:	c1 e0 02             	shl    $0x2,%eax
  101767:	66 c7 04 06 00 00    	movw   $0x0,(%esi,%eax,1)
  10176d:	31 c0                	xor    %eax,%eax
  10176f:	83 c4 08             	add    $0x8,%esp
  101772:	5b                   	pop    %ebx
  101773:	5e                   	pop    %esi
  101774:	5f                   	pop    %edi
  101775:	5d                   	pop    %ebp
  101776:	c3                   	ret    
  101777:	90                   	nop
  101778:	0f b7 c8             	movzwl %ax,%ecx
  10177b:	66 c7 04 8e 07 00    	movw   $0x7,(%esi,%ecx,4)
  101781:	81 fb 00 02 00 00    	cmp    $0x200,%ebx
  101787:	0f 84 9d 00 00 00    	je     10182a <compile_bf+0x16a>
  10178d:	8b 7d ec             	mov    -0x14(%ebp),%edi
  101790:	66 89 04 5f          	mov    %ax,(%edi,%ebx,2)
  101794:	43                   	inc    %ebx
  101795:	89 5d f0             	mov    %ebx,-0x10(%ebp)
  101798:	40                   	inc    %eax
  101799:	89 d7                	mov    %edx,%edi
  10179b:	8a 0a                	mov    (%edx),%cl
  10179d:	84 c9                	test   %cl,%cl
  10179f:	75 a0                	jne    101741 <compile_bf+0x81>
  1017a1:	8d 76 00             	lea    0x0(%esi),%esi
  1017a4:	8b 7d f0             	mov    -0x10(%ebp),%edi
  1017a7:	89 3d 38 5a 10 00    	mov    %edi,0x105a38
  1017ad:	89 15 34 5a 10 00    	mov    %edx,0x105a34
  1017b3:	85 db                	test   %ebx,%ebx
  1017b5:	74 a4                	je     10175b <compile_bf+0x9b>
  1017b7:	b8 01 00 00 00       	mov    $0x1,%eax
  1017bc:	83 c4 08             	add    $0x8,%esp
  1017bf:	5b                   	pop    %ebx
  1017c0:	5e                   	pop    %esi
  1017c1:	5f                   	pop    %edi
  1017c2:	5d                   	pop    %ebp
  1017c3:	c3                   	ret    
  1017c4:	0f b7 c8             	movzwl %ax,%ecx
  1017c7:	66 c7 04 8e 01 00    	movw   $0x1,(%esi,%ecx,4)
  1017cd:	e9 66 ff ff ff       	jmp    101738 <compile_bf+0x78>
  1017d2:	66 90                	xchg   %ax,%ax
  1017d4:	0f b7 c8             	movzwl %ax,%ecx
  1017d7:	66 c7 04 8e 02 00    	movw   $0x2,(%esi,%ecx,4)
  1017dd:	e9 56 ff ff ff       	jmp    101738 <compile_bf+0x78>
  1017e2:	66 90                	xchg   %ax,%ax
  1017e4:	0f b7 c8             	movzwl %ax,%ecx
  1017e7:	66 c7 04 8e 05 00    	movw   $0x5,(%esi,%ecx,4)
  1017ed:	e9 46 ff ff ff       	jmp    101738 <compile_bf+0x78>
  1017f2:	66 90                	xchg   %ax,%ax
  1017f4:	0f b7 c8             	movzwl %ax,%ecx
  1017f7:	66 c7 04 8e 04 00    	movw   $0x4,(%esi,%ecx,4)
  1017fd:	e9 36 ff ff ff       	jmp    101738 <compile_bf+0x78>
  101802:	66 90                	xchg   %ax,%ax
  101804:	0f b7 c8             	movzwl %ax,%ecx
  101807:	66 c7 04 8e 06 00    	movw   $0x6,(%esi,%ecx,4)
  10180d:	e9 26 ff ff ff       	jmp    101738 <compile_bf+0x78>
  101812:	66 90                	xchg   %ax,%ax
  101814:	0f b7 c8             	movzwl %ax,%ecx
  101817:	66 c7 04 8e 03 00    	movw   $0x3,(%esi,%ecx,4)
  10181d:	e9 16 ff ff ff       	jmp    101738 <compile_bf+0x78>
  101822:	66 90                	xchg   %ax,%ax
  101824:	48                   	dec    %eax
  101825:	e9 0e ff ff ff       	jmp    101738 <compile_bf+0x78>
  10182a:	8b 45 f0             	mov    -0x10(%ebp),%eax
  10182d:	a3 38 5a 10 00       	mov    %eax,0x105a38
  101832:	89 3d 34 5a 10 00    	mov    %edi,0x105a34
  101838:	e9 7a ff ff ff       	jmp    1017b7 <compile_bf+0xf7>
  10183d:	a1 38 5a 10 00       	mov    0x105a38,%eax
  101842:	85 c0                	test   %eax,%eax
  101844:	0f 85 6d ff ff ff    	jne    1017b7 <compile_bf+0xf7>
  10184a:	31 c0                	xor    %eax,%eax
  10184c:	8b 35 40 5a 10 00    	mov    0x105a40,%esi
  101852:	e9 10 ff ff ff       	jmp    101767 <compile_bf+0xa7>
  101857:	90                   	nop

00101858 <execute_bf>:
  101858:	55                   	push   %ebp
  101859:	89 e5                	mov    %esp,%ebp
  10185b:	57                   	push   %edi
  10185c:	56                   	push   %esi
  10185d:	53                   	push   %ebx
  10185e:	52                   	push   %edx
  10185f:	8b 0d 40 5a 10 00    	mov    0x105a40,%ecx
  101865:	0f b7 19             	movzwl (%ecx),%ebx
  101868:	66 85 db             	test   %bx,%bx
  10186b:	74 45                	je     1018b2 <execute_bf+0x5a>
  10186d:	8b 3d 30 5a 10 00    	mov    0x105a30,%edi
  101873:	89 ce                	mov    %ecx,%esi
  101875:	31 d2                	xor    %edx,%edx
  101877:	31 c0                	xor    %eax,%eax
  101879:	89 4d f0             	mov    %ecx,-0x10(%ebp)
  10187c:	66 83 fb 08          	cmp    $0x8,%bx
  101880:	77 2a                	ja     1018ac <execute_bf+0x54>
  101882:	ff 24 9d 1c 52 10 00 	jmp    *0x10521c(,%ebx,4)
  101889:	8d 76 00             	lea    0x0(%esi),%esi
  10188c:	8b 1d c0 5a 10 00    	mov    0x105ac0,%ebx
  101892:	66 83 3c 53 00       	cmpw   $0x0,(%ebx,%edx,2)
  101897:	74 43                	je     1018dc <execute_bf+0x84>
  101899:	0f b7 46 02          	movzwl 0x2(%esi),%eax
  10189d:	40                   	inc    %eax
  10189e:	8b 4d f0             	mov    -0x10(%ebp),%ecx
  1018a1:	8d 34 81             	lea    (%ecx,%eax,4),%esi
  1018a4:	0f b7 1e             	movzwl (%esi),%ebx
  1018a7:	66 85 db             	test   %bx,%bx
  1018aa:	75 3f                	jne    1018eb <execute_bf+0x93>
  1018ac:	89 3d 30 5a 10 00    	mov    %edi,0x105a30
  1018b2:	58                   	pop    %eax
  1018b3:	5b                   	pop    %ebx
  1018b4:	5e                   	pop    %esi
  1018b5:	5f                   	pop    %edi
  1018b6:	5d                   	pop    %ebp
  1018b7:	c3                   	ret    
  1018b8:	8b 1d c0 5a 10 00    	mov    0x105ac0,%ebx
  1018be:	66 83 3c 53 00       	cmpw   $0x0,(%ebx,%edx,2)
  1018c3:	75 17                	jne    1018dc <execute_bf+0x84>
  1018c5:	0f b7 46 02          	movzwl 0x2(%esi),%eax
  1018c9:	eb d2                	jmp    10189d <execute_bf+0x45>
  1018cb:	90                   	nop
  1018cc:	66 0f be 37          	movsbw (%edi),%si
  1018d0:	8b 1d c0 5a 10 00    	mov    0x105ac0,%ebx
  1018d6:	66 89 34 53          	mov    %si,(%ebx,%edx,2)
  1018da:	47                   	inc    %edi
  1018db:	90                   	nop
  1018dc:	40                   	inc    %eax
  1018dd:	8b 4d f0             	mov    -0x10(%ebp),%ecx
  1018e0:	8d 34 81             	lea    (%ecx,%eax,4),%esi
  1018e3:	0f b7 1e             	movzwl (%esi),%ebx
  1018e6:	66 85 db             	test   %bx,%bx
  1018e9:	74 c1                	je     1018ac <execute_bf+0x54>
  1018eb:	81 fa ff 0f 00 00    	cmp    $0xfff,%edx
  1018f1:	76 89                	jbe    10187c <execute_bf+0x24>
  1018f3:	eb b7                	jmp    1018ac <execute_bf+0x54>
  1018f5:	8d 76 00             	lea    0x0(%esi),%esi
  1018f8:	8b 1d c4 5a 10 00    	mov    0x105ac4,%ebx
  1018fe:	8d 73 01             	lea    0x1(%ebx),%esi
  101901:	89 35 c4 5a 10 00    	mov    %esi,0x105ac4
  101907:	8b 35 c0 5a 10 00    	mov    0x105ac0,%esi
  10190d:	66 8b 0c 56          	mov    (%esi,%edx,2),%cx
  101911:	8b 35 bc 5a 10 00    	mov    0x105abc,%esi
  101917:	88 0c 1e             	mov    %cl,(%esi,%ebx,1)
  10191a:	eb c0                	jmp    1018dc <execute_bf+0x84>
  10191c:	8d 1c 12             	lea    (%edx,%edx,1),%ebx
  10191f:	03 1d c0 5a 10 00    	add    0x105ac0,%ebx
  101925:	66 ff 0b             	decw   (%ebx)
  101928:	eb b2                	jmp    1018dc <execute_bf+0x84>
  10192a:	66 90                	xchg   %ax,%ax
  10192c:	8d 1c 12             	lea    (%edx,%edx,1),%ebx
  10192f:	03 1d c0 5a 10 00    	add    0x105ac0,%ebx
  101935:	66 ff 03             	incw   (%ebx)
  101938:	eb a2                	jmp    1018dc <execute_bf+0x84>
  10193a:	66 90                	xchg   %ax,%ax
  10193c:	4a                   	dec    %edx
  10193d:	eb 9d                	jmp    1018dc <execute_bf+0x84>
  10193f:	90                   	nop
  101940:	42                   	inc    %edx
  101941:	eb 99                	jmp    1018dc <execute_bf+0x84>
  101943:	90                   	nop

00101944 <bench_bf_prepare>:
  101944:	55                   	push   %ebp
  101945:	89 e5                	mov    %esp,%ebp
  101947:	57                   	push   %edi
  101948:	56                   	push   %esi
  101949:	53                   	push   %ebx
  10194a:	83 ec 1c             	sub    $0x1c,%esp
  10194d:	a1 b8 5a 10 00       	mov    0x105ab8,%eax
  101952:	8b 00                	mov    (%eax),%eax
  101954:	a3 44 5a 10 00       	mov    %eax,0x105a44
  101959:	c7 05 38 5a 10 00 00 	movl   $0x0,0x105a38
  101960:	00 00 00 
  101963:	c7 04 24 00 40 00 00 	movl   $0x4000,(%esp)
  10196a:	e8 65 fa ff ff       	call   1013d4 <bench_alloc>
  10196f:	a3 40 5a 10 00       	mov    %eax,0x105a40
  101974:	c7 04 24 00 04 00 00 	movl   $0x400,(%esp)
  10197b:	e8 54 fa ff ff       	call   1013d4 <bench_alloc>
  101980:	a3 3c 5a 10 00       	mov    %eax,0x105a3c
  101985:	c7 04 24 00 20 00 00 	movl   $0x2000,(%esp)
  10198c:	e8 43 fa ff ff       	call   1013d4 <bench_alloc>
  101991:	a3 c0 5a 10 00       	mov    %eax,0x105ac0
  101996:	c7 05 34 5a 10 00 40 	movl   $0x105240,0x105a34
  10199d:	52 10 00 
  1019a0:	a1 44 5a 10 00       	mov    0x105a44,%eax
  1019a5:	40                   	inc    %eax
  1019a6:	89 04 24             	mov    %eax,(%esp)
  1019a9:	e8 26 fa ff ff       	call   1013d4 <bench_alloc>
  1019ae:	a3 30 5a 10 00       	mov    %eax,0x105a30
  1019b3:	c7 04 24 00 10 00 00 	movl   $0x1000,(%esp)
  1019ba:	e8 15 fa ff ff       	call   1013d4 <bench_alloc>
  1019bf:	a3 bc 5a 10 00       	mov    %eax,0x105abc
  1019c4:	c7 05 c4 5a 10 00 00 	movl   $0x0,0x105ac4
  1019cb:	00 00 00 
  1019ce:	c7 04 24 01 00 00 00 	movl   $0x1,(%esp)
  1019d5:	e8 d2 fa ff ff       	call   1014ac <bench_srand>
  1019da:	31 db                	xor    %ebx,%ebx
  1019dc:	be 3e 00 00 00       	mov    $0x3e,%esi
  1019e1:	a1 44 5a 10 00       	mov    0x105a44,%eax
  1019e6:	85 c0                	test   %eax,%eax
  1019e8:	7e 26                	jle    101a10 <bench_bf_prepare+0xcc>
  1019ea:	66 90                	xchg   %ax,%ax
  1019ec:	8b 3d 30 5a 10 00    	mov    0x105a30,%edi
  1019f2:	01 df                	add    %ebx,%edi
  1019f4:	e8 c7 fa ff ff       	call   1014c0 <bench_rand>
  1019f9:	99                   	cltd   
  1019fa:	f7 fe                	idiv   %esi
  1019fc:	8a 82 f4 52 10 00    	mov    0x1052f4(%edx),%al
  101a02:	88 45 e7             	mov    %al,-0x19(%ebp)
  101a05:	88 07                	mov    %al,(%edi)
  101a07:	43                   	inc    %ebx
  101a08:	39 1d 44 5a 10 00    	cmp    %ebx,0x105a44
  101a0e:	7f dc                	jg     1019ec <bench_bf_prepare+0xa8>
  101a10:	83 c4 1c             	add    $0x1c,%esp
  101a13:	5b                   	pop    %ebx
  101a14:	5e                   	pop    %esi
  101a15:	5f                   	pop    %edi
  101a16:	5d                   	pop    %ebp
  101a17:	c3                   	ret    

00101a18 <bench_bf_run>:
  101a18:	55                   	push   %ebp
  101a19:	89 e5                	mov    %esp,%ebp
  101a1b:	e8 a0 fc ff ff       	call   1016c0 <compile_bf>
  101a20:	5d                   	pop    %ebp
  101a21:	e9 32 fe ff ff       	jmp    101858 <execute_bf>
  101a26:	66 90                	xchg   %ax,%ax

00101a28 <bench_bf_validate>:
  101a28:	55                   	push   %ebp
  101a29:	89 e5                	mov    %esp,%ebp
  101a2b:	83 ec 18             	sub    $0x18,%esp
  101a2e:	a1 bc 5a 10 00       	mov    0x105abc,%eax
  101a33:	8b 15 c4 5a 10 00    	mov    0x105ac4,%edx
  101a39:	01 c2                	add    %eax,%edx
  101a3b:	89 54 24 04          	mov    %edx,0x4(%esp)
  101a3f:	89 04 24             	mov    %eax,(%esp)
  101a42:	e8 a9 fa ff ff       	call   1014f0 <checksum>
  101a47:	8b 0d 44 5a 10 00    	mov    0x105a44,%ecx
  101a4d:	39 0d c4 5a 10 00    	cmp    %ecx,0x105ac4
  101a53:	74 07                	je     101a5c <bench_bf_validate+0x34>
  101a55:	31 c0                	xor    %eax,%eax
  101a57:	c9                   	leave  
  101a58:	c3                   	ret    
  101a59:	8d 76 00             	lea    0x0(%esi),%esi
  101a5c:	8b 15 b8 5a 10 00    	mov    0x105ab8,%edx
  101a62:	3b 42 0c             	cmp    0xc(%edx),%eax
  101a65:	0f 94 c0             	sete   %al
  101a68:	0f b6 c0             	movzbl %al,%eax
  101a6b:	c9                   	leave  
  101a6c:	c3                   	ret    
  101a6d:	66 90                	xchg   %ax,%ax
  101a6f:	90                   	nop

00101a70 <bench_lzip_prepare>:
  101a70:	55                   	push   %ebp
  101a71:	89 e5                	mov    %esp,%ebp
  101a73:	57                   	push   %edi
  101a74:	56                   	push   %esi
  101a75:	53                   	push   %ebx
  101a76:	83 ec 1c             	sub    $0x1c,%esp
  101a79:	a1 b8 5a 10 00       	mov    0x105ab8,%eax
  101a7e:	8b 00                	mov    (%eax),%eax
  101a80:	a3 58 5a 10 00       	mov    %eax,0x105a58
  101a85:	c7 04 24 01 00 00 00 	movl   $0x1,(%esp)
  101a8c:	e8 1b fa ff ff       	call   1014ac <bench_srand>
  101a91:	c7 04 24 04 10 04 00 	movl   $0x41004,(%esp)
  101a98:	e8 37 f9 ff ff       	call   1013d4 <bench_alloc>
  101a9d:	a3 54 5a 10 00       	mov    %eax,0x105a54
  101aa2:	a1 58 5a 10 00       	mov    0x105a58,%eax
  101aa7:	89 04 24             	mov    %eax,(%esp)
  101aaa:	e8 25 f9 ff ff       	call   1013d4 <bench_alloc>
  101aaf:	a3 50 5a 10 00       	mov    %eax,0x105a50
  101ab4:	a1 58 5a 10 00       	mov    0x105a58,%eax
  101ab9:	05 90 01 00 00       	add    $0x190,%eax
  101abe:	89 04 24             	mov    %eax,(%esp)
  101ac1:	e8 0e f9 ff ff       	call   1013d4 <bench_alloc>
  101ac6:	a3 4c 5a 10 00       	mov    %eax,0x105a4c
  101acb:	31 db                	xor    %ebx,%ebx
  101acd:	be 1a 00 00 00       	mov    $0x1a,%esi
  101ad2:	a1 58 5a 10 00       	mov    0x105a58,%eax
  101ad7:	85 c0                	test   %eax,%eax
  101ad9:	7e 1f                	jle    101afa <bench_lzip_prepare+0x8a>
  101adb:	90                   	nop
  101adc:	8b 3d 50 5a 10 00    	mov    0x105a50,%edi
  101ae2:	01 df                	add    %ebx,%edi
  101ae4:	e8 d7 f9 ff ff       	call   1014c0 <bench_rand>
  101ae9:	99                   	cltd   
  101aea:	f7 fe                	idiv   %esi
  101aec:	83 c2 61             	add    $0x61,%edx
  101aef:	88 17                	mov    %dl,(%edi)
  101af1:	43                   	inc    %ebx
  101af2:	39 1d 58 5a 10 00    	cmp    %ebx,0x105a58
  101af8:	7f e2                	jg     101adc <bench_lzip_prepare+0x6c>
  101afa:	83 c4 1c             	add    $0x1c,%esp
  101afd:	5b                   	pop    %ebx
  101afe:	5e                   	pop    %esi
  101aff:	5f                   	pop    %edi
  101b00:	5d                   	pop    %ebp
  101b01:	c3                   	ret    
  101b02:	66 90                	xchg   %ax,%ax

00101b04 <bench_lzip_run>:
  101b04:	55                   	push   %ebp
  101b05:	89 e5                	mov    %esp,%ebp
  101b07:	83 ec 18             	sub    $0x18,%esp
  101b0a:	a1 54 5a 10 00       	mov    0x105a54,%eax
  101b0f:	89 44 24 0c          	mov    %eax,0xc(%esp)
  101b13:	a1 58 5a 10 00       	mov    0x105a58,%eax
  101b18:	89 44 24 08          	mov    %eax,0x8(%esp)
  101b1c:	a1 4c 5a 10 00       	mov    0x105a4c,%eax
  101b21:	89 44 24 04          	mov    %eax,0x4(%esp)
  101b25:	a1 50 5a 10 00       	mov    0x105a50,%eax
  101b2a:	89 04 24             	mov    %eax,(%esp)
  101b2d:	e8 0e 01 00 00       	call   101c40 <qlz_compress>
  101b32:	a3 48 5a 10 00       	mov    %eax,0x105a48
  101b37:	c9                   	leave  
  101b38:	c3                   	ret    
  101b39:	8d 76 00             	lea    0x0(%esi),%esi

00101b3c <bench_lzip_validate>:
  101b3c:	55                   	push   %ebp
  101b3d:	89 e5                	mov    %esp,%ebp
  101b3f:	83 ec 18             	sub    $0x18,%esp
  101b42:	a1 4c 5a 10 00       	mov    0x105a4c,%eax
  101b47:	8b 15 48 5a 10 00    	mov    0x105a48,%edx
  101b4d:	01 c2                	add    %eax,%edx
  101b4f:	89 54 24 04          	mov    %edx,0x4(%esp)
  101b53:	89 04 24             	mov    %eax,(%esp)
  101b56:	e8 95 f9 ff ff       	call   1014f0 <checksum>
  101b5b:	8b 15 b8 5a 10 00    	mov    0x105ab8,%edx
  101b61:	3b 42 0c             	cmp    0xc(%edx),%eax
  101b64:	0f 94 c0             	sete   %al
  101b67:	0f b6 c0             	movzbl %al,%eax
  101b6a:	c9                   	leave  
  101b6b:	c3                   	ret    

00101b6c <qlz_get_setting>:
  101b6c:	55                   	push   %ebp
  101b6d:	89 e5                	mov    %esp,%ebp
  101b6f:	8b 45 08             	mov    0x8(%ebp),%eax
  101b72:	83 f8 09             	cmp    $0x9,%eax
  101b75:	77 09                	ja     101b80 <qlz_get_setting+0x14>
  101b77:	8b 04 85 60 53 10 00 	mov    0x105360(,%eax,4),%eax
  101b7e:	5d                   	pop    %ebp
  101b7f:	c3                   	ret    
  101b80:	b8 ff ff ff ff       	mov    $0xffffffff,%eax
  101b85:	5d                   	pop    %ebp
  101b86:	c3                   	ret    
  101b87:	90                   	nop

00101b88 <qlz_size_decompressed>:
  101b88:	55                   	push   %ebp
  101b89:	89 e5                	mov    %esp,%ebp
  101b8b:	57                   	push   %edi
  101b8c:	56                   	push   %esi
  101b8d:	53                   	push   %ebx
  101b8e:	51                   	push   %ecx
  101b8f:	8b 4d 08             	mov    0x8(%ebp),%ecx
  101b92:	8a 01                	mov    (%ecx),%al
  101b94:	83 e0 02             	and    $0x2,%eax
  101b97:	3c 01                	cmp    $0x1,%al
  101b99:	19 ff                	sbb    %edi,%edi
  101b9b:	89 7d f0             	mov    %edi,-0x10(%ebp)
  101b9e:	81 65 f0 00 01 00 00 	andl   $0x100,-0x10(%ebp)
  101ba5:	ff 4d f0             	decl   -0x10(%ebp)
  101ba8:	89 fa                	mov    %edi,%edx
  101baa:	83 e2 fd             	and    $0xfffffffd,%edx
  101bad:	89 d6                	mov    %edx,%esi
  101baf:	83 c6 04             	add    $0x4,%esi
  101bb2:	8d 7c 11 05          	lea    0x5(%ecx,%edx,1),%edi
  101bb6:	31 c0                	xor    %eax,%eax
  101bb8:	31 d2                	xor    %edx,%edx
  101bba:	66 90                	xchg   %ax,%ax
  101bbc:	0f b6 1c 17          	movzbl (%edi,%edx,1),%ebx
  101bc0:	8d 0c d5 00 00 00 00 	lea    0x0(,%edx,8),%ecx
  101bc7:	d3 e3                	shl    %cl,%ebx
  101bc9:	09 d8                	or     %ebx,%eax
  101bcb:	42                   	inc    %edx
  101bcc:	39 d6                	cmp    %edx,%esi
  101bce:	77 ec                	ja     101bbc <qlz_size_decompressed+0x34>
  101bd0:	23 45 f0             	and    -0x10(%ebp),%eax
  101bd3:	5a                   	pop    %edx
  101bd4:	5b                   	pop    %ebx
  101bd5:	5e                   	pop    %esi
  101bd6:	5f                   	pop    %edi
  101bd7:	5d                   	pop    %ebp
  101bd8:	c3                   	ret    
  101bd9:	8d 76 00             	lea    0x0(%esi),%esi

00101bdc <qlz_size_compressed>:
  101bdc:	55                   	push   %ebp
  101bdd:	89 e5                	mov    %esp,%ebp
  101bdf:	57                   	push   %edi
  101be0:	56                   	push   %esi
  101be1:	53                   	push   %ebx
  101be2:	51                   	push   %ecx
  101be3:	8b 7d 08             	mov    0x8(%ebp),%edi
  101be6:	8a 07                	mov    (%edi),%al
  101be8:	83 e0 02             	and    $0x2,%eax
  101beb:	3c 01                	cmp    $0x1,%al
  101bed:	19 f6                	sbb    %esi,%esi
  101bef:	89 75 f0             	mov    %esi,-0x10(%ebp)
  101bf2:	81 65 f0 00 01 00 00 	andl   $0x100,-0x10(%ebp)
  101bf9:	ff 4d f0             	decl   -0x10(%ebp)
  101bfc:	83 e6 fd             	and    $0xfffffffd,%esi
  101bff:	83 c6 04             	add    $0x4,%esi
  101c02:	31 c0                	xor    %eax,%eax
  101c04:	31 d2                	xor    %edx,%edx
  101c06:	66 90                	xchg   %ax,%ax
  101c08:	0f b6 5c 17 01       	movzbl 0x1(%edi,%edx,1),%ebx
  101c0d:	8d 0c d5 00 00 00 00 	lea    0x0(,%edx,8),%ecx
  101c14:	d3 e3                	shl    %cl,%ebx
  101c16:	09 d8                	or     %ebx,%eax
  101c18:	42                   	inc    %edx
  101c19:	39 d6                	cmp    %edx,%esi
  101c1b:	77 eb                	ja     101c08 <qlz_size_compressed+0x2c>
  101c1d:	23 45 f0             	and    -0x10(%ebp),%eax
  101c20:	5a                   	pop    %edx
  101c21:	5b                   	pop    %ebx
  101c22:	5e                   	pop    %esi
  101c23:	5f                   	pop    %edi
  101c24:	5d                   	pop    %ebp
  101c25:	c3                   	ret    
  101c26:	66 90                	xchg   %ax,%ax

00101c28 <qlz_size_header>:
  101c28:	55                   	push   %ebp
  101c29:	89 e5                	mov    %esp,%ebp
  101c2b:	8b 45 08             	mov    0x8(%ebp),%eax
  101c2e:	8a 00                	mov    (%eax),%al
  101c30:	83 e0 02             	and    $0x2,%eax
  101c33:	3c 01                	cmp    $0x1,%al
  101c35:	19 c0                	sbb    %eax,%eax
  101c37:	83 e0 fa             	and    $0xfffffffa,%eax
  101c3a:	83 c0 09             	add    $0x9,%eax
  101c3d:	5d                   	pop    %ebp
  101c3e:	c3                   	ret    
  101c3f:	90                   	nop

00101c40 <qlz_compress>:
  101c40:	55                   	push   %ebp
  101c41:	89 e5                	mov    %esp,%ebp
  101c43:	57                   	push   %edi
  101c44:	56                   	push   %esi
  101c45:	53                   	push   %ebx
  101c46:	81 ec ac 00 00 00    	sub    $0xac,%esp
  101c4c:	8b 7d 14             	mov    0x14(%ebp),%edi
  101c4f:	8b 45 10             	mov    0x10(%ebp),%eax
  101c52:	48                   	dec    %eax
  101c53:	89 85 64 ff ff ff    	mov    %eax,-0x9c(%ebp)
  101c59:	3d 6e fe ff ff       	cmp    $0xfffffe6e,%eax
  101c5e:	0f 87 ed 05 00 00    	ja     102251 <qlz_compress+0x611>
  101c64:	81 7d 10 d8 00 00 00 	cmpl   $0xd8,0x10(%ebp)
  101c6b:	19 c0                	sbb    %eax,%eax
  101c6d:	89 85 6c ff ff ff    	mov    %eax,-0x94(%ebp)
  101c73:	83 a5 6c ff ff ff fa 	andl   $0xfffffffa,-0x94(%ebp)
  101c7a:	83 85 6c ff ff ff 09 	addl   $0x9,-0x94(%ebp)
  101c81:	31 c0                	xor    %eax,%eax
  101c83:	90                   	nop
  101c84:	c6 84 07 04 00 04 00 	movb   $0x0,0x40004(%edi,%eax,1)
  101c8b:	00 
  101c8c:	40                   	inc    %eax
  101c8d:	3d 00 10 00 00       	cmp    $0x1000,%eax
  101c92:	75 f0                	jne    101c84 <qlz_compress+0x44>
  101c94:	8b 85 6c ff ff ff    	mov    -0x94(%ebp),%eax
  101c9a:	03 45 0c             	add    0xc(%ebp),%eax
  101c9d:	89 c1                	mov    %eax,%ecx
  101c9f:	89 85 70 ff ff ff    	mov    %eax,-0x90(%ebp)
  101ca5:	8b b5 64 ff ff ff    	mov    -0x9c(%ebp),%esi
  101cab:	03 75 08             	add    0x8(%ebp),%esi
  101cae:	89 b5 60 ff ff ff    	mov    %esi,-0xa0(%ebp)
  101cb4:	83 c0 04             	add    $0x4,%eax
  101cb7:	89 45 90             	mov    %eax,-0x70(%ebp)
  101cba:	8d 46 f6             	lea    -0xa(%esi),%eax
  101cbd:	89 85 78 ff ff ff    	mov    %eax,-0x88(%ebp)
  101cc3:	39 45 08             	cmp    %eax,0x8(%ebp)
  101cc6:	0f 87 54 06 00 00    	ja     102320 <qlz_compress+0x6e0>
  101ccc:	8d 46 fc             	lea    -0x4(%esi),%eax
  101ccf:	89 85 74 ff ff ff    	mov    %eax,-0x8c(%ebp)
  101cd5:	8b 45 10             	mov    0x10(%ebp),%eax
  101cd8:	d1 e8                	shr    %eax
  101cda:	03 45 08             	add    0x8(%ebp),%eax
  101cdd:	89 85 68 ff ff ff    	mov    %eax,-0x98(%ebp)
  101ce3:	8b 75 08             	mov    0x8(%ebp),%esi
  101ce6:	89 8d 7c ff ff ff    	mov    %ecx,-0x84(%ebp)
  101cec:	c7 45 8c 00 00 00 80 	movl   $0x80000000,-0x74(%ebp)
  101cf3:	89 7d 14             	mov    %edi,0x14(%ebp)
  101cf6:	66 90                	xchg   %ax,%ax
  101cf8:	8b bd 74 ff ff ff    	mov    -0x8c(%ebp),%edi
  101cfe:	29 f7                	sub    %esi,%edi
  101d00:	81 ff fe 00 00 00    	cmp    $0xfe,%edi
  101d06:	0f 8f 97 02 00 00    	jg     101fa3 <qlz_compress+0x363>
  101d0c:	47                   	inc    %edi
  101d0d:	8d 46 01             	lea    0x1(%esi),%eax
  101d10:	89 45 80             	mov    %eax,-0x80(%ebp)
  101d13:	0f b6 46 01          	movzbl 0x1(%esi),%eax
  101d17:	c1 e0 08             	shl    $0x8,%eax
  101d1a:	0f b6 56 02          	movzbl 0x2(%esi),%edx
  101d1e:	c1 e2 10             	shl    $0x10,%edx
  101d21:	09 d0                	or     %edx,%eax
  101d23:	0f b6 0e             	movzbl (%esi),%ecx
  101d26:	89 4d a8             	mov    %ecx,-0x58(%ebp)
  101d29:	09 45 a8             	or     %eax,-0x58(%ebp)
  101d2c:	8b 4d a8             	mov    -0x58(%ebp),%ecx
  101d2f:	89 c8                	mov    %ecx,%eax
  101d31:	c1 e8 0c             	shr    $0xc,%eax
  101d34:	89 45 98             	mov    %eax,-0x68(%ebp)
  101d37:	31 4d 98             	xor    %ecx,-0x68(%ebp)
  101d3a:	81 65 98 ff 0f 00 00 	andl   $0xfff,-0x68(%ebp)
  101d41:	8b 5d 14             	mov    0x14(%ebp),%ebx
  101d44:	8b 4d 98             	mov    -0x68(%ebp),%ecx
  101d47:	8a 84 0b 04 00 04 00 	mov    0x40004(%ebx,%ecx,1),%al
  101d4e:	88 45 8b             	mov    %al,-0x75(%ebp)
  101d51:	89 c8                	mov    %ecx,%eax
  101d53:	c1 e0 06             	shl    $0x6,%eax
  101d56:	8b 44 03 04          	mov    0x4(%ebx,%eax,1),%eax
  101d5a:	89 45 84             	mov    %eax,-0x7c(%ebp)
  101d5d:	8d 4e fe             	lea    -0x2(%esi),%ecx
  101d60:	89 4d 94             	mov    %ecx,-0x6c(%ebp)
  101d63:	39 c8                	cmp    %ecx,%eax
  101d65:	0f 83 51 02 00 00    	jae    101fbc <qlz_compress+0x37c>
  101d6b:	80 7d 8b 00          	cmpb   $0x0,-0x75(%ebp)
  101d6f:	0f 84 47 02 00 00    	je     101fbc <qlz_compress+0x37c>
  101d75:	8b 4d 84             	mov    -0x7c(%ebp),%ecx
  101d78:	0f b6 51 01          	movzbl 0x1(%ecx),%edx
  101d7c:	c1 e2 08             	shl    $0x8,%edx
  101d7f:	0f b6 41 02          	movzbl 0x2(%ecx),%eax
  101d83:	c1 e0 10             	shl    $0x10,%eax
  101d86:	09 c2                	or     %eax,%edx
  101d88:	0f b6 01             	movzbl (%ecx),%eax
  101d8b:	09 d0                	or     %edx,%eax
  101d8d:	39 45 a8             	cmp    %eax,-0x58(%ebp)
  101d90:	0f 85 26 02 00 00    	jne    101fbc <qlz_compress+0x37c>
  101d96:	8a 46 03             	mov    0x3(%esi),%al
  101d99:	38 41 03             	cmp    %al,0x3(%ecx)
  101d9c:	0f 84 7a 04 00 00    	je     10221c <qlz_compress+0x5dc>
  101da2:	c7 45 9c 03 00 00 00 	movl   $0x3,-0x64(%ebp)
  101da9:	8d 76 00             	lea    0x0(%esi),%esi
  101dac:	0f b6 45 8b          	movzbl -0x75(%ebp),%eax
  101db0:	89 45 a4             	mov    %eax,-0x5c(%ebp)
  101db3:	8b 45 98             	mov    -0x68(%ebp),%eax
  101db6:	c1 e0 06             	shl    $0x6,%eax
  101db9:	03 45 14             	add    0x14(%ebp),%eax
  101dbc:	89 45 a0             	mov    %eax,-0x60(%ebp)
  101dbf:	b9 01 00 00 00       	mov    $0x1,%ecx
  101dc4:	3b 4d a4             	cmp    -0x5c(%ebp),%ecx
  101dc7:	73 5d                	jae    101e26 <qlz_compress+0x1e6>
  101dc9:	8b 45 a0             	mov    -0x60(%ebp),%eax
  101dcc:	8b 44 88 04          	mov    0x4(%eax,%ecx,4),%eax
  101dd0:	0f b6 50 01          	movzbl 0x1(%eax),%edx
  101dd4:	c1 e2 08             	shl    $0x8,%edx
  101dd7:	0f b6 58 02          	movzbl 0x2(%eax),%ebx
  101ddb:	c1 e3 10             	shl    $0x10,%ebx
  101dde:	09 da                	or     %ebx,%edx
  101de0:	0f b6 18             	movzbl (%eax),%ebx
  101de3:	09 d3                	or     %edx,%ebx
  101de5:	39 5d a8             	cmp    %ebx,-0x58(%ebp)
  101de8:	75 36                	jne    101e20 <qlz_compress+0x1e0>
  101dea:	39 45 94             	cmp    %eax,-0x6c(%ebp)
  101ded:	76 31                	jbe    101e20 <qlz_compress+0x1e0>
  101def:	8a 5e 03             	mov    0x3(%esi),%bl
  101df2:	ba 03 00 00 00       	mov    $0x3,%edx
  101df7:	38 58 03             	cmp    %bl,0x3(%eax)
  101dfa:	75 15                	jne    101e11 <qlz_compress+0x1d1>
  101dfc:	83 ff 03             	cmp    $0x3,%edi
  101dff:	77 07                	ja     101e08 <qlz_compress+0x1c8>
  101e01:	eb 0e                	jmp    101e11 <qlz_compress+0x1d1>
  101e03:	90                   	nop
  101e04:	39 fa                	cmp    %edi,%edx
  101e06:	74 09                	je     101e11 <qlz_compress+0x1d1>
  101e08:	42                   	inc    %edx
  101e09:	8a 1c 16             	mov    (%esi,%edx,1),%bl
  101e0c:	38 1c 10             	cmp    %bl,(%eax,%edx,1)
  101e0f:	74 f3                	je     101e04 <qlz_compress+0x1c4>
  101e11:	3b 55 9c             	cmp    -0x64(%ebp),%edx
  101e14:	0f 87 96 01 00 00    	ja     101fb0 <qlz_compress+0x370>
  101e1a:	0f 84 34 03 00 00    	je     102154 <qlz_compress+0x514>
  101e20:	41                   	inc    %ecx
  101e21:	83 f9 10             	cmp    $0x10,%ecx
  101e24:	75 9e                	jne    101dc4 <qlz_compress+0x184>
  101e26:	8a 4d 8b             	mov    -0x75(%ebp),%cl
  101e29:	89 c8                	mov    %ecx,%eax
  101e2b:	83 e0 0f             	and    $0xf,%eax
  101e2e:	8b 7d 98             	mov    -0x68(%ebp),%edi
  101e31:	89 fa                	mov    %edi,%edx
  101e33:	c1 e2 04             	shl    $0x4,%edx
  101e36:	01 d0                	add    %edx,%eax
  101e38:	8b 5d 14             	mov    0x14(%ebp),%ebx
  101e3b:	89 74 83 04          	mov    %esi,0x4(%ebx,%eax,4)
  101e3f:	88 c8                	mov    %cl,%al
  101e41:	40                   	inc    %eax
  101e42:	89 d9                	mov    %ebx,%ecx
  101e44:	88 84 3b 04 00 04 00 	mov    %al,0x40004(%ebx,%edi,1)
  101e4b:	83 7d 9c 02          	cmpl   $0x2,-0x64(%ebp)
  101e4f:	0f 86 73 01 00 00    	jbe    101fc8 <qlz_compress+0x388>
  101e55:	89 f7                	mov    %esi,%edi
  101e57:	2b 7d 84             	sub    -0x7c(%ebp),%edi
  101e5a:	81 ff fe ff 01 00    	cmp    $0x1fffe,%edi
  101e60:	0f 8f 62 01 00 00    	jg     101fc8 <qlz_compress+0x388>
  101e66:	8b 55 80             	mov    -0x80(%ebp),%edx
  101e69:	03 75 9c             	add    -0x64(%ebp),%esi
  101e6c:	89 7d a4             	mov    %edi,-0x5c(%ebp)
  101e6f:	90                   	nop
  101e70:	0f b6 42 01          	movzbl 0x1(%edx),%eax
  101e74:	c1 e0 08             	shl    $0x8,%eax
  101e77:	0f b6 5a 02          	movzbl 0x2(%edx),%ebx
  101e7b:	c1 e3 10             	shl    $0x10,%ebx
  101e7e:	09 d8                	or     %ebx,%eax
  101e80:	0f b6 1a             	movzbl (%edx),%ebx
  101e83:	09 c3                	or     %eax,%ebx
  101e85:	89 d8                	mov    %ebx,%eax
  101e87:	c1 e8 0c             	shr    $0xc,%eax
  101e8a:	31 d8                	xor    %ebx,%eax
  101e8c:	25 ff 0f 00 00       	and    $0xfff,%eax
  101e91:	8a 9c 01 04 00 04 00 	mov    0x40004(%ecx,%eax,1),%bl
  101e98:	88 5d a8             	mov    %bl,-0x58(%ebp)
  101e9b:	8d 7b 01             	lea    0x1(%ebx),%edi
  101e9e:	89 fb                	mov    %edi,%ebx
  101ea0:	88 9c 01 04 00 04 00 	mov    %bl,0x40004(%ecx,%eax,1)
  101ea7:	8b 5d a8             	mov    -0x58(%ebp),%ebx
  101eaa:	83 e3 0f             	and    $0xf,%ebx
  101ead:	c1 e0 04             	shl    $0x4,%eax
  101eb0:	01 d8                	add    %ebx,%eax
  101eb2:	89 54 81 04          	mov    %edx,0x4(%ecx,%eax,4)
  101eb6:	42                   	inc    %edx
  101eb7:	39 f2                	cmp    %esi,%edx
  101eb9:	75 b5                	jne    101e70 <qlz_compress+0x230>
  101ebb:	8b 7d a4             	mov    -0x5c(%ebp),%edi
  101ebe:	d1 6d 8c             	shrl   -0x74(%ebp)
  101ec1:	81 4d 8c 00 00 00 80 	orl    $0x80000000,-0x74(%ebp)
  101ec8:	89 d6                	mov    %edx,%esi
  101eca:	83 7d 9c 03          	cmpl   $0x3,-0x64(%ebp)
  101ece:	0f 84 8e 02 00 00    	je     102162 <qlz_compress+0x522>
  101ed4:	83 7d 9c 12          	cmpl   $0x12,-0x64(%ebp)
  101ed8:	0f 86 91 02 00 00    	jbe    10216f <qlz_compress+0x52f>
  101ede:	83 7d 9c 21          	cmpl   $0x21,-0x64(%ebp)
  101ee2:	0f 86 b8 02 00 00    	jbe    1021a0 <qlz_compress+0x560>
  101ee8:	8b 45 9c             	mov    -0x64(%ebp),%eax
  101eeb:	83 e8 03             	sub    $0x3,%eax
  101eee:	c1 e0 07             	shl    $0x7,%eax
  101ef1:	83 c8 03             	or     $0x3,%eax
  101ef4:	c1 e7 0f             	shl    $0xf,%edi
  101ef7:	09 f8                	or     %edi,%eax
  101ef9:	89 45 e4             	mov    %eax,-0x1c(%ebp)
  101efc:	8b 7d 90             	mov    -0x70(%ebp),%edi
  101eff:	88 07                	mov    %al,(%edi)
  101f01:	8a 45 e5             	mov    -0x1b(%ebp),%al
  101f04:	88 47 01             	mov    %al,0x1(%edi)
  101f07:	8a 45 e6             	mov    -0x1a(%ebp),%al
  101f0a:	88 47 02             	mov    %al,0x2(%edi)
  101f0d:	8a 45 e7             	mov    -0x19(%ebp),%al
  101f10:	88 47 03             	mov    %al,0x3(%edi)
  101f13:	83 45 90 04          	addl   $0x4,-0x70(%ebp)
  101f17:	39 b5 78 ff ff ff    	cmp    %esi,-0x88(%ebp)
  101f1d:	0f 82 c4 00 00 00    	jb     101fe7 <qlz_compress+0x3a7>
  101f23:	f6 45 8c 01          	testb  $0x1,-0x74(%ebp)
  101f27:	0f 84 cb fd ff ff    	je     101cf8 <qlz_compress+0xb8>
  101f2d:	39 b5 68 ff ff ff    	cmp    %esi,-0x98(%ebp)
  101f33:	73 1d                	jae    101f52 <qlz_compress+0x312>
  101f35:	89 f0                	mov    %esi,%eax
  101f37:	2b 45 08             	sub    0x8(%ebp),%eax
  101f3a:	8b 4d 90             	mov    -0x70(%ebp),%ecx
  101f3d:	2b 8d 70 ff ff ff    	sub    -0x90(%ebp),%ecx
  101f43:	89 c2                	mov    %eax,%edx
  101f45:	c1 fa 05             	sar    $0x5,%edx
  101f48:	29 d0                	sub    %edx,%eax
  101f4a:	39 c1                	cmp    %eax,%ecx
  101f4c:	0f 8f 0c 03 00 00    	jg     10225e <qlz_compress+0x61e>
  101f52:	8b 45 8c             	mov    -0x74(%ebp),%eax
  101f55:	d1 e8                	shr    %eax
  101f57:	0d 00 00 00 80       	or     $0x80000000,%eax
  101f5c:	89 45 d4             	mov    %eax,-0x2c(%ebp)
  101f5f:	8b bd 7c ff ff ff    	mov    -0x84(%ebp),%edi
  101f65:	88 07                	mov    %al,(%edi)
  101f67:	8a 45 d5             	mov    -0x2b(%ebp),%al
  101f6a:	88 47 01             	mov    %al,0x1(%edi)
  101f6d:	8a 45 d6             	mov    -0x2a(%ebp),%al
  101f70:	88 47 02             	mov    %al,0x2(%edi)
  101f73:	8a 45 d7             	mov    -0x29(%ebp),%al
  101f76:	88 47 03             	mov    %al,0x3(%edi)
  101f79:	8b 45 90             	mov    -0x70(%ebp),%eax
  101f7c:	89 85 7c ff ff ff    	mov    %eax,-0x84(%ebp)
  101f82:	83 c0 04             	add    $0x4,%eax
  101f85:	89 45 90             	mov    %eax,-0x70(%ebp)
  101f88:	c7 45 8c 00 00 00 80 	movl   $0x80000000,-0x74(%ebp)
  101f8f:	8b bd 74 ff ff ff    	mov    -0x8c(%ebp),%edi
  101f95:	29 f7                	sub    %esi,%edi
  101f97:	81 ff fe 00 00 00    	cmp    $0xfe,%edi
  101f9d:	0f 8e 69 fd ff ff    	jle    101d0c <qlz_compress+0xcc>
  101fa3:	bf ff 00 00 00       	mov    $0xff,%edi
  101fa8:	e9 60 fd ff ff       	jmp    101d0d <qlz_compress+0xcd>
  101fad:	8d 76 00             	lea    0x0(%esi),%esi
  101fb0:	89 55 9c             	mov    %edx,-0x64(%ebp)
  101fb3:	89 45 84             	mov    %eax,-0x7c(%ebp)
  101fb6:	e9 65 fe ff ff       	jmp    101e20 <qlz_compress+0x1e0>
  101fbb:	90                   	nop
  101fbc:	c7 45 9c 00 00 00 00 	movl   $0x0,-0x64(%ebp)
  101fc3:	e9 e4 fd ff ff       	jmp    101dac <qlz_compress+0x16c>
  101fc8:	8a 06                	mov    (%esi),%al
  101fca:	88 45 a8             	mov    %al,-0x58(%ebp)
  101fcd:	8b 75 90             	mov    -0x70(%ebp),%esi
  101fd0:	88 06                	mov    %al,(%esi)
  101fd2:	ff 45 90             	incl   -0x70(%ebp)
  101fd5:	d1 6d 8c             	shrl   -0x74(%ebp)
  101fd8:	8b 75 80             	mov    -0x80(%ebp),%esi
  101fdb:	39 b5 78 ff ff ff    	cmp    %esi,-0x88(%ebp)
  101fe1:	0f 83 3c ff ff ff    	jae    101f23 <qlz_compress+0x2e3>
  101fe7:	8b 7d 14             	mov    0x14(%ebp),%edi
  101fea:	8b 4d 8c             	mov    -0x74(%ebp),%ecx
  101fed:	89 ca                	mov    %ecx,%edx
  101fef:	83 e2 01             	and    $0x1,%edx
  101ff2:	d1 e9                	shr    %ecx
  101ff4:	8b 9d 60 ff ff ff    	mov    -0xa0(%ebp),%ebx
  101ffa:	39 f3                	cmp    %esi,%ebx
  101ffc:	0f 82 94 00 00 00    	jb     102096 <qlz_compress+0x456>
  102002:	43                   	inc    %ebx
  102003:	8b 45 90             	mov    -0x70(%ebp),%eax
  102006:	89 5d a8             	mov    %ebx,-0x58(%ebp)
  102009:	8b 9d 7c ff ff ff    	mov    -0x84(%ebp),%ebx
  10200f:	89 7d 14             	mov    %edi,0x14(%ebp)
  102012:	8b 7d 8c             	mov    -0x74(%ebp),%edi
  102015:	eb 23                	jmp    10203a <qlz_compress+0x3fa>
  102017:	90                   	nop
  102018:	89 f9                	mov    %edi,%ecx
  10201a:	d1 e9                	shr    %ecx
  10201c:	89 4d a0             	mov    %ecx,-0x60(%ebp)
  10201f:	89 ca                	mov    %ecx,%edx
  102021:	83 e2 01             	and    $0x1,%edx
  102024:	89 55 a4             	mov    %edx,-0x5c(%ebp)
  102027:	89 f9                	mov    %edi,%ecx
  102029:	c1 e9 02             	shr    $0x2,%ecx
  10202c:	8b 7d a0             	mov    -0x60(%ebp),%edi
  10202f:	8a 16                	mov    (%esi),%dl
  102031:	88 10                	mov    %dl,(%eax)
  102033:	46                   	inc    %esi
  102034:	40                   	inc    %eax
  102035:	3b 75 a8             	cmp    -0x58(%ebp),%esi
  102038:	74 4a                	je     102084 <qlz_compress+0x444>
  10203a:	f7 c7 01 00 00 00    	test   $0x1,%edi
  102040:	74 d6                	je     102018 <qlz_compress+0x3d8>
  102042:	d1 ef                	shr    %edi
  102044:	89 fa                	mov    %edi,%edx
  102046:	81 ca 00 00 00 80    	or     $0x80000000,%edx
  10204c:	89 55 d0             	mov    %edx,-0x30(%ebp)
  10204f:	88 13                	mov    %dl,(%ebx)
  102051:	8a 4d d1             	mov    -0x2f(%ebp),%cl
  102054:	88 4b 01             	mov    %cl,0x1(%ebx)
  102057:	8a 4d d2             	mov    -0x2e(%ebp),%cl
  10205a:	88 4b 02             	mov    %cl,0x2(%ebx)
  10205d:	8a 4d d3             	mov    -0x2d(%ebp),%cl
  102060:	88 4b 03             	mov    %cl,0x3(%ebx)
  102063:	89 c3                	mov    %eax,%ebx
  102065:	83 c0 04             	add    $0x4,%eax
  102068:	b9 00 00 00 20       	mov    $0x20000000,%ecx
  10206d:	c7 45 a4 00 00 00 00 	movl   $0x0,-0x5c(%ebp)
  102074:	bf 00 00 00 40       	mov    $0x40000000,%edi
  102079:	8a 16                	mov    (%esi),%dl
  10207b:	88 10                	mov    %dl,(%eax)
  10207d:	46                   	inc    %esi
  10207e:	40                   	inc    %eax
  10207f:	3b 75 a8             	cmp    -0x58(%ebp),%esi
  102082:	75 b6                	jne    10203a <qlz_compress+0x3fa>
  102084:	89 7d 8c             	mov    %edi,-0x74(%ebp)
  102087:	89 45 90             	mov    %eax,-0x70(%ebp)
  10208a:	89 9d 7c ff ff ff    	mov    %ebx,-0x84(%ebp)
  102090:	8b 55 a4             	mov    -0x5c(%ebp),%edx
  102093:	8b 7d 14             	mov    0x14(%ebp),%edi
  102096:	85 d2                	test   %edx,%edx
  102098:	75 10                	jne    1020aa <qlz_compress+0x46a>
  10209a:	8b 45 8c             	mov    -0x74(%ebp),%eax
  10209d:	8d 76 00             	lea    0x0(%esi),%esi
  1020a0:	d1 e8                	shr    %eax
  1020a2:	a8 01                	test   $0x1,%al
  1020a4:	74 fa                	je     1020a0 <qlz_compress+0x460>
  1020a6:	89 c1                	mov    %eax,%ecx
  1020a8:	d1 e9                	shr    %ecx
  1020aa:	89 c8                	mov    %ecx,%eax
  1020ac:	0d 00 00 00 80       	or     $0x80000000,%eax
  1020b1:	89 45 cc             	mov    %eax,-0x34(%ebp)
  1020b4:	8b b5 7c ff ff ff    	mov    -0x84(%ebp),%esi
  1020ba:	88 06                	mov    %al,(%esi)
  1020bc:	8a 45 cd             	mov    -0x33(%ebp),%al
  1020bf:	88 46 01             	mov    %al,0x1(%esi)
  1020c2:	8a 45 ce             	mov    -0x32(%ebp),%al
  1020c5:	88 46 02             	mov    %al,0x2(%esi)
  1020c8:	8a 45 cf             	mov    -0x31(%ebp),%al
  1020cb:	88 46 03             	mov    %al,0x3(%esi)
  1020ce:	8b 45 90             	mov    -0x70(%ebp),%eax
  1020d1:	2b 85 70 ff ff ff    	sub    -0x90(%ebp),%eax
  1020d7:	83 f8 09             	cmp    $0x9,%eax
  1020da:	0f 8c 21 01 00 00    	jl     102201 <qlz_compress+0x5c1>
  1020e0:	03 85 6c ff ff ff    	add    -0x94(%ebp),%eax
  1020e6:	ba 01 00 00 00       	mov    $0x1,%edx
  1020eb:	c7 07 00 00 00 00    	movl   $0x0,(%edi)
  1020f1:	83 bd 6c ff ff ff 03 	cmpl   $0x3,-0x94(%ebp)
  1020f8:	0f 84 0d 01 00 00    	je     10220b <qlz_compress+0x5cb>
  1020fe:	83 ca 02             	or     $0x2,%edx
  102101:	8b 75 0c             	mov    0xc(%ebp),%esi
  102104:	88 16                	mov    %dl,(%esi)
  102106:	89 45 c4             	mov    %eax,-0x3c(%ebp)
  102109:	88 46 01             	mov    %al,0x1(%esi)
  10210c:	8a 4d c5             	mov    -0x3b(%ebp),%cl
  10210f:	88 4e 02             	mov    %cl,0x2(%esi)
  102112:	8a 4d c6             	mov    -0x3a(%ebp),%cl
  102115:	88 4e 03             	mov    %cl,0x3(%esi)
  102118:	8a 4d c7             	mov    -0x39(%ebp),%cl
  10211b:	88 4e 04             	mov    %cl,0x4(%esi)
  10211e:	8b 75 10             	mov    0x10(%ebp),%esi
  102121:	89 75 c8             	mov    %esi,-0x38(%ebp)
  102124:	8b 75 0c             	mov    0xc(%ebp),%esi
  102127:	8a 4d 10             	mov    0x10(%ebp),%cl
  10212a:	88 4e 05             	mov    %cl,0x5(%esi)
  10212d:	8a 4d c9             	mov    -0x37(%ebp),%cl
  102130:	88 4e 06             	mov    %cl,0x6(%esi)
  102133:	8a 4d ca             	mov    -0x36(%ebp),%cl
  102136:	88 4e 07             	mov    %cl,0x7(%esi)
  102139:	8a 4d cb             	mov    -0x35(%ebp),%cl
  10213c:	88 4e 08             	mov    %cl,0x8(%esi)
  10213f:	83 ca 4c             	or     $0x4c,%edx
  102142:	8b 75 0c             	mov    0xc(%ebp),%esi
  102145:	88 16                	mov    %dl,(%esi)
  102147:	81 c4 ac 00 00 00    	add    $0xac,%esp
  10214d:	5b                   	pop    %ebx
  10214e:	5e                   	pop    %esi
  10214f:	5f                   	pop    %edi
  102150:	5d                   	pop    %ebp
  102151:	c3                   	ret    
  102152:	66 90                	xchg   %ax,%ax
  102154:	39 45 84             	cmp    %eax,-0x7c(%ebp)
  102157:	0f 83 c3 fc ff ff    	jae    101e20 <qlz_compress+0x1e0>
  10215d:	e9 51 fe ff ff       	jmp    101fb3 <qlz_compress+0x373>
  102162:	83 ff 3f             	cmp    $0x3f,%edi
  102165:	76 68                	jbe    1021cf <qlz_compress+0x58f>
  102167:	81 ff ff 3f 00 00    	cmp    $0x3fff,%edi
  10216d:	76 74                	jbe    1021e3 <qlz_compress+0x5a3>
  10216f:	81 ff ff 03 00 00    	cmp    $0x3ff,%edi
  102175:	77 29                	ja     1021a0 <qlz_compress+0x560>
  102177:	8b 45 9c             	mov    -0x64(%ebp),%eax
  10217a:	8d 04 85 f4 ff ff ff 	lea    -0xc(,%eax,4),%eax
  102181:	83 c8 02             	or     $0x2,%eax
  102184:	c1 e7 06             	shl    $0x6,%edi
  102187:	09 f8                	or     %edi,%eax
  102189:	89 45 dc             	mov    %eax,-0x24(%ebp)
  10218c:	8b 7d 90             	mov    -0x70(%ebp),%edi
  10218f:	88 07                	mov    %al,(%edi)
  102191:	8a 45 dd             	mov    -0x23(%ebp),%al
  102194:	88 47 01             	mov    %al,0x1(%edi)
  102197:	83 45 90 02          	addl   $0x2,-0x70(%ebp)
  10219b:	e9 77 fd ff ff       	jmp    101f17 <qlz_compress+0x2d7>
  1021a0:	8b 45 9c             	mov    -0x64(%ebp),%eax
  1021a3:	8d 04 85 f8 ff ff ff 	lea    -0x8(,%eax,4),%eax
  1021aa:	83 c8 03             	or     $0x3,%eax
  1021ad:	c1 e7 07             	shl    $0x7,%edi
  1021b0:	09 f8                	or     %edi,%eax
  1021b2:	89 45 e0             	mov    %eax,-0x20(%ebp)
  1021b5:	8b 7d 90             	mov    -0x70(%ebp),%edi
  1021b8:	88 07                	mov    %al,(%edi)
  1021ba:	8a 45 e1             	mov    -0x1f(%ebp),%al
  1021bd:	88 47 01             	mov    %al,0x1(%edi)
  1021c0:	8a 45 e2             	mov    -0x1e(%ebp),%al
  1021c3:	88 47 02             	mov    %al,0x2(%edi)
  1021c6:	83 45 90 03          	addl   $0x3,-0x70(%ebp)
  1021ca:	e9 48 fd ff ff       	jmp    101f17 <qlz_compress+0x2d7>
  1021cf:	8d 04 bd 00 00 00 00 	lea    0x0(,%edi,4),%eax
  1021d6:	8b 7d 90             	mov    -0x70(%ebp),%edi
  1021d9:	88 07                	mov    %al,(%edi)
  1021db:	ff 45 90             	incl   -0x70(%ebp)
  1021de:	e9 34 fd ff ff       	jmp    101f17 <qlz_compress+0x2d7>
  1021e3:	8d 04 bd 01 00 00 00 	lea    0x1(,%edi,4),%eax
  1021ea:	89 45 d8             	mov    %eax,-0x28(%ebp)
  1021ed:	8b 7d 90             	mov    -0x70(%ebp),%edi
  1021f0:	88 07                	mov    %al,(%edi)
  1021f2:	8a 45 d9             	mov    -0x27(%ebp),%al
  1021f5:	88 47 01             	mov    %al,0x1(%edi)
  1021f8:	83 45 90 02          	addl   $0x2,-0x70(%ebp)
  1021fc:	e9 16 fd ff ff       	jmp    101f17 <qlz_compress+0x2d7>
  102201:	b8 09 00 00 00       	mov    $0x9,%eax
  102206:	e9 d5 fe ff ff       	jmp    1020e0 <qlz_compress+0x4a0>
  10220b:	8b 75 0c             	mov    0xc(%ebp),%esi
  10220e:	88 46 01             	mov    %al,0x1(%esi)
  102211:	8a 4d 10             	mov    0x10(%ebp),%cl
  102214:	88 4e 02             	mov    %cl,0x2(%esi)
  102217:	e9 23 ff ff ff       	jmp    10213f <qlz_compress+0x4ff>
  10221c:	8a 46 04             	mov    0x4(%esi),%al
  10221f:	38 41 04             	cmp    %al,0x4(%ecx)
  102222:	0f 85 ec 00 00 00    	jne    102314 <qlz_compress+0x6d4>
  102228:	83 ff 04             	cmp    $0x4,%edi
  10222b:	0f 86 e3 00 00 00    	jbe    102314 <qlz_compress+0x6d4>
  102231:	b8 04 00 00 00       	mov    $0x4,%eax
  102236:	89 ca                	mov    %ecx,%edx
  102238:	eb 06                	jmp    102240 <qlz_compress+0x600>
  10223a:	66 90                	xchg   %ax,%ax
  10223c:	39 f8                	cmp    %edi,%eax
  10223e:	74 09                	je     102249 <qlz_compress+0x609>
  102240:	40                   	inc    %eax
  102241:	8a 0c 06             	mov    (%esi,%eax,1),%cl
  102244:	38 0c 02             	cmp    %cl,(%edx,%eax,1)
  102247:	74 f3                	je     10223c <qlz_compress+0x5fc>
  102249:	89 45 9c             	mov    %eax,-0x64(%ebp)
  10224c:	e9 5b fb ff ff       	jmp    101dac <qlz_compress+0x16c>
  102251:	31 c0                	xor    %eax,%eax
  102253:	81 c4 ac 00 00 00    	add    $0xac,%esp
  102259:	5b                   	pop    %ebx
  10225a:	5e                   	pop    %esi
  10225b:	5f                   	pop    %edi
  10225c:	5d                   	pop    %ebp
  10225d:	c3                   	ret    
  10225e:	8b 7d 14             	mov    0x14(%ebp),%edi
  102261:	8b 95 70 ff ff ff    	mov    -0x90(%ebp),%edx
  102267:	85 d2                	test   %edx,%edx
  102269:	74 7c                	je     1022e7 <qlz_compress+0x6a7>
  10226b:	8b 45 08             	mov    0x8(%ebp),%eax
  10226e:	85 c0                	test   %eax,%eax
  102270:	74 75                	je     1022e7 <qlz_compress+0x6a7>
  102272:	8b 45 08             	mov    0x8(%ebp),%eax
  102275:	03 45 10             	add    0x10(%ebp),%eax
  102278:	39 85 70 ff ff ff    	cmp    %eax,-0x90(%ebp)
  10227e:	73 40                	jae    1022c0 <qlz_compress+0x680>
  102280:	8b b5 70 ff ff ff    	mov    -0x90(%ebp),%esi
  102286:	3b 75 08             	cmp    0x8(%ebp),%esi
  102289:	76 35                	jbe    1022c0 <qlz_compress+0x680>
  10228b:	8b 8d 70 ff ff ff    	mov    -0x90(%ebp),%ecx
  102291:	03 4d 10             	add    0x10(%ebp),%ecx
  102294:	8b 55 10             	mov    0x10(%ebp),%edx
  102297:	f7 da                	neg    %edx
  102299:	01 d0                	add    %edx,%eax
  10229b:	01 ca                	add    %ecx,%edx
  10229d:	8b 8d 64 ff ff ff    	mov    -0x9c(%ebp),%ecx
  1022a3:	8a 1c 08             	mov    (%eax,%ecx,1),%bl
  1022a6:	88 1c 0a             	mov    %bl,(%edx,%ecx,1)
  1022a9:	49                   	dec    %ecx
  1022aa:	83 f9 ff             	cmp    $0xffffffff,%ecx
  1022ad:	75 f4                	jne    1022a3 <qlz_compress+0x663>
  1022af:	8b 85 6c ff ff ff    	mov    -0x94(%ebp),%eax
  1022b5:	03 45 10             	add    0x10(%ebp),%eax
  1022b8:	31 d2                	xor    %edx,%edx
  1022ba:	e9 2c fe ff ff       	jmp    1020eb <qlz_compress+0x4ab>
  1022bf:	90                   	nop
  1022c0:	31 c0                	xor    %eax,%eax
  1022c2:	8b 55 08             	mov    0x8(%ebp),%edx
  1022c5:	8b b5 70 ff ff ff    	mov    -0x90(%ebp),%esi
  1022cb:	8a 0c 02             	mov    (%edx,%eax,1),%cl
  1022ce:	88 0c 06             	mov    %cl,(%esi,%eax,1)
  1022d1:	40                   	inc    %eax
  1022d2:	3b 45 10             	cmp    0x10(%ebp),%eax
  1022d5:	75 ee                	jne    1022c5 <qlz_compress+0x685>
  1022d7:	8b 85 6c ff ff ff    	mov    -0x94(%ebp),%eax
  1022dd:	03 45 10             	add    0x10(%ebp),%eax
  1022e0:	31 d2                	xor    %edx,%edx
  1022e2:	e9 04 fe ff ff       	jmp    1020eb <qlz_compress+0x4ab>
  1022e7:	c7 44 24 08 08 00 00 	movl   $0x8,0x8(%esp)
  1022ee:	00 
  1022ef:	c7 44 24 04 34 53 10 	movl   $0x105334,0x4(%esp)
  1022f6:	00 
  1022f7:	c7 04 24 b0 4f 10 00 	movl   $0x104fb0,(%esp)
  1022fe:	e8 31 2c 00 00       	call   104f34 <printf>
  102303:	c7 04 24 01 00 00 00 	movl   $0x1,(%esp)
  10230a:	e8 1d dd ff ff       	call   10002c <_halt>
  10230f:	e9 5e ff ff ff       	jmp    102272 <qlz_compress+0x632>
  102314:	c7 45 9c 04 00 00 00 	movl   $0x4,-0x64(%ebp)
  10231b:	e9 8c fa ff ff       	jmp    101dac <qlz_compress+0x16c>
  102320:	8b 85 70 ff ff ff    	mov    -0x90(%ebp),%eax
  102326:	89 85 7c ff ff ff    	mov    %eax,-0x84(%ebp)
  10232c:	8b 75 08             	mov    0x8(%ebp),%esi
  10232f:	b9 00 00 00 40       	mov    $0x40000000,%ecx
  102334:	31 d2                	xor    %edx,%edx
  102336:	c7 45 8c 00 00 00 80 	movl   $0x80000000,-0x74(%ebp)
  10233d:	e9 b2 fc ff ff       	jmp    101ff4 <qlz_compress+0x3b4>
  102342:	66 90                	xchg   %ax,%ax

00102344 <qlz_decompress>:
  102344:	55                   	push   %ebp
  102345:	89 e5                	mov    %esp,%ebp
  102347:	57                   	push   %edi
  102348:	56                   	push   %esi
  102349:	53                   	push   %ebx
  10234a:	83 ec 2c             	sub    $0x2c,%esp
  10234d:	8b 5d 08             	mov    0x8(%ebp),%ebx
  102350:	8b 75 0c             	mov    0xc(%ebp),%esi
  102353:	89 1c 24             	mov    %ebx,(%esp)
  102356:	e8 2d f8 ff ff       	call   101b88 <qlz_size_decompressed>
  10235b:	89 45 e0             	mov    %eax,-0x20(%ebp)
  10235e:	8a 03                	mov    (%ebx),%al
  102360:	a8 01                	test   $0x1,%al
  102362:	75 7a                	jne    1023de <qlz_decompress+0x9a>
  102364:	83 e0 02             	and    $0x2,%eax
  102367:	3c 01                	cmp    $0x1,%al
  102369:	19 c0                	sbb    %eax,%eax
  10236b:	83 e0 fa             	and    $0xfffffffa,%eax
  10236e:	8d 5c 03 09          	lea    0x9(%ebx,%eax,1),%ebx
  102372:	85 f6                	test   %esi,%esi
  102374:	0f 84 e5 01 00 00    	je     10255f <qlz_decompress+0x21b>
  10237a:	85 db                	test   %ebx,%ebx
  10237c:	0f 84 dd 01 00 00    	je     10255f <qlz_decompress+0x21b>
  102382:	8b 45 e0             	mov    -0x20(%ebp),%eax
  102385:	8d 0c 03             	lea    (%ebx,%eax,1),%ecx
  102388:	39 ce                	cmp    %ecx,%esi
  10238a:	72 2b                	jb     1023b7 <qlz_decompress+0x73>
  10238c:	31 c0                	xor    %eax,%eax
  10238e:	8b 55 e0             	mov    -0x20(%ebp),%edx
  102391:	85 d2                	test   %edx,%edx
  102393:	74 0e                	je     1023a3 <qlz_decompress+0x5f>
  102395:	8b 55 e0             	mov    -0x20(%ebp),%edx
  102398:	8a 0c 03             	mov    (%ebx,%eax,1),%cl
  10239b:	88 0c 06             	mov    %cl,(%esi,%eax,1)
  10239e:	40                   	inc    %eax
  10239f:	39 d0                	cmp    %edx,%eax
  1023a1:	75 f5                	jne    102398 <qlz_decompress+0x54>
  1023a3:	8b 45 10             	mov    0x10(%ebp),%eax
  1023a6:	c7 00 00 00 00 00    	movl   $0x0,(%eax)
  1023ac:	8b 45 e0             	mov    -0x20(%ebp),%eax
  1023af:	83 c4 2c             	add    $0x2c,%esp
  1023b2:	5b                   	pop    %ebx
  1023b3:	5e                   	pop    %esi
  1023b4:	5f                   	pop    %edi
  1023b5:	5d                   	pop    %ebp
  1023b6:	c3                   	ret    
  1023b7:	39 de                	cmp    %ebx,%esi
  1023b9:	76 d1                	jbe    10238c <qlz_decompress+0x48>
  1023bb:	8b 55 e0             	mov    -0x20(%ebp),%edx
  1023be:	01 d6                	add    %edx,%esi
  1023c0:	89 d0                	mov    %edx,%eax
  1023c2:	48                   	dec    %eax
  1023c3:	85 d2                	test   %edx,%edx
  1023c5:	74 dc                	je     1023a3 <qlz_decompress+0x5f>
  1023c7:	f7 da                	neg    %edx
  1023c9:	01 d1                	add    %edx,%ecx
  1023cb:	01 f2                	add    %esi,%edx
  1023cd:	8d 76 00             	lea    0x0(%esi),%esi
  1023d0:	8a 1c 01             	mov    (%ecx,%eax,1),%bl
  1023d3:	88 1c 02             	mov    %bl,(%edx,%eax,1)
  1023d6:	48                   	dec    %eax
  1023d7:	83 f8 ff             	cmp    $0xffffffff,%eax
  1023da:	75 f4                	jne    1023d0 <qlz_decompress+0x8c>
  1023dc:	eb c5                	jmp    1023a3 <qlz_decompress+0x5f>
  1023de:	83 e0 02             	and    $0x2,%eax
  1023e1:	3c 01                	cmp    $0x1,%al
  1023e3:	19 c0                	sbb    %eax,%eax
  1023e5:	83 e0 fa             	and    $0xfffffffa,%eax
  1023e8:	8d 44 03 09          	lea    0x9(%ebx,%eax,1),%eax
  1023ec:	89 45 e4             	mov    %eax,-0x1c(%ebp)
  1023ef:	8b 45 e0             	mov    -0x20(%ebp),%eax
  1023f2:	8d 44 06 ff          	lea    -0x1(%esi,%eax,1),%eax
  1023f6:	89 45 d8             	mov    %eax,-0x28(%ebp)
  1023f9:	83 e8 0a             	sub    $0xa,%eax
  1023fc:	89 45 dc             	mov    %eax,-0x24(%ebp)
  1023ff:	bb 01 00 00 00       	mov    $0x1,%ebx
  102404:	83 fb 01             	cmp    $0x1,%ebx
  102407:	74 61                	je     10246a <qlz_decompress+0x126>
  102409:	8b 55 e4             	mov    -0x1c(%ebp),%edx
  10240c:	31 c9                	xor    %ecx,%ecx
  10240e:	31 ff                	xor    %edi,%edi
  102410:	0f b6 02             	movzbl (%edx),%eax
  102413:	d3 e0                	shl    %cl,%eax
  102415:	09 c7                	or     %eax,%edi
  102417:	42                   	inc    %edx
  102418:	83 c1 08             	add    $0x8,%ecx
  10241b:	83 f9 20             	cmp    $0x20,%ecx
  10241e:	75 f0                	jne    102410 <qlz_decompress+0xcc>
  102420:	f6 c3 01             	test   $0x1,%bl
  102423:	74 6b                	je     102490 <qlz_decompress+0x14c>
  102425:	d1 eb                	shr    %ebx
  102427:	f7 c7 03 00 00 00    	test   $0x3,%edi
  10242d:	0f 85 a9 00 00 00    	jne    1024dc <qlz_decompress+0x198>
  102433:	ff 45 e4             	incl   -0x1c(%ebp)
  102436:	bf 03 00 00 00       	mov    $0x3,%edi
  10243b:	c7 44 24 08 95 00 00 	movl   $0x95,0x8(%esp)
  102442:	00 
  102443:	c7 44 24 04 47 53 10 	movl   $0x105347,0x4(%esp)
  10244a:	00 
  10244b:	c7 04 24 b0 4f 10 00 	movl   $0x104fb0,(%esp)
  102452:	e8 dd 2a 00 00       	call   104f34 <printf>
  102457:	c7 04 24 01 00 00 00 	movl   $0x1,(%esp)
  10245e:	e8 c9 db ff ff       	call   10002c <_halt>
  102463:	01 fe                	add    %edi,%esi
  102465:	83 fb 01             	cmp    $0x1,%ebx
  102468:	75 9f                	jne    102409 <qlz_decompress+0xc5>
  10246a:	8b 55 e4             	mov    -0x1c(%ebp),%edx
  10246d:	31 c9                	xor    %ecx,%ecx
  10246f:	30 db                	xor    %bl,%bl
  102471:	8d 76 00             	lea    0x0(%esi),%esi
  102474:	0f b6 02             	movzbl (%edx),%eax
  102477:	d3 e0                	shl    %cl,%eax
  102479:	09 c3                	or     %eax,%ebx
  10247b:	42                   	inc    %edx
  10247c:	83 c1 08             	add    $0x8,%ecx
  10247f:	83 f9 20             	cmp    $0x20,%ecx
  102482:	75 f0                	jne    102474 <qlz_decompress+0x130>
  102484:	83 45 e4 04          	addl   $0x4,-0x1c(%ebp)
  102488:	e9 7c ff ff ff       	jmp    102409 <qlz_decompress+0xc5>
  10248d:	8d 76 00             	lea    0x0(%esi),%esi
  102490:	39 75 dc             	cmp    %esi,-0x24(%ebp)
  102493:	0f 86 91 00 00 00    	jbe    10252a <qlz_decompress+0x1e6>
  102499:	89 d8                	mov    %ebx,%eax
  10249b:	83 e0 0f             	and    $0xf,%eax
  10249e:	8b 3c 85 a0 53 10 00 	mov    0x1053a0(,%eax,4),%edi
  1024a5:	c7 44 24 08 95 00 00 	movl   $0x95,0x8(%esp)
  1024ac:	00 
  1024ad:	c7 44 24 04 47 53 10 	movl   $0x105347,0x4(%esp)
  1024b4:	00 
  1024b5:	c7 04 24 b0 4f 10 00 	movl   $0x104fb0,(%esp)
  1024bc:	e8 73 2a 00 00       	call   104f34 <printf>
  1024c1:	c7 04 24 01 00 00 00 	movl   $0x1,(%esp)
  1024c8:	e8 5f db ff ff       	call   10002c <_halt>
  1024cd:	89 f9                	mov    %edi,%ecx
  1024cf:	d3 eb                	shr    %cl,%ebx
  1024d1:	01 fe                	add    %edi,%esi
  1024d3:	01 7d e4             	add    %edi,-0x1c(%ebp)
  1024d6:	e9 29 ff ff ff       	jmp    102404 <qlz_decompress+0xc0>
  1024db:	90                   	nop
  1024dc:	f7 c7 02 00 00 00    	test   $0x2,%edi
  1024e2:	75 10                	jne    1024f4 <qlz_decompress+0x1b0>
  1024e4:	83 45 e4 02          	addl   $0x2,-0x1c(%ebp)
  1024e8:	bf 03 00 00 00       	mov    $0x3,%edi
  1024ed:	e9 49 ff ff ff       	jmp    10243b <qlz_decompress+0xf7>
  1024f2:	66 90                	xchg   %ax,%ax
  1024f4:	f7 c7 01 00 00 00    	test   $0x1,%edi
  1024fa:	75 12                	jne    10250e <qlz_decompress+0x1ca>
  1024fc:	c1 ef 02             	shr    $0x2,%edi
  1024ff:	83 e7 0f             	and    $0xf,%edi
  102502:	83 c7 03             	add    $0x3,%edi
  102505:	83 45 e4 02          	addl   $0x2,-0x1c(%ebp)
  102509:	e9 2d ff ff ff       	jmp    10243b <qlz_decompress+0xf7>
  10250e:	89 f8                	mov    %edi,%eax
  102510:	83 e0 7f             	and    $0x7f,%eax
  102513:	83 f8 03             	cmp    $0x3,%eax
  102516:	74 74                	je     10258c <qlz_decompress+0x248>
  102518:	c1 ef 02             	shr    $0x2,%edi
  10251b:	83 e7 1f             	and    $0x1f,%edi
  10251e:	83 c7 02             	add    $0x2,%edi
  102521:	83 45 e4 03          	addl   $0x3,-0x1c(%ebp)
  102525:	e9 11 ff ff ff       	jmp    10243b <qlz_decompress+0xf7>
  10252a:	8b 7d d8             	mov    -0x28(%ebp),%edi
  10252d:	89 f8                	mov    %edi,%eax
  10252f:	40                   	inc    %eax
  102530:	39 f7                	cmp    %esi,%edi
  102532:	0f 82 6b fe ff ff    	jb     1023a3 <qlz_decompress+0x5f>
  102538:	8b 55 e4             	mov    -0x1c(%ebp),%edx
  10253b:	eb 13                	jmp    102550 <qlz_decompress+0x20c>
  10253d:	8d 76 00             	lea    0x0(%esi),%esi
  102540:	d1 eb                	shr    %ebx
  102542:	8a 0a                	mov    (%edx),%cl
  102544:	88 0e                	mov    %cl,(%esi)
  102546:	46                   	inc    %esi
  102547:	42                   	inc    %edx
  102548:	39 c6                	cmp    %eax,%esi
  10254a:	0f 84 53 fe ff ff    	je     1023a3 <qlz_decompress+0x5f>
  102550:	83 fb 01             	cmp    $0x1,%ebx
  102553:	75 eb                	jne    102540 <qlz_decompress+0x1fc>
  102555:	83 c2 04             	add    $0x4,%edx
  102558:	bb 00 00 00 40       	mov    $0x40000000,%ebx
  10255d:	eb e3                	jmp    102542 <qlz_decompress+0x1fe>
  10255f:	c7 44 24 08 08 00 00 	movl   $0x8,0x8(%esp)
  102566:	00 
  102567:	c7 44 24 04 34 53 10 	movl   $0x105334,0x4(%esp)
  10256e:	00 
  10256f:	c7 04 24 b0 4f 10 00 	movl   $0x104fb0,(%esp)
  102576:	e8 b9 29 00 00       	call   104f34 <printf>
  10257b:	c7 04 24 01 00 00 00 	movl   $0x1,(%esp)
  102582:	e8 a5 da ff ff       	call   10002c <_halt>
  102587:	e9 f6 fd ff ff       	jmp    102382 <qlz_decompress+0x3e>
  10258c:	89 f8                	mov    %edi,%eax
  10258e:	c1 e8 07             	shr    $0x7,%eax
  102591:	0f b6 f8             	movzbl %al,%edi
  102594:	83 c7 03             	add    $0x3,%edi
  102597:	83 45 e4 04          	addl   $0x4,-0x1c(%ebp)
  10259b:	e9 9b fe ff ff       	jmp    10243b <qlz_decompress+0xf7>

001025a0 <bench_md5_prepare>:
  1025a0:	55                   	push   %ebp
  1025a1:	89 e5                	mov    %esp,%ebp
  1025a3:	56                   	push   %esi
  1025a4:	53                   	push   %ebx
  1025a5:	83 ec 10             	sub    $0x10,%esp
  1025a8:	a1 b8 5a 10 00       	mov    0x105ab8,%eax
  1025ad:	8b 00                	mov    (%eax),%eax
  1025af:	a3 64 5a 10 00       	mov    %eax,0x105a64
  1025b4:	c7 04 24 01 00 00 00 	movl   $0x1,(%esp)
  1025bb:	e8 ec ee ff ff       	call   1014ac <bench_srand>
  1025c0:	a1 64 5a 10 00       	mov    0x105a64,%eax
  1025c5:	89 04 24             	mov    %eax,(%esp)
  1025c8:	e8 07 ee ff ff       	call   1013d4 <bench_alloc>
  1025cd:	a3 60 5a 10 00       	mov    %eax,0x105a60
  1025d2:	8b 15 64 5a 10 00    	mov    0x105a64,%edx
  1025d8:	85 d2                	test   %edx,%edx
  1025da:	7e 20                	jle    1025fc <bench_md5_prepare+0x5c>
  1025dc:	89 c6                	mov    %eax,%esi
  1025de:	31 db                	xor    %ebx,%ebx
  1025e0:	eb 08                	jmp    1025ea <bench_md5_prepare+0x4a>
  1025e2:	66 90                	xchg   %ax,%ax
  1025e4:	8b 35 60 5a 10 00    	mov    0x105a60,%esi
  1025ea:	01 de                	add    %ebx,%esi
  1025ec:	e8 cf ee ff ff       	call   1014c0 <bench_rand>
  1025f1:	88 06                	mov    %al,(%esi)
  1025f3:	43                   	inc    %ebx
  1025f4:	39 1d 64 5a 10 00    	cmp    %ebx,0x105a64
  1025fa:	7f e8                	jg     1025e4 <bench_md5_prepare+0x44>
  1025fc:	c7 04 24 10 00 00 00 	movl   $0x10,(%esp)
  102603:	e8 cc ed ff ff       	call   1013d4 <bench_alloc>
  102608:	a3 5c 5a 10 00       	mov    %eax,0x105a5c
  10260d:	83 c4 10             	add    $0x10,%esp
  102610:	5b                   	pop    %ebx
  102611:	5e                   	pop    %esi
  102612:	5d                   	pop    %ebp
  102613:	c3                   	ret    

00102614 <bench_md5_run>:
  102614:	55                   	push   %ebp
  102615:	89 e5                	mov    %esp,%ebp
  102617:	57                   	push   %edi
  102618:	56                   	push   %esi
  102619:	53                   	push   %ebx
  10261a:	83 ec 64             	sub    $0x64,%esp
  10261d:	a1 5c 5a 10 00       	mov    0x105a5c,%eax
  102622:	89 45 90             	mov    %eax,-0x70(%ebp)
  102625:	8b 15 64 5a 10 00    	mov    0x105a64,%edx
  10262b:	a1 60 5a 10 00       	mov    0x105a60,%eax
  102630:	89 45 98             	mov    %eax,-0x68(%ebp)
  102633:	8d 4a 01             	lea    0x1(%edx),%ecx
  102636:	89 c8                	mov    %ecx,%eax
  102638:	83 e0 3f             	and    $0x3f,%eax
  10263b:	83 f8 38             	cmp    $0x38,%eax
  10263e:	0f 84 06 02 00 00    	je     10284a <bench_md5_run+0x236>
  102644:	89 c8                	mov    %ecx,%eax
  102646:	66 90                	xchg   %ax,%ax
  102648:	40                   	inc    %eax
  102649:	89 c3                	mov    %eax,%ebx
  10264b:	83 e3 3f             	and    $0x3f,%ebx
  10264e:	83 fb 38             	cmp    $0x38,%ebx
  102651:	75 f5                	jne    102648 <bench_md5_run+0x34>
  102653:	89 45 94             	mov    %eax,-0x6c(%ebp)
  102656:	8b 7d 98             	mov    -0x68(%ebp),%edi
  102659:	c6 04 17 80          	movb   $0x80,(%edi,%edx,1)
  10265d:	39 c1                	cmp    %eax,%ecx
  10265f:	0f 83 f6 01 00 00    	jae    10285b <bench_md5_run+0x247>
  102665:	8b 45 98             	mov    -0x68(%ebp),%eax
  102668:	01 c1                	add    %eax,%ecx
  10266a:	03 45 94             	add    -0x6c(%ebp),%eax
  10266d:	8d 76 00             	lea    0x0(%esi),%esi
  102670:	c6 01 00             	movb   $0x0,(%ecx)
  102673:	41                   	inc    %ecx
  102674:	39 c1                	cmp    %eax,%ecx
  102676:	75 f8                	jne    102670 <bench_md5_run+0x5c>
  102678:	8d 0c d5 00 00 00 00 	lea    0x0(,%edx,8),%ecx
  10267f:	88 08                	mov    %cl,(%eax)
  102681:	89 cb                	mov    %ecx,%ebx
  102683:	c1 eb 08             	shr    $0x8,%ebx
  102686:	88 58 01             	mov    %bl,0x1(%eax)
  102689:	89 cb                	mov    %ecx,%ebx
  10268b:	c1 eb 10             	shr    $0x10,%ebx
  10268e:	88 58 02             	mov    %bl,0x2(%eax)
  102691:	c1 e9 18             	shr    $0x18,%ecx
  102694:	88 48 03             	mov    %cl,0x3(%eax)
  102697:	8b 45 98             	mov    -0x68(%ebp),%eax
  10269a:	8b 7d 94             	mov    -0x6c(%ebp),%edi
  10269d:	8d 44 38 04          	lea    0x4(%eax,%edi,1),%eax
  1026a1:	c1 ea 1d             	shr    $0x1d,%edx
  1026a4:	88 10                	mov    %dl,(%eax)
  1026a6:	c6 40 01 00          	movb   $0x0,0x1(%eax)
  1026aa:	c6 40 02 00          	movb   $0x0,0x2(%eax)
  1026ae:	c6 40 03 00          	movb   $0x0,0x3(%eax)
  1026b2:	c7 45 9c 76 54 32 10 	movl   $0x10325476,-0x64(%ebp)
  1026b9:	c7 45 a0 fe dc ba 98 	movl   $0x98badcfe,-0x60(%ebp)
  1026c0:	c7 45 a4 89 ab cd ef 	movl   $0xefcdab89,-0x5c(%ebp)
  1026c7:	c7 45 a8 01 23 45 67 	movl   $0x67452301,-0x58(%ebp)
  1026ce:	c7 45 ac 00 00 00 00 	movl   $0x0,-0x54(%ebp)
  1026d5:	8d 76 00             	lea    0x0(%esi),%esi
  1026d8:	8b 55 98             	mov    -0x68(%ebp),%edx
  1026db:	03 55 ac             	add    -0x54(%ebp),%edx
  1026de:	31 c9                	xor    %ecx,%ecx
  1026e0:	0f b6 42 01          	movzbl 0x1(%edx),%eax
  1026e4:	c1 e0 08             	shl    $0x8,%eax
  1026e7:	0f b6 5a 02          	movzbl 0x2(%edx),%ebx
  1026eb:	c1 e3 10             	shl    $0x10,%ebx
  1026ee:	09 d8                	or     %ebx,%eax
  1026f0:	0f b6 1a             	movzbl (%edx),%ebx
  1026f3:	09 d8                	or     %ebx,%eax
  1026f5:	0f b6 5a 03          	movzbl 0x3(%edx),%ebx
  1026f9:	c1 e3 18             	shl    $0x18,%ebx
  1026fc:	09 d8                	or     %ebx,%eax
  1026fe:	89 44 8d b4          	mov    %eax,-0x4c(%ebp,%ecx,4)
  102702:	41                   	inc    %ecx
  102703:	83 c2 04             	add    $0x4,%edx
  102706:	83 f9 10             	cmp    $0x10,%ecx
  102709:	75 d5                	jne    1026e0 <bench_md5_run+0xcc>
  10270b:	8b 45 a8             	mov    -0x58(%ebp),%eax
  10270e:	89 45 b0             	mov    %eax,-0x50(%ebp)
  102711:	8b 75 9c             	mov    -0x64(%ebp),%esi
  102714:	8b 7d a0             	mov    -0x60(%ebp),%edi
  102717:	8b 5d a4             	mov    -0x5c(%ebp),%ebx
  10271a:	31 c0                	xor    %eax,%eax
  10271c:	eb 3d                	jmp    10275b <bench_md5_run+0x147>
  10271e:	66 90                	xchg   %ax,%ax
  102720:	89 f2                	mov    %esi,%edx
  102722:	f7 d2                	not    %edx
  102724:	21 fa                	and    %edi,%edx
  102726:	89 f1                	mov    %esi,%ecx
  102728:	21 d9                	and    %ebx,%ecx
  10272a:	09 ca                	or     %ecx,%edx
  10272c:	8d 4c 80 01          	lea    0x1(%eax,%eax,4),%ecx
  102730:	83 e1 0f             	and    $0xf,%ecx
  102733:	03 14 85 e0 54 10 00 	add    0x1054e0(,%eax,4),%edx
  10273a:	03 54 8d b4          	add    -0x4c(%ebp,%ecx,4),%edx
  10273e:	03 55 b0             	add    -0x50(%ebp),%edx
  102741:	8b 0c 85 e0 53 10 00 	mov    0x1053e0(,%eax,4),%ecx
  102748:	d3 c2                	rol    %cl,%edx
  10274a:	01 da                	add    %ebx,%edx
  10274c:	40                   	inc    %eax
  10274d:	83 f8 40             	cmp    $0x40,%eax
  102750:	74 52                	je     1027a4 <bench_md5_run+0x190>
  102752:	89 75 b0             	mov    %esi,-0x50(%ebp)
  102755:	89 fe                	mov    %edi,%esi
  102757:	89 df                	mov    %ebx,%edi
  102759:	89 d3                	mov    %edx,%ebx
  10275b:	83 f8 0f             	cmp    $0xf,%eax
  10275e:	76 1c                	jbe    10277c <bench_md5_run+0x168>
  102760:	83 f8 1f             	cmp    $0x1f,%eax
  102763:	76 bb                	jbe    102720 <bench_md5_run+0x10c>
  102765:	83 f8 2f             	cmp    $0x2f,%eax
  102768:	77 22                	ja     10278c <bench_md5_run+0x178>
  10276a:	89 fa                	mov    %edi,%edx
  10276c:	31 da                	xor    %ebx,%edx
  10276e:	31 f2                	xor    %esi,%edx
  102770:	8d 0c 00             	lea    (%eax,%eax,1),%ecx
  102773:	8d 4c 08 05          	lea    0x5(%eax,%ecx,1),%ecx
  102777:	83 e1 0f             	and    $0xf,%ecx
  10277a:	eb b7                	jmp    102733 <bench_md5_run+0x11f>
  10277c:	89 da                	mov    %ebx,%edx
  10277e:	f7 d2                	not    %edx
  102780:	21 f2                	and    %esi,%edx
  102782:	89 f9                	mov    %edi,%ecx
  102784:	21 d9                	and    %ebx,%ecx
  102786:	09 ca                	or     %ecx,%edx
  102788:	89 c1                	mov    %eax,%ecx
  10278a:	eb a7                	jmp    102733 <bench_md5_run+0x11f>
  10278c:	89 f2                	mov    %esi,%edx
  10278e:	f7 d2                	not    %edx
  102790:	09 da                	or     %ebx,%edx
  102792:	31 fa                	xor    %edi,%edx
  102794:	8d 0c 00             	lea    (%eax,%eax,1),%ecx
  102797:	01 c1                	add    %eax,%ecx
  102799:	01 c9                	add    %ecx,%ecx
  10279b:	01 c1                	add    %eax,%ecx
  10279d:	83 e1 0f             	and    $0xf,%ecx
  1027a0:	eb 91                	jmp    102733 <bench_md5_run+0x11f>
  1027a2:	66 90                	xchg   %ax,%ax
  1027a4:	01 75 a8             	add    %esi,-0x58(%ebp)
  1027a7:	01 55 a4             	add    %edx,-0x5c(%ebp)
  1027aa:	01 5d a0             	add    %ebx,-0x60(%ebp)
  1027ad:	01 7d 9c             	add    %edi,-0x64(%ebp)
  1027b0:	83 45 ac 40          	addl   $0x40,-0x54(%ebp)
  1027b4:	8b 45 94             	mov    -0x6c(%ebp),%eax
  1027b7:	39 45 ac             	cmp    %eax,-0x54(%ebp)
  1027ba:	0f 82 18 ff ff ff    	jb     1026d8 <bench_md5_run+0xc4>
  1027c0:	8b 7d 90             	mov    -0x70(%ebp),%edi
  1027c3:	8b 75 a8             	mov    -0x58(%ebp),%esi
  1027c6:	89 f0                	mov    %esi,%eax
  1027c8:	88 07                	mov    %al,(%edi)
  1027ca:	89 f0                	mov    %esi,%eax
  1027cc:	c1 e8 08             	shr    $0x8,%eax
  1027cf:	88 47 01             	mov    %al,0x1(%edi)
  1027d2:	89 f0                	mov    %esi,%eax
  1027d4:	c1 e8 10             	shr    $0x10,%eax
  1027d7:	88 47 02             	mov    %al,0x2(%edi)
  1027da:	89 f0                	mov    %esi,%eax
  1027dc:	c1 e8 18             	shr    $0x18,%eax
  1027df:	88 47 03             	mov    %al,0x3(%edi)
  1027e2:	8b 75 a4             	mov    -0x5c(%ebp),%esi
  1027e5:	89 f0                	mov    %esi,%eax
  1027e7:	88 47 04             	mov    %al,0x4(%edi)
  1027ea:	89 f0                	mov    %esi,%eax
  1027ec:	c1 e8 08             	shr    $0x8,%eax
  1027ef:	88 47 05             	mov    %al,0x5(%edi)
  1027f2:	89 f0                	mov    %esi,%eax
  1027f4:	c1 e8 10             	shr    $0x10,%eax
  1027f7:	88 47 06             	mov    %al,0x6(%edi)
  1027fa:	89 f0                	mov    %esi,%eax
  1027fc:	c1 e8 18             	shr    $0x18,%eax
  1027ff:	88 47 07             	mov    %al,0x7(%edi)
  102802:	8b 75 a0             	mov    -0x60(%ebp),%esi
  102805:	89 f0                	mov    %esi,%eax
  102807:	88 47 08             	mov    %al,0x8(%edi)
  10280a:	89 f0                	mov    %esi,%eax
  10280c:	c1 e8 08             	shr    $0x8,%eax
  10280f:	88 47 09             	mov    %al,0x9(%edi)
  102812:	89 f0                	mov    %esi,%eax
  102814:	c1 e8 10             	shr    $0x10,%eax
  102817:	88 47 0a             	mov    %al,0xa(%edi)
  10281a:	89 f0                	mov    %esi,%eax
  10281c:	c1 e8 18             	shr    $0x18,%eax
  10281f:	88 47 0b             	mov    %al,0xb(%edi)
  102822:	8b 75 9c             	mov    -0x64(%ebp),%esi
  102825:	89 f0                	mov    %esi,%eax
  102827:	88 47 0c             	mov    %al,0xc(%edi)
  10282a:	89 f0                	mov    %esi,%eax
  10282c:	c1 e8 08             	shr    $0x8,%eax
  10282f:	88 47 0d             	mov    %al,0xd(%edi)
  102832:	89 f0                	mov    %esi,%eax
  102834:	c1 e8 10             	shr    $0x10,%eax
  102837:	88 47 0e             	mov    %al,0xe(%edi)
  10283a:	89 f0                	mov    %esi,%eax
  10283c:	c1 e8 18             	shr    $0x18,%eax
  10283f:	88 47 0f             	mov    %al,0xf(%edi)
  102842:	83 c4 64             	add    $0x64,%esp
  102845:	5b                   	pop    %ebx
  102846:	5e                   	pop    %esi
  102847:	5f                   	pop    %edi
  102848:	5d                   	pop    %ebp
  102849:	c3                   	ret    
  10284a:	8b 45 98             	mov    -0x68(%ebp),%eax
  10284d:	c6 04 10 80          	movb   $0x80,(%eax,%edx,1)
  102851:	89 4d 94             	mov    %ecx,-0x6c(%ebp)
  102854:	01 c8                	add    %ecx,%eax
  102856:	e9 1d fe ff ff       	jmp    102678 <bench_md5_run+0x64>
  10285b:	89 f8                	mov    %edi,%eax
  10285d:	8b 7d 94             	mov    -0x6c(%ebp),%edi
  102860:	01 f8                	add    %edi,%eax
  102862:	e9 11 fe ff ff       	jmp    102678 <bench_md5_run+0x64>
  102867:	90                   	nop

00102868 <bench_md5_validate>:
  102868:	55                   	push   %ebp
  102869:	89 e5                	mov    %esp,%ebp
  10286b:	83 ec 18             	sub    $0x18,%esp
  10286e:	a1 5c 5a 10 00       	mov    0x105a5c,%eax
  102873:	8d 50 10             	lea    0x10(%eax),%edx
  102876:	89 54 24 04          	mov    %edx,0x4(%esp)
  10287a:	89 04 24             	mov    %eax,(%esp)
  10287d:	e8 6e ec ff ff       	call   1014f0 <checksum>
  102882:	8b 15 b8 5a 10 00    	mov    0x105ab8,%edx
  102888:	3b 42 0c             	cmp    0xc(%edx),%eax
  10288b:	0f 94 c0             	sete   %al
  10288e:	0f b6 c0             	movzbl %al,%eax
  102891:	c9                   	leave  
  102892:	c3                   	ret    
  102893:	90                   	nop

00102894 <dfs>:
  102894:	55                   	push   %ebp
  102895:	89 e5                	mov    %esp,%ebp
  102897:	57                   	push   %edi
  102898:	56                   	push   %esi
  102899:	53                   	push   %ebx
  10289a:	83 ec 1c             	sub    $0x1c,%esp
  10289d:	89 45 e4             	mov    %eax,-0x1c(%ebp)
  1028a0:	89 cf                	mov    %ecx,%edi
  1028a2:	8b 1d 6c 5a 10 00    	mov    0x105a6c,%ebx
  1028a8:	89 c1                	mov    %eax,%ecx
  1028aa:	39 d8                	cmp    %ebx,%eax
  1028ac:	74 46                	je     1028f4 <dfs+0x60>
  1028ae:	89 d0                	mov    %edx,%eax
  1028b0:	09 f8                	or     %edi,%eax
  1028b2:	09 c8                	or     %ecx,%eax
  1028b4:	f7 d0                	not    %eax
  1028b6:	21 c3                	and    %eax,%ebx
  1028b8:	b8 00 00 00 00       	mov    $0x0,%eax
  1028bd:	74 2a                	je     1028e9 <dfs+0x55>
  1028bf:	89 55 e0             	mov    %edx,-0x20(%ebp)
  1028c2:	89 c6                	mov    %eax,%esi
  1028c4:	89 d8                	mov    %ebx,%eax
  1028c6:	f7 d8                	neg    %eax
  1028c8:	21 d8                	and    %ebx,%eax
  1028ca:	29 c3                	sub    %eax,%ebx
  1028cc:	89 c1                	mov    %eax,%ecx
  1028ce:	09 f9                	or     %edi,%ecx
  1028d0:	d1 e9                	shr    %ecx
  1028d2:	8b 55 e0             	mov    -0x20(%ebp),%edx
  1028d5:	09 c2                	or     %eax,%edx
  1028d7:	01 d2                	add    %edx,%edx
  1028d9:	0b 45 e4             	or     -0x1c(%ebp),%eax
  1028dc:	e8 b3 ff ff ff       	call   102894 <dfs>
  1028e1:	01 c6                	add    %eax,%esi
  1028e3:	85 db                	test   %ebx,%ebx
  1028e5:	75 dd                	jne    1028c4 <dfs+0x30>
  1028e7:	89 f0                	mov    %esi,%eax
  1028e9:	83 c4 1c             	add    $0x1c,%esp
  1028ec:	5b                   	pop    %ebx
  1028ed:	5e                   	pop    %esi
  1028ee:	5f                   	pop    %edi
  1028ef:	5d                   	pop    %ebp
  1028f0:	c3                   	ret    
  1028f1:	8d 76 00             	lea    0x0(%esi),%esi
  1028f4:	b8 01 00 00 00       	mov    $0x1,%eax
  1028f9:	83 c4 1c             	add    $0x1c,%esp
  1028fc:	5b                   	pop    %ebx
  1028fd:	5e                   	pop    %esi
  1028fe:	5f                   	pop    %edi
  1028ff:	5d                   	pop    %ebp
  102900:	c3                   	ret    
  102901:	8d 76 00             	lea    0x0(%esi),%esi

00102904 <bench_queen_prepare>:
  102904:	55                   	push   %ebp
  102905:	89 e5                	mov    %esp,%ebp
  102907:	c7 05 68 5a 10 00 00 	movl   $0x0,0x105a68
  10290e:	00 00 00 
  102911:	a1 b8 5a 10 00       	mov    0x105ab8,%eax
  102916:	8b 08                	mov    (%eax),%ecx
  102918:	b8 01 00 00 00       	mov    $0x1,%eax
  10291d:	d3 e0                	shl    %cl,%eax
  10291f:	48                   	dec    %eax
  102920:	a3 6c 5a 10 00       	mov    %eax,0x105a6c
  102925:	5d                   	pop    %ebp
  102926:	c3                   	ret    
  102927:	90                   	nop

00102928 <bench_queen_run>:
  102928:	55                   	push   %ebp
  102929:	89 e5                	mov    %esp,%ebp
  10292b:	83 ec 08             	sub    $0x8,%esp
  10292e:	31 c9                	xor    %ecx,%ecx
  102930:	31 d2                	xor    %edx,%edx
  102932:	31 c0                	xor    %eax,%eax
  102934:	e8 5b ff ff ff       	call   102894 <dfs>
  102939:	a3 68 5a 10 00       	mov    %eax,0x105a68
  10293e:	c9                   	leave  
  10293f:	c3                   	ret    

00102940 <bench_queen_validate>:
  102940:	55                   	push   %ebp
  102941:	89 e5                	mov    %esp,%ebp
  102943:	a1 b8 5a 10 00       	mov    0x105ab8,%eax
  102948:	8b 15 68 5a 10 00    	mov    0x105a68,%edx
  10294e:	39 50 0c             	cmp    %edx,0xc(%eax)
  102951:	0f 94 c0             	sete   %al
  102954:	0f b6 c0             	movzbl %al,%eax
  102957:	5d                   	pop    %ebp
  102958:	c3                   	ret    
  102959:	66 90                	xchg   %ax,%ax
  10295b:	90                   	nop

0010295c <_ZL9radixPassPiS_S_ii>:
  10295c:	55                   	push   %ebp
  10295d:	89 e5                	mov    %esp,%ebp
  10295f:	57                   	push   %edi
  102960:	56                   	push   %esi
  102961:	53                   	push   %ebx
  102962:	83 ec 1c             	sub    $0x1c,%esp
  102965:	89 45 e0             	mov    %eax,-0x20(%ebp)
  102968:	89 55 e4             	mov    %edx,-0x1c(%ebp)
  10296b:	89 cf                	mov    %ecx,%edi
  10296d:	8b 45 0c             	mov    0xc(%ebp),%eax
  102970:	8d 34 85 04 00 00 00 	lea    0x4(,%eax,4),%esi
  102977:	89 34 24             	mov    %esi,(%esp)
  10297a:	e8 55 ea ff ff       	call   1013d4 <bench_alloc>
  10297f:	8b 55 0c             	mov    0xc(%ebp),%edx
  102982:	85 d2                	test   %edx,%edx
  102984:	78 13                	js     102999 <_ZL9radixPassPiS_S_ii+0x3d>
  102986:	89 c2                	mov    %eax,%edx
  102988:	8d 0c 30             	lea    (%eax,%esi,1),%ecx
  10298b:	90                   	nop
  10298c:	c7 02 00 00 00 00    	movl   $0x0,(%edx)
  102992:	83 c2 04             	add    $0x4,%edx
  102995:	39 ca                	cmp    %ecx,%edx
  102997:	75 f3                	jne    10298c <_ZL9radixPassPiS_S_ii+0x30>
  102999:	8b 5d 08             	mov    0x8(%ebp),%ebx
  10299c:	85 db                	test   %ebx,%ebx
  10299e:	7e 1b                	jle    1029bb <_ZL9radixPassPiS_S_ii+0x5f>
  1029a0:	8b 5d e0             	mov    -0x20(%ebp),%ebx
  1029a3:	89 da                	mov    %ebx,%edx
  1029a5:	8b 4d 08             	mov    0x8(%ebp),%ecx
  1029a8:	8d 1c 8b             	lea    (%ebx,%ecx,4),%ebx
  1029ab:	90                   	nop
  1029ac:	8b 0a                	mov    (%edx),%ecx
  1029ae:	8b 0c 8f             	mov    (%edi,%ecx,4),%ecx
  1029b1:	ff 04 88             	incl   (%eax,%ecx,4)
  1029b4:	83 c2 04             	add    $0x4,%edx
  1029b7:	39 da                	cmp    %ebx,%edx
  1029b9:	75 f1                	jne    1029ac <_ZL9radixPassPiS_S_ii+0x50>
  1029bb:	8b 4d 0c             	mov    0xc(%ebp),%ecx
  1029be:	85 c9                	test   %ecx,%ecx
  1029c0:	78 13                	js     1029d5 <_ZL9radixPassPiS_S_ii+0x79>
  1029c2:	89 c2                	mov    %eax,%edx
  1029c4:	01 c6                	add    %eax,%esi
  1029c6:	31 c9                	xor    %ecx,%ecx
  1029c8:	8b 1a                	mov    (%edx),%ebx
  1029ca:	89 0a                	mov    %ecx,(%edx)
  1029cc:	01 d9                	add    %ebx,%ecx
  1029ce:	83 c2 04             	add    $0x4,%edx
  1029d1:	39 f2                	cmp    %esi,%edx
  1029d3:	75 f3                	jne    1029c8 <_ZL9radixPassPiS_S_ii+0x6c>
  1029d5:	8b 55 08             	mov    0x8(%ebp),%edx
  1029d8:	85 d2                	test   %edx,%edx
  1029da:	7e 2b                	jle    102a07 <_ZL9radixPassPiS_S_ii+0xab>
  1029dc:	8b 55 e0             	mov    -0x20(%ebp),%edx
  1029df:	8b 75 08             	mov    0x8(%ebp),%esi
  1029e2:	8d 34 b2             	lea    (%edx,%esi,4),%esi
  1029e5:	89 75 e0             	mov    %esi,-0x20(%ebp)
  1029e8:	8b 0a                	mov    (%edx),%ecx
  1029ea:	8b 0c 8f             	mov    (%edi,%ecx,4),%ecx
  1029ed:	8d 1c 88             	lea    (%eax,%ecx,4),%ebx
  1029f0:	8b 0b                	mov    (%ebx),%ecx
  1029f2:	8d 71 01             	lea    0x1(%ecx),%esi
  1029f5:	89 33                	mov    %esi,(%ebx)
  1029f7:	8b 1a                	mov    (%edx),%ebx
  1029f9:	8b 75 e4             	mov    -0x1c(%ebp),%esi
  1029fc:	89 1c 8e             	mov    %ebx,(%esi,%ecx,4)
  1029ff:	83 c2 04             	add    $0x4,%edx
  102a02:	3b 55 e0             	cmp    -0x20(%ebp),%edx
  102a05:	75 e1                	jne    1029e8 <_ZL9radixPassPiS_S_ii+0x8c>
  102a07:	83 c4 1c             	add    $0x1c,%esp
  102a0a:	5b                   	pop    %ebx
  102a0b:	5e                   	pop    %esi
  102a0c:	5f                   	pop    %edi
  102a0d:	5d                   	pop    %ebp
  102a0e:	c3                   	ret    
  102a0f:	90                   	nop

00102a10 <_Z11suffixArrayPiS_ii>:
  102a10:	55                   	push   %ebp
  102a11:	89 e5                	mov    %esp,%ebp
  102a13:	57                   	push   %edi
  102a14:	56                   	push   %esi
  102a15:	53                   	push   %ebx
  102a16:	83 ec 5c             	sub    $0x5c,%esp
  102a19:	8b 7d 08             	mov    0x8(%ebp),%edi
  102a1c:	8b 45 10             	mov    0x10(%ebp),%eax
  102a1f:	8d 48 02             	lea    0x2(%eax),%ecx
  102a22:	b8 56 55 55 55       	mov    $0x55555556,%eax
  102a27:	f7 e9                	imul   %ecx
  102a29:	c1 f9 1f             	sar    $0x1f,%ecx
  102a2c:	89 d0                	mov    %edx,%eax
  102a2e:	29 c8                	sub    %ecx,%eax
  102a30:	89 c6                	mov    %eax,%esi
  102a32:	b8 56 55 55 55       	mov    $0x55555556,%eax
  102a37:	f7 6d 10             	imull  0x10(%ebp)
  102a3a:	8b 45 10             	mov    0x10(%ebp),%eax
  102a3d:	c1 f8 1f             	sar    $0x1f,%eax
  102a40:	89 d3                	mov    %edx,%ebx
  102a42:	29 c3                	sub    %eax,%ebx
  102a44:	89 d8                	mov    %ebx,%eax
  102a46:	89 75 e4             	mov    %esi,-0x1c(%ebp)
  102a49:	01 f0                	add    %esi,%eax
  102a4b:	89 c3                	mov    %eax,%ebx
  102a4d:	89 45 e0             	mov    %eax,-0x20(%ebp)
  102a50:	8d 14 85 0c 00 00 00 	lea    0xc(,%eax,4),%edx
  102a57:	89 14 24             	mov    %edx,(%esp)
  102a5a:	89 55 d8             	mov    %edx,-0x28(%ebp)
  102a5d:	e8 72 e9 ff ff       	call   1013d4 <bench_alloc>
  102a62:	89 45 d4             	mov    %eax,-0x2c(%ebp)
  102a65:	c1 e3 02             	shl    $0x2,%ebx
  102a68:	8d 73 08             	lea    0x8(%ebx),%esi
  102a6b:	c7 44 18 08 00 00 00 	movl   $0x0,0x8(%eax,%ebx,1)
  102a72:	00 
  102a73:	c7 44 18 04 00 00 00 	movl   $0x0,0x4(%eax,%ebx,1)
  102a7a:	00 
  102a7b:	89 5d cc             	mov    %ebx,-0x34(%ebp)
  102a7e:	c7 04 18 00 00 00 00 	movl   $0x0,(%eax,%ebx,1)
  102a85:	8b 55 d8             	mov    -0x28(%ebp),%edx
  102a88:	89 14 24             	mov    %edx,(%esp)
  102a8b:	e8 44 e9 ff ff       	call   1013d4 <bench_alloc>
  102a90:	89 45 c8             	mov    %eax,-0x38(%ebp)
  102a93:	c7 04 30 00 00 00 00 	movl   $0x0,(%eax,%esi,1)
  102a9a:	c7 44 18 04 00 00 00 	movl   $0x0,0x4(%eax,%ebx,1)
  102aa1:	00 
  102aa2:	8b 4d cc             	mov    -0x34(%ebp),%ecx
  102aa5:	c7 04 08 00 00 00 00 	movl   $0x0,(%eax,%ecx,1)
  102aac:	8b 75 e4             	mov    -0x1c(%ebp),%esi
  102aaf:	8d 1c b5 00 00 00 00 	lea    0x0(,%esi,4),%ebx
  102ab6:	89 1c 24             	mov    %ebx,(%esp)
  102ab9:	e8 16 e9 ff ff       	call   1013d4 <bench_alloc>
  102abe:	89 45 b0             	mov    %eax,-0x50(%ebp)
  102ac1:	89 1c 24             	mov    %ebx,(%esp)
  102ac4:	e8 0b e9 ff ff       	call   1013d4 <bench_alloc>
  102ac9:	89 45 c0             	mov    %eax,-0x40(%ebp)
  102acc:	8b 45 10             	mov    0x10(%ebp),%eax
  102acf:	8d 48 01             	lea    0x1(%eax),%ecx
  102ad2:	b8 56 55 55 55       	mov    $0x55555556,%eax
  102ad7:	f7 e9                	imul   %ecx
  102ad9:	c1 f9 1f             	sar    $0x1f,%ecx
  102adc:	89 d0                	mov    %edx,%eax
  102ade:	29 c8                	sub    %ecx,%eax
  102ae0:	29 c6                	sub    %eax,%esi
  102ae2:	8b 45 10             	mov    0x10(%ebp),%eax
  102ae5:	01 f0                	add    %esi,%eax
  102ae7:	89 45 d0             	mov    %eax,-0x30(%ebp)
  102aea:	85 c0                	test   %eax,%eax
  102aec:	7e 3b                	jle    102b29 <_Z11suffixArrayPiS_ii+0x119>
  102aee:	31 c9                	xor    %ecx,%ecx
  102af0:	31 db                	xor    %ebx,%ebx
  102af2:	66 90                	xchg   %ax,%ax
  102af4:	41                   	inc    %ecx
  102af5:	3b 4d d0             	cmp    -0x30(%ebp),%ecx
  102af8:	74 2f                	je     102b29 <_Z11suffixArrayPiS_ii+0x119>
  102afa:	b8 56 55 55 55       	mov    $0x55555556,%eax
  102aff:	f7 e9                	imul   %ecx
  102b01:	89 45 d8             	mov    %eax,-0x28(%ebp)
  102b04:	89 55 dc             	mov    %edx,-0x24(%ebp)
  102b07:	89 c8                	mov    %ecx,%eax
  102b09:	c1 f8 1f             	sar    $0x1f,%eax
  102b0c:	8b 55 dc             	mov    -0x24(%ebp),%edx
  102b0f:	29 c2                	sub    %eax,%edx
  102b11:	89 d0                	mov    %edx,%eax
  102b13:	8d 14 12             	lea    (%edx,%edx,1),%edx
  102b16:	01 d0                	add    %edx,%eax
  102b18:	39 c1                	cmp    %eax,%ecx
  102b1a:	74 d8                	je     102af4 <_Z11suffixArrayPiS_ii+0xe4>
  102b1c:	8b 45 d4             	mov    -0x2c(%ebp),%eax
  102b1f:	89 0c 98             	mov    %ecx,(%eax,%ebx,4)
  102b22:	43                   	inc    %ebx
  102b23:	41                   	inc    %ecx
  102b24:	3b 4d d0             	cmp    -0x30(%ebp),%ecx
  102b27:	75 d1                	jne    102afa <_Z11suffixArrayPiS_ii+0xea>
  102b29:	8d 4f 08             	lea    0x8(%edi),%ecx
  102b2c:	8b 45 14             	mov    0x14(%ebp),%eax
  102b2f:	89 44 24 04          	mov    %eax,0x4(%esp)
  102b33:	8b 5d e0             	mov    -0x20(%ebp),%ebx
  102b36:	89 1c 24             	mov    %ebx,(%esp)
  102b39:	8b 55 c8             	mov    -0x38(%ebp),%edx
  102b3c:	8b 45 d4             	mov    -0x2c(%ebp),%eax
  102b3f:	e8 18 fe ff ff       	call   10295c <_ZL9radixPassPiS_S_ii>
  102b44:	8d 4f 04             	lea    0x4(%edi),%ecx
  102b47:	8b 45 14             	mov    0x14(%ebp),%eax
  102b4a:	89 44 24 04          	mov    %eax,0x4(%esp)
  102b4e:	89 1c 24             	mov    %ebx,(%esp)
  102b51:	8b 55 d4             	mov    -0x2c(%ebp),%edx
  102b54:	8b 45 c8             	mov    -0x38(%ebp),%eax
  102b57:	e8 00 fe ff ff       	call   10295c <_ZL9radixPassPiS_S_ii>
  102b5c:	8b 4d 14             	mov    0x14(%ebp),%ecx
  102b5f:	89 4c 24 04          	mov    %ecx,0x4(%esp)
  102b63:	89 1c 24             	mov    %ebx,(%esp)
  102b66:	89 f9                	mov    %edi,%ecx
  102b68:	8b 55 c8             	mov    -0x38(%ebp),%edx
  102b6b:	8b 45 d4             	mov    -0x2c(%ebp),%eax
  102b6e:	e8 e9 fd ff ff       	call   10295c <_ZL9radixPassPiS_S_ii>
  102b73:	85 db                	test   %ebx,%ebx
  102b75:	0f 8e 0e 01 00 00    	jle    102c89 <_Z11suffixArrayPiS_ii+0x279>
  102b7b:	8b 4d c8             	mov    -0x38(%ebp),%ecx
  102b7e:	89 cb                	mov    %ecx,%ebx
  102b80:	8b 45 cc             	mov    -0x34(%ebp),%eax
  102b83:	01 c8                	add    %ecx,%eax
  102b85:	89 45 bc             	mov    %eax,-0x44(%ebp)
  102b88:	c7 45 c4 ff ff ff ff 	movl   $0xffffffff,-0x3c(%ebp)
  102b8f:	c7 45 cc ff ff ff ff 	movl   $0xffffffff,-0x34(%ebp)
  102b96:	ba ff ff ff ff       	mov    $0xffffffff,%edx
  102b9b:	c7 45 d8 00 00 00 00 	movl   $0x0,-0x28(%ebp)
  102ba2:	89 75 b8             	mov    %esi,-0x48(%ebp)
  102ba5:	eb 44                	jmp    102beb <_Z11suffixArrayPiS_ii+0x1db>
  102ba7:	90                   	nop
  102ba8:	8b 74 07 08          	mov    0x8(%edi,%eax,1),%esi
  102bac:	89 75 c4             	mov    %esi,-0x3c(%ebp)
  102baf:	8b 44 07 04          	mov    0x4(%edi,%eax,1),%eax
  102bb3:	89 45 cc             	mov    %eax,-0x34(%ebp)
  102bb6:	ff 45 d8             	incl   -0x28(%ebp)
  102bb9:	89 c8                	mov    %ecx,%eax
  102bbb:	be 03 00 00 00       	mov    $0x3,%esi
  102bc0:	99                   	cltd   
  102bc1:	f7 fe                	idiv   %esi
  102bc3:	b8 56 55 55 55       	mov    $0x55555556,%eax
  102bc8:	4a                   	dec    %edx
  102bc9:	74 4d                	je     102c18 <_Z11suffixArrayPiS_ii+0x208>
  102bcb:	f7 e9                	imul   %ecx
  102bcd:	c1 f9 1f             	sar    $0x1f,%ecx
  102bd0:	89 d0                	mov    %edx,%eax
  102bd2:	29 c8                	sub    %ecx,%eax
  102bd4:	03 45 e4             	add    -0x1c(%ebp),%eax
  102bd7:	8b 75 d4             	mov    -0x2c(%ebp),%esi
  102bda:	8b 4d d8             	mov    -0x28(%ebp),%ecx
  102bdd:	89 0c 86             	mov    %ecx,(%esi,%eax,4)
  102be0:	83 c3 04             	add    $0x4,%ebx
  102be3:	3b 5d bc             	cmp    -0x44(%ebp),%ebx
  102be6:	74 4a                	je     102c32 <_Z11suffixArrayPiS_ii+0x222>
  102be8:	8b 55 d0             	mov    -0x30(%ebp),%edx
  102beb:	8b 0b                	mov    (%ebx),%ecx
  102bed:	8d 04 8d 00 00 00 00 	lea    0x0(,%ecx,4),%eax
  102bf4:	8b 34 07             	mov    (%edi,%eax,1),%esi
  102bf7:	89 75 d0             	mov    %esi,-0x30(%ebp)
  102bfa:	39 d6                	cmp    %edx,%esi
  102bfc:	75 aa                	jne    102ba8 <_Z11suffixArrayPiS_ii+0x198>
  102bfe:	8b 54 07 04          	mov    0x4(%edi,%eax,1),%edx
  102c02:	8b 44 07 08          	mov    0x8(%edi,%eax,1),%eax
  102c06:	3b 55 cc             	cmp    -0x34(%ebp),%edx
  102c09:	0f 84 99 02 00 00    	je     102ea8 <_Z11suffixArrayPiS_ii+0x498>
  102c0f:	89 45 c4             	mov    %eax,-0x3c(%ebp)
  102c12:	89 55 cc             	mov    %edx,-0x34(%ebp)
  102c15:	eb 9f                	jmp    102bb6 <_Z11suffixArrayPiS_ii+0x1a6>
  102c17:	90                   	nop
  102c18:	f7 e9                	imul   %ecx
  102c1a:	c1 f9 1f             	sar    $0x1f,%ecx
  102c1d:	89 d0                	mov    %edx,%eax
  102c1f:	29 c8                	sub    %ecx,%eax
  102c21:	8b 75 d4             	mov    -0x2c(%ebp),%esi
  102c24:	8b 4d d8             	mov    -0x28(%ebp),%ecx
  102c27:	89 0c 86             	mov    %ecx,(%esi,%eax,4)
  102c2a:	83 c3 04             	add    $0x4,%ebx
  102c2d:	3b 5d bc             	cmp    -0x44(%ebp),%ebx
  102c30:	75 b6                	jne    102be8 <_Z11suffixArrayPiS_ii+0x1d8>
  102c32:	8b 75 b8             	mov    -0x48(%ebp),%esi
  102c35:	8b 45 d8             	mov    -0x28(%ebp),%eax
  102c38:	39 45 e0             	cmp    %eax,-0x20(%ebp)
  102c3b:	0f 8f 9f 02 00 00    	jg     102ee0 <_Z11suffixArrayPiS_ii+0x4d0>
  102c41:	31 c0                	xor    %eax,%eax
  102c43:	89 75 d8             	mov    %esi,-0x28(%ebp)
  102c46:	8b 55 e0             	mov    -0x20(%ebp),%edx
  102c49:	8b 4d d4             	mov    -0x2c(%ebp),%ecx
  102c4c:	8b 5d c8             	mov    -0x38(%ebp),%ebx
  102c4f:	90                   	nop
  102c50:	8b 34 81             	mov    (%ecx,%eax,4),%esi
  102c53:	89 44 b3 fc          	mov    %eax,-0x4(%ebx,%esi,4)
  102c57:	40                   	inc    %eax
  102c58:	39 d0                	cmp    %edx,%eax
  102c5a:	75 f4                	jne    102c50 <_Z11suffixArrayPiS_ii+0x240>
  102c5c:	8b 75 d8             	mov    -0x28(%ebp),%esi
  102c5f:	31 c9                	xor    %ecx,%ecx
  102c61:	31 c0                	xor    %eax,%eax
  102c63:	89 75 d8             	mov    %esi,-0x28(%ebp)
  102c66:	8b 5d c8             	mov    -0x38(%ebp),%ebx
  102c69:	8d 76 00             	lea    0x0(%esi),%esi
  102c6c:	8b 14 83             	mov    (%ebx,%eax,4),%edx
  102c6f:	39 55 e4             	cmp    %edx,-0x1c(%ebp)
  102c72:	7e 0c                	jle    102c80 <_Z11suffixArrayPiS_ii+0x270>
  102c74:	8d 34 12             	lea    (%edx,%edx,1),%esi
  102c77:	01 f2                	add    %esi,%edx
  102c79:	8b 75 b0             	mov    -0x50(%ebp),%esi
  102c7c:	89 14 8e             	mov    %edx,(%esi,%ecx,4)
  102c7f:	41                   	inc    %ecx
  102c80:	40                   	inc    %eax
  102c81:	39 45 e0             	cmp    %eax,-0x20(%ebp)
  102c84:	7f e6                	jg     102c6c <_Z11suffixArrayPiS_ii+0x25c>
  102c86:	8b 75 d8             	mov    -0x28(%ebp),%esi
  102c89:	8b 45 14             	mov    0x14(%ebp),%eax
  102c8c:	89 44 24 04          	mov    %eax,0x4(%esp)
  102c90:	8b 45 e4             	mov    -0x1c(%ebp),%eax
  102c93:	89 04 24             	mov    %eax,(%esp)
  102c96:	89 f9                	mov    %edi,%ecx
  102c98:	8b 55 c0             	mov    -0x40(%ebp),%edx
  102c9b:	8b 45 b0             	mov    -0x50(%ebp),%eax
  102c9e:	e8 b9 fc ff ff       	call   10295c <_ZL9radixPassPiS_S_ii>
  102ca3:	8b 45 10             	mov    0x10(%ebp),%eax
  102ca6:	85 c0                	test   %eax,%eax
  102ca8:	0f 8e 92 01 00 00    	jle    102e40 <_Z11suffixArrayPiS_ii+0x430>
  102cae:	c7 45 d8 00 00 00 00 	movl   $0x0,-0x28(%ebp)
  102cb5:	31 c9                	xor    %ecx,%ecx
  102cb7:	89 4d d0             	mov    %ecx,-0x30(%ebp)
  102cba:	89 7d 08             	mov    %edi,0x8(%ebp)
  102cbd:	89 f7                	mov    %esi,%edi
  102cbf:	e9 83 00 00 00       	jmp    102d47 <_Z11suffixArrayPiS_ii+0x337>
  102cc4:	8d 04 36             	lea    (%esi,%esi,1),%eax
  102cc7:	8d 44 06 01          	lea    0x1(%esi,%eax,1),%eax
  102ccb:	89 c3                	mov    %eax,%ebx
  102ccd:	89 45 c4             	mov    %eax,-0x3c(%ebp)
  102cd0:	8b 45 c0             	mov    -0x40(%ebp),%eax
  102cd3:	8b 55 d0             	mov    -0x30(%ebp),%edx
  102cd6:	8b 04 90             	mov    (%eax,%edx,4),%eax
  102cd9:	89 c1                	mov    %eax,%ecx
  102cdb:	b8 56 55 55 55       	mov    $0x55555556,%eax
  102ce0:	f7 e9                	imul   %ecx
  102ce2:	89 45 b0             	mov    %eax,-0x50(%ebp)
  102ce5:	89 55 b4             	mov    %edx,-0x4c(%ebp)
  102ce8:	89 4d cc             	mov    %ecx,-0x34(%ebp)
  102ceb:	89 c8                	mov    %ecx,%eax
  102ced:	c1 f8 1f             	sar    $0x1f,%eax
  102cf0:	8b 55 b4             	mov    -0x4c(%ebp),%edx
  102cf3:	29 c2                	sub    %eax,%edx
  102cf5:	89 d0                	mov    %edx,%eax
  102cf7:	8b 55 d4             	mov    -0x2c(%ebp),%edx
  102cfa:	8b 04 82             	mov    (%edx,%eax,4),%eax
  102cfd:	03 75 e4             	add    -0x1c(%ebp),%esi
  102d00:	8b 14 b2             	mov    (%edx,%esi,4),%edx
  102d03:	8b 4d 08             	mov    0x8(%ebp),%ecx
  102d06:	8b 75 cc             	mov    -0x34(%ebp),%esi
  102d09:	8b 1c 99             	mov    (%ecx,%ebx,4),%ebx
  102d0c:	39 1c b1             	cmp    %ebx,(%ecx,%esi,4)
  102d0f:	0f 8f c3 00 00 00    	jg     102dd8 <_Z11suffixArrayPiS_ii+0x3c8>
  102d15:	0f 84 a1 01 00 00    	je     102ebc <_Z11suffixArrayPiS_ii+0x4ac>
  102d1b:	8b 5d d8             	mov    -0x28(%ebp),%ebx
  102d1e:	89 d8                	mov    %ebx,%eax
  102d20:	8b 75 0c             	mov    0xc(%ebp),%esi
  102d23:	8b 4d cc             	mov    -0x34(%ebp),%ecx
  102d26:	89 0c 9e             	mov    %ecx,(%esi,%ebx,4)
  102d29:	ff 45 d0             	incl   -0x30(%ebp)
  102d2c:	8b 5d e4             	mov    -0x1c(%ebp),%ebx
  102d2f:	39 5d d0             	cmp    %ebx,-0x30(%ebp)
  102d32:	0f 84 10 01 00 00    	je     102e48 <_Z11suffixArrayPiS_ii+0x438>
  102d38:	ff 45 d8             	incl   -0x28(%ebp)
  102d3b:	8b 45 d8             	mov    -0x28(%ebp),%eax
  102d3e:	39 45 10             	cmp    %eax,0x10(%ebp)
  102d41:	0f 8e f9 00 00 00    	jle    102e40 <_Z11suffixArrayPiS_ii+0x430>
  102d47:	89 7d bc             	mov    %edi,-0x44(%ebp)
  102d4a:	8b 45 c8             	mov    -0x38(%ebp),%eax
  102d4d:	8b 34 b8             	mov    (%eax,%edi,4),%esi
  102d50:	39 75 e4             	cmp    %esi,-0x1c(%ebp)
  102d53:	0f 8f 6b ff ff ff    	jg     102cc4 <_Z11suffixArrayPiS_ii+0x2b4>
  102d59:	2b 75 e4             	sub    -0x1c(%ebp),%esi
  102d5c:	8d 04 36             	lea    (%esi,%esi,1),%eax
  102d5f:	01 f0                	add    %esi,%eax
  102d61:	89 c3                	mov    %eax,%ebx
  102d63:	83 c0 02             	add    $0x2,%eax
  102d66:	89 45 c4             	mov    %eax,-0x3c(%ebp)
  102d69:	8b 45 c0             	mov    -0x40(%ebp),%eax
  102d6c:	8b 55 d0             	mov    -0x30(%ebp),%edx
  102d6f:	8b 04 90             	mov    (%eax,%edx,4),%eax
  102d72:	89 c1                	mov    %eax,%ecx
  102d74:	89 45 cc             	mov    %eax,-0x34(%ebp)
  102d77:	b8 56 55 55 55       	mov    $0x55555556,%eax
  102d7c:	f7 e9                	imul   %ecx
  102d7e:	89 55 b4             	mov    %edx,-0x4c(%ebp)
  102d81:	89 ca                	mov    %ecx,%edx
  102d83:	89 c8                	mov    %ecx,%eax
  102d85:	c1 f8 1f             	sar    $0x1f,%eax
  102d88:	8b 4d b4             	mov    -0x4c(%ebp),%ecx
  102d8b:	29 c1                	sub    %eax,%ecx
  102d8d:	8b 45 e4             	mov    -0x1c(%ebp),%eax
  102d90:	01 c8                	add    %ecx,%eax
  102d92:	8b 4d d4             	mov    -0x2c(%ebp),%ecx
  102d95:	8b 04 81             	mov    (%ecx,%eax,4),%eax
  102d98:	89 45 b8             	mov    %eax,-0x48(%ebp)
  102d9b:	8d 14 95 04 00 00 00 	lea    0x4(,%edx,4),%edx
  102da2:	8b 45 08             	mov    0x8(%ebp),%eax
  102da5:	8b 04 10             	mov    (%eax,%edx,1),%eax
  102da8:	89 45 b0             	mov    %eax,-0x50(%ebp)
  102dab:	8b 44 b1 04          	mov    0x4(%ecx,%esi,4),%eax
  102daf:	89 c1                	mov    %eax,%ecx
  102db1:	8d 04 9d 0c 00 00 00 	lea    0xc(,%ebx,4),%eax
  102db8:	8b 5d 08             	mov    0x8(%ebp),%ebx
  102dbb:	8b 34 03             	mov    (%ebx,%eax,1),%esi
  102dbe:	8b 44 03 fc          	mov    -0x4(%ebx,%eax,1),%eax
  102dc2:	39 44 13 fc          	cmp    %eax,-0x4(%ebx,%edx,1)
  102dc6:	7f 10                	jg     102dd8 <_Z11suffixArrayPiS_ii+0x3c8>
  102dc8:	0f 85 4d ff ff ff    	jne    102d1b <_Z11suffixArrayPiS_ii+0x30b>
  102dce:	39 75 b0             	cmp    %esi,-0x50(%ebp)
  102dd1:	0f 8e f5 00 00 00    	jle    102ecc <_Z11suffixArrayPiS_ii+0x4bc>
  102dd7:	90                   	nop
  102dd8:	8b 75 d8             	mov    -0x28(%ebp),%esi
  102ddb:	89 f0                	mov    %esi,%eax
  102ddd:	8b 5d 0c             	mov    0xc(%ebp),%ebx
  102de0:	8b 4d c4             	mov    -0x3c(%ebp),%ecx
  102de3:	89 0c b3             	mov    %ecx,(%ebx,%esi,4)
  102de6:	47                   	inc    %edi
  102de7:	3b 7d e0             	cmp    -0x20(%ebp),%edi
  102dea:	0f 85 48 ff ff ff    	jne    102d38 <_Z11suffixArrayPiS_ii+0x328>
  102df0:	ff 45 d8             	incl   -0x28(%ebp)
  102df3:	8b 5d e4             	mov    -0x1c(%ebp),%ebx
  102df6:	8b 4d d0             	mov    -0x30(%ebp),%ecx
  102df9:	39 cb                	cmp    %ecx,%ebx
  102dfb:	0f 8e 37 ff ff ff    	jle    102d38 <_Z11suffixArrayPiS_ii+0x328>
  102e01:	89 ca                	mov    %ecx,%edx
  102e03:	29 c8                	sub    %ecx,%eax
  102e05:	8b 7d 0c             	mov    0xc(%ebp),%edi
  102e08:	8d 04 87             	lea    (%edi,%eax,4),%eax
  102e0b:	89 df                	mov    %ebx,%edi
  102e0d:	8b 5d c0             	mov    -0x40(%ebp),%ebx
  102e10:	8b 34 8b             	mov    (%ebx,%ecx,4),%esi
  102e13:	89 74 88 04          	mov    %esi,0x4(%eax,%ecx,4)
  102e17:	41                   	inc    %ecx
  102e18:	39 f9                	cmp    %edi,%ecx
  102e1a:	75 f4                	jne    102e10 <_Z11suffixArrayPiS_ii+0x400>
  102e1c:	89 4d d0             	mov    %ecx,-0x30(%ebp)
  102e1f:	89 5d c0             	mov    %ebx,-0x40(%ebp)
  102e22:	8b 45 d8             	mov    -0x28(%ebp),%eax
  102e25:	29 d0                	sub    %edx,%eax
  102e27:	03 45 e4             	add    -0x1c(%ebp),%eax
  102e2a:	89 45 d8             	mov    %eax,-0x28(%ebp)
  102e2d:	8b 7d e0             	mov    -0x20(%ebp),%edi
  102e30:	ff 45 d8             	incl   -0x28(%ebp)
  102e33:	8b 45 d8             	mov    -0x28(%ebp),%eax
  102e36:	39 45 10             	cmp    %eax,0x10(%ebp)
  102e39:	0f 8f 08 ff ff ff    	jg     102d47 <_Z11suffixArrayPiS_ii+0x337>
  102e3f:	90                   	nop
  102e40:	83 c4 5c             	add    $0x5c,%esp
  102e43:	5b                   	pop    %ebx
  102e44:	5e                   	pop    %esi
  102e45:	5f                   	pop    %edi
  102e46:	5d                   	pop    %ebp
  102e47:	c3                   	ret    
  102e48:	ff 45 d8             	incl   -0x28(%ebp)
  102e4b:	39 7d e0             	cmp    %edi,-0x20(%ebp)
  102e4e:	0f 8e e4 fe ff ff    	jle    102d38 <_Z11suffixArrayPiS_ii+0x328>
  102e54:	29 f8                	sub    %edi,%eax
  102e56:	8b 5d 0c             	mov    0xc(%ebp),%ebx
  102e59:	8d 14 83             	lea    (%ebx,%eax,4),%edx
  102e5c:	8b 4d e4             	mov    -0x1c(%ebp),%ecx
  102e5f:	8b 5d c8             	mov    -0x38(%ebp),%ebx
  102e62:	eb 11                	jmp    102e75 <_Z11suffixArrayPiS_ii+0x465>
  102e64:	8d 34 00             	lea    (%eax,%eax,1),%esi
  102e67:	8d 44 30 01          	lea    0x1(%eax,%esi,1),%eax
  102e6b:	89 44 ba 04          	mov    %eax,0x4(%edx,%edi,4)
  102e6f:	47                   	inc    %edi
  102e70:	3b 7d e0             	cmp    -0x20(%ebp),%edi
  102e73:	74 1a                	je     102e8f <_Z11suffixArrayPiS_ii+0x47f>
  102e75:	8b 04 bb             	mov    (%ebx,%edi,4),%eax
  102e78:	39 c1                	cmp    %eax,%ecx
  102e7a:	7f e8                	jg     102e64 <_Z11suffixArrayPiS_ii+0x454>
  102e7c:	29 c8                	sub    %ecx,%eax
  102e7e:	8d 34 00             	lea    (%eax,%eax,1),%esi
  102e81:	8d 44 30 02          	lea    0x2(%eax,%esi,1),%eax
  102e85:	89 44 ba 04          	mov    %eax,0x4(%edx,%edi,4)
  102e89:	47                   	inc    %edi
  102e8a:	3b 7d e0             	cmp    -0x20(%ebp),%edi
  102e8d:	75 e6                	jne    102e75 <_Z11suffixArrayPiS_ii+0x465>
  102e8f:	8b 45 d8             	mov    -0x28(%ebp),%eax
  102e92:	2b 45 bc             	sub    -0x44(%ebp),%eax
  102e95:	03 45 e0             	add    -0x20(%ebp),%eax
  102e98:	89 45 d8             	mov    %eax,-0x28(%ebp)
  102e9b:	8b 45 e4             	mov    -0x1c(%ebp),%eax
  102e9e:	89 45 d0             	mov    %eax,-0x30(%ebp)
  102ea1:	e9 92 fe ff ff       	jmp    102d38 <_Z11suffixArrayPiS_ii+0x328>
  102ea6:	66 90                	xchg   %ax,%ax
  102ea8:	3b 45 c4             	cmp    -0x3c(%ebp),%eax
  102eab:	0f 84 08 fd ff ff    	je     102bb9 <_Z11suffixArrayPiS_ii+0x1a9>
  102eb1:	89 45 c4             	mov    %eax,-0x3c(%ebp)
  102eb4:	e9 fd fc ff ff       	jmp    102bb6 <_Z11suffixArrayPiS_ii+0x1a6>
  102eb9:	8d 76 00             	lea    0x0(%esi),%esi
  102ebc:	39 d0                	cmp    %edx,%eax
  102ebe:	0f 8d 14 ff ff ff    	jge    102dd8 <_Z11suffixArrayPiS_ii+0x3c8>
  102ec4:	e9 52 fe ff ff       	jmp    102d1b <_Z11suffixArrayPiS_ii+0x30b>
  102ec9:	8d 76 00             	lea    0x0(%esi),%esi
  102ecc:	0f 85 49 fe ff ff    	jne    102d1b <_Z11suffixArrayPiS_ii+0x30b>
  102ed2:	39 4d b8             	cmp    %ecx,-0x48(%ebp)
  102ed5:	0f 8d fd fe ff ff    	jge    102dd8 <_Z11suffixArrayPiS_ii+0x3c8>
  102edb:	e9 3b fe ff ff       	jmp    102d1b <_Z11suffixArrayPiS_ii+0x30b>
  102ee0:	8b 45 d8             	mov    -0x28(%ebp),%eax
  102ee3:	89 44 24 0c          	mov    %eax,0xc(%esp)
  102ee7:	8b 45 e0             	mov    -0x20(%ebp),%eax
  102eea:	89 44 24 08          	mov    %eax,0x8(%esp)
  102eee:	8b 5d c8             	mov    -0x38(%ebp),%ebx
  102ef1:	89 5c 24 04          	mov    %ebx,0x4(%esp)
  102ef5:	8b 45 d4             	mov    -0x2c(%ebp),%eax
  102ef8:	89 04 24             	mov    %eax,(%esp)
  102efb:	e8 10 fb ff ff       	call   102a10 <_Z11suffixArrayPiS_ii>
  102f00:	31 c0                	xor    %eax,%eax
  102f02:	8b 4d d4             	mov    -0x2c(%ebp),%ecx
  102f05:	8d 76 00             	lea    0x0(%esi),%esi
  102f08:	8b 14 83             	mov    (%ebx,%eax,4),%edx
  102f0b:	40                   	inc    %eax
  102f0c:	89 04 91             	mov    %eax,(%ecx,%edx,4)
  102f0f:	3b 45 e0             	cmp    -0x20(%ebp),%eax
  102f12:	75 f4                	jne    102f08 <_Z11suffixArrayPiS_ii+0x4f8>
  102f14:	e9 46 fd ff ff       	jmp    102c5f <_Z11suffixArrayPiS_ii+0x24f>
  102f19:	8d 76 00             	lea    0x0(%esi),%esi

00102f1c <bench_ssort_prepare>:
  102f1c:	55                   	push   %ebp
  102f1d:	89 e5                	mov    %esp,%ebp
  102f1f:	57                   	push   %edi
  102f20:	56                   	push   %esi
  102f21:	53                   	push   %ebx
  102f22:	83 ec 1c             	sub    $0x1c,%esp
  102f25:	a1 b8 5a 10 00       	mov    0x105ab8,%eax
  102f2a:	8b 00                	mov    (%eax),%eax
  102f2c:	a3 78 5a 10 00       	mov    %eax,0x105a78
  102f31:	c7 04 24 01 00 00 00 	movl   $0x1,(%esp)
  102f38:	e8 6f e5 ff ff       	call   1014ac <bench_srand>
  102f3d:	a1 78 5a 10 00       	mov    0x105a78,%eax
  102f42:	8d 04 85 28 00 00 00 	lea    0x28(,%eax,4),%eax
  102f49:	89 04 24             	mov    %eax,(%esp)
  102f4c:	e8 83 e4 ff ff       	call   1013d4 <bench_alloc>
  102f51:	a3 74 5a 10 00       	mov    %eax,0x105a74
  102f56:	a1 78 5a 10 00       	mov    0x105a78,%eax
  102f5b:	8d 04 85 28 00 00 00 	lea    0x28(,%eax,4),%eax
  102f62:	89 04 24             	mov    %eax,(%esp)
  102f65:	e8 6a e4 ff ff       	call   1013d4 <bench_alloc>
  102f6a:	a3 70 5a 10 00       	mov    %eax,0x105a70
  102f6f:	31 db                	xor    %ebx,%ebx
  102f71:	be 1a 00 00 00       	mov    $0x1a,%esi
  102f76:	a1 78 5a 10 00       	mov    0x105a78,%eax
  102f7b:	85 c0                	test   %eax,%eax
  102f7d:	7e 1c                	jle    102f9b <bench_ssort_prepare+0x7f>
  102f7f:	90                   	nop
  102f80:	a1 74 5a 10 00       	mov    0x105a74,%eax
  102f85:	8d 3c 98             	lea    (%eax,%ebx,4),%edi
  102f88:	e8 33 e5 ff ff       	call   1014c0 <bench_rand>
  102f8d:	99                   	cltd   
  102f8e:	f7 fe                	idiv   %esi
  102f90:	89 17                	mov    %edx,(%edi)
  102f92:	43                   	inc    %ebx
  102f93:	39 1d 78 5a 10 00    	cmp    %ebx,0x105a78
  102f99:	7f e5                	jg     102f80 <bench_ssort_prepare+0x64>
  102f9b:	83 c4 1c             	add    $0x1c,%esp
  102f9e:	5b                   	pop    %ebx
  102f9f:	5e                   	pop    %esi
  102fa0:	5f                   	pop    %edi
  102fa1:	5d                   	pop    %ebp
  102fa2:	c3                   	ret    
  102fa3:	90                   	nop

00102fa4 <bench_ssort_run>:
  102fa4:	55                   	push   %ebp
  102fa5:	89 e5                	mov    %esp,%ebp
  102fa7:	83 ec 18             	sub    $0x18,%esp
  102faa:	c7 44 24 0c 1a 00 00 	movl   $0x1a,0xc(%esp)
  102fb1:	00 
  102fb2:	a1 78 5a 10 00       	mov    0x105a78,%eax
  102fb7:	89 44 24 08          	mov    %eax,0x8(%esp)
  102fbb:	a1 70 5a 10 00       	mov    0x105a70,%eax
  102fc0:	89 44 24 04          	mov    %eax,0x4(%esp)
  102fc4:	a1 74 5a 10 00       	mov    0x105a74,%eax
  102fc9:	89 04 24             	mov    %eax,(%esp)
  102fcc:	e8 3f fa ff ff       	call   102a10 <_Z11suffixArrayPiS_ii>
  102fd1:	c9                   	leave  
  102fd2:	c3                   	ret    
  102fd3:	90                   	nop

00102fd4 <bench_ssort_validate>:
  102fd4:	55                   	push   %ebp
  102fd5:	89 e5                	mov    %esp,%ebp
  102fd7:	83 ec 18             	sub    $0x18,%esp
  102fda:	a1 70 5a 10 00       	mov    0x105a70,%eax
  102fdf:	8b 15 78 5a 10 00    	mov    0x105a78,%edx
  102fe5:	8d 14 90             	lea    (%eax,%edx,4),%edx
  102fe8:	89 54 24 04          	mov    %edx,0x4(%esp)
  102fec:	89 04 24             	mov    %eax,(%esp)
  102fef:	e8 fc e4 ff ff       	call   1014f0 <checksum>
  102ff4:	8b 15 b8 5a 10 00    	mov    0x105ab8,%edx
  102ffa:	3b 42 0c             	cmp    0xc(%edx),%eax
  102ffd:	0f 94 c0             	sete   %al
  103000:	0f b6 c0             	movzbl %al,%eax
  103003:	c9                   	leave  
  103004:	c3                   	ret    
  103005:	66 90                	xchg   %ax,%ax
  103007:	90                   	nop

00103008 <bench_dinic_prepare>:
  103008:	55                   	push   %ebp
  103009:	89 e5                	mov    %esp,%ebp
  10300b:	57                   	push   %edi
  10300c:	56                   	push   %esi
  10300d:	53                   	push   %ebx
  10300e:	83 ec 2c             	sub    $0x2c,%esp
  103011:	a1 b8 5a 10 00       	mov    0x105ab8,%eax
  103016:	8b 00                	mov    (%eax),%eax
  103018:	a3 84 5a 10 00       	mov    %eax,0x105a84
  10301d:	c7 04 24 01 00 00 00 	movl   $0x1,(%esp)
  103024:	e8 83 e4 ff ff       	call   1014ac <bench_srand>
  103029:	a1 84 5a 10 00       	mov    0x105a84,%eax
  10302e:	01 c0                	add    %eax,%eax
  103030:	89 45 d0             	mov    %eax,-0x30(%ebp)
  103033:	40                   	inc    %eax
  103034:	89 45 d4             	mov    %eax,-0x2c(%ebp)
  103037:	c7 04 24 34 39 0a 00 	movl   $0xa3934,(%esp)
  10303e:	e8 91 e3 ff ff       	call   1013d4 <bench_alloc>
  103043:	a3 80 5a 10 00       	mov    %eax,0x105a80
  103048:	8b 1d 84 5a 10 00    	mov    0x105a84,%ebx
  10304e:	8d 4c 1b 02          	lea    0x2(%ebx,%ebx,1),%ecx
  103052:	89 08                	mov    %ecx,(%eax)
  103054:	85 c9                	test   %ecx,%ecx
  103056:	7e 1d                	jle    103075 <bench_dinic_prepare+0x6d>
  103058:	8d 90 10 20 08 00    	lea    0x82010(%eax),%edx
  10305e:	8d 8c 88 10 20 08 00 	lea    0x82010(%eax,%ecx,4),%ecx
  103065:	8d 76 00             	lea    0x0(%esi),%esi
  103068:	c7 02 ff ff ff ff    	movl   $0xffffffff,(%edx)
  10306e:	83 c2 04             	add    $0x4,%edx
  103071:	39 ca                	cmp    %ecx,%edx
  103073:	75 f3                	jne    103068 <bench_dinic_prepare+0x60>
  103075:	c7 40 04 00 00 00 00 	movl   $0x0,0x4(%eax)
  10307c:	c7 45 dc 00 00 00 00 	movl   $0x0,-0x24(%ebp)
  103083:	85 db                	test   %ebx,%ebx
  103085:	0f 8e 45 02 00 00    	jle    1032d0 <bench_dinic_prepare+0x2c8>
  10308b:	90                   	nop
  10308c:	31 f6                	xor    %esi,%esi
  10308e:	8b 45 dc             	mov    -0x24(%ebp),%eax
  103091:	c1 e0 02             	shl    $0x2,%eax
  103094:	89 45 d8             	mov    %eax,-0x28(%ebp)
  103097:	eb 0c                	jmp    1030a5 <bench_dinic_prepare+0x9d>
  103099:	8d 76 00             	lea    0x0(%esi),%esi
  10309c:	46                   	inc    %esi
  10309d:	39 f7                	cmp    %esi,%edi
  10309f:	0f 8e ae 00 00 00    	jle    103153 <bench_dinic_prepare+0x14b>
  1030a5:	e8 16 e4 ff ff       	call   1014c0 <bench_rand>
  1030aa:	bb 0a 00 00 00       	mov    $0xa,%ebx
  1030af:	99                   	cltd   
  1030b0:	f7 fb                	idiv   %ebx
  1030b2:	8b 3d 84 5a 10 00    	mov    0x105a84,%edi
  1030b8:	8b 0d 80 5a 10 00    	mov    0x105a80,%ecx
  1030be:	85 d2                	test   %edx,%edx
  1030c0:	74 da                	je     10309c <bench_dinic_prepare+0x94>
  1030c2:	8d 1c 37             	lea    (%edi,%esi,1),%ebx
  1030c5:	89 5d e4             	mov    %ebx,-0x1c(%ebp)
  1030c8:	89 75 e0             	mov    %esi,-0x20(%ebp)
  1030cb:	8b 41 04             	mov    0x4(%ecx),%eax
  1030ce:	40                   	inc    %eax
  1030cf:	c1 e0 04             	shl    $0x4,%eax
  1030d2:	01 c8                	add    %ecx,%eax
  1030d4:	8b 5d dc             	mov    -0x24(%ebp),%ebx
  1030d7:	89 18                	mov    %ebx,(%eax)
  1030d9:	8b 75 e4             	mov    -0x1c(%ebp),%esi
  1030dc:	89 70 04             	mov    %esi,0x4(%eax)
  1030df:	89 50 08             	mov    %edx,0x8(%eax)
  1030e2:	c7 40 0c 00 00 00 00 	movl   $0x0,0xc(%eax)
  1030e9:	8b 41 04             	mov    0x4(%ecx),%eax
  1030ec:	8b 55 d8             	mov    -0x28(%ebp),%edx
  1030ef:	01 ca                	add    %ecx,%edx
  1030f1:	8b b2 10 20 08 00    	mov    0x82010(%edx),%esi
  1030f7:	89 b4 81 18 24 08 00 	mov    %esi,0x82418(%ecx,%eax,4)
  1030fe:	8d 70 01             	lea    0x1(%eax),%esi
  103101:	89 71 04             	mov    %esi,0x4(%ecx)
  103104:	89 82 10 20 08 00    	mov    %eax,0x82010(%edx)
  10310a:	83 c0 02             	add    $0x2,%eax
  10310d:	c1 e0 04             	shl    $0x4,%eax
  103110:	01 c8                	add    %ecx,%eax
  103112:	8b 55 e4             	mov    -0x1c(%ebp),%edx
  103115:	89 10                	mov    %edx,(%eax)
  103117:	89 58 04             	mov    %ebx,0x4(%eax)
  10311a:	c7 40 08 00 00 00 00 	movl   $0x0,0x8(%eax)
  103121:	c7 40 0c 00 00 00 00 	movl   $0x0,0xc(%eax)
  103128:	8b 41 04             	mov    0x4(%ecx),%eax
  10312b:	8d 14 91             	lea    (%ecx,%edx,4),%edx
  10312e:	8b 9a 10 20 08 00    	mov    0x82010(%edx),%ebx
  103134:	89 9c 81 18 24 08 00 	mov    %ebx,0x82418(%ecx,%eax,4)
  10313b:	8d 58 01             	lea    0x1(%eax),%ebx
  10313e:	89 59 04             	mov    %ebx,0x4(%ecx)
  103141:	89 82 10 20 08 00    	mov    %eax,0x82010(%edx)
  103147:	8b 75 e0             	mov    -0x20(%ebp),%esi
  10314a:	46                   	inc    %esi
  10314b:	39 f7                	cmp    %esi,%edi
  10314d:	0f 8f 52 ff ff ff    	jg     1030a5 <bench_dinic_prepare+0x9d>
  103153:	ff 45 dc             	incl   -0x24(%ebp)
  103156:	3b 7d dc             	cmp    -0x24(%ebp),%edi
  103159:	7e 08                	jle    103163 <bench_dinic_prepare+0x15b>
  10315b:	85 ff                	test   %edi,%edi
  10315d:	0f 8f 29 ff ff ff    	jg     10308c <bench_dinic_prepare+0x84>
  103163:	85 ff                	test   %edi,%edi
  103165:	0f 8e 65 01 00 00    	jle    1032d0 <bench_dinic_prepare+0x2c8>
  10316b:	31 ff                	xor    %edi,%edi
  10316d:	8b 45 d0             	mov    -0x30(%ebp),%eax
  103170:	c1 e0 02             	shl    $0x2,%eax
  103173:	89 45 dc             	mov    %eax,-0x24(%ebp)
  103176:	8b 45 d4             	mov    -0x2c(%ebp),%eax
  103179:	c1 e0 02             	shl    $0x2,%eax
  10317c:	89 45 d8             	mov    %eax,-0x28(%ebp)
  10317f:	eb 30                	jmp    1031b1 <bench_dinic_prepare+0x1a9>
  103181:	8d 76 00             	lea    0x0(%esi),%esi
  103184:	e8 37 e3 ff ff       	call   1014c0 <bench_rand>
  103189:	b9 e8 03 00 00       	mov    $0x3e8,%ecx
  10318e:	99                   	cltd   
  10318f:	f7 f9                	idiv   %ecx
  103191:	a1 84 5a 10 00       	mov    0x105a84,%eax
  103196:	89 45 e4             	mov    %eax,-0x1c(%ebp)
  103199:	8b 0d 80 5a 10 00    	mov    0x105a80,%ecx
  10319f:	85 d2                	test   %edx,%edx
  1031a1:	0f 85 9d 00 00 00    	jne    103244 <bench_dinic_prepare+0x23c>
  1031a7:	47                   	inc    %edi
  1031a8:	39 7d e4             	cmp    %edi,-0x1c(%ebp)
  1031ab:	0f 8e 1f 01 00 00    	jle    1032d0 <bench_dinic_prepare+0x2c8>
  1031b1:	e8 0a e3 ff ff       	call   1014c0 <bench_rand>
  1031b6:	b9 e8 03 00 00       	mov    $0x3e8,%ecx
  1031bb:	99                   	cltd   
  1031bc:	f7 f9                	idiv   %ecx
  1031be:	8b 0d 80 5a 10 00    	mov    0x105a80,%ecx
  1031c4:	85 d2                	test   %edx,%edx
  1031c6:	74 bc                	je     103184 <bench_dinic_prepare+0x17c>
  1031c8:	8b 41 04             	mov    0x4(%ecx),%eax
  1031cb:	40                   	inc    %eax
  1031cc:	c1 e0 04             	shl    $0x4,%eax
  1031cf:	01 c8                	add    %ecx,%eax
  1031d1:	8b 75 d0             	mov    -0x30(%ebp),%esi
  1031d4:	89 30                	mov    %esi,(%eax)
  1031d6:	89 78 04             	mov    %edi,0x4(%eax)
  1031d9:	89 50 08             	mov    %edx,0x8(%eax)
  1031dc:	c7 40 0c 00 00 00 00 	movl   $0x0,0xc(%eax)
  1031e3:	8b 41 04             	mov    0x4(%ecx),%eax
  1031e6:	8b 5d dc             	mov    -0x24(%ebp),%ebx
  1031e9:	8d 14 19             	lea    (%ecx,%ebx,1),%edx
  1031ec:	8b 9a 10 20 08 00    	mov    0x82010(%edx),%ebx
  1031f2:	89 9c 81 18 24 08 00 	mov    %ebx,0x82418(%ecx,%eax,4)
  1031f9:	8d 58 01             	lea    0x1(%eax),%ebx
  1031fc:	89 59 04             	mov    %ebx,0x4(%ecx)
  1031ff:	89 82 10 20 08 00    	mov    %eax,0x82010(%edx)
  103205:	83 c0 02             	add    $0x2,%eax
  103208:	c1 e0 04             	shl    $0x4,%eax
  10320b:	01 c8                	add    %ecx,%eax
  10320d:	89 38                	mov    %edi,(%eax)
  10320f:	89 70 04             	mov    %esi,0x4(%eax)
  103212:	c7 40 08 00 00 00 00 	movl   $0x0,0x8(%eax)
  103219:	c7 40 0c 00 00 00 00 	movl   $0x0,0xc(%eax)
  103220:	8b 41 04             	mov    0x4(%ecx),%eax
  103223:	8d 14 b9             	lea    (%ecx,%edi,4),%edx
  103226:	8b 9a 10 20 08 00    	mov    0x82010(%edx),%ebx
  10322c:	89 9c 81 18 24 08 00 	mov    %ebx,0x82418(%ecx,%eax,4)
  103233:	8d 58 01             	lea    0x1(%eax),%ebx
  103236:	89 59 04             	mov    %ebx,0x4(%ecx)
  103239:	89 82 10 20 08 00    	mov    %eax,0x82010(%edx)
  10323f:	e9 40 ff ff ff       	jmp    103184 <bench_dinic_prepare+0x17c>
  103244:	8d 34 38             	lea    (%eax,%edi,1),%esi
  103247:	89 f3                	mov    %esi,%ebx
  103249:	8b 41 04             	mov    0x4(%ecx),%eax
  10324c:	40                   	inc    %eax
  10324d:	c1 e0 04             	shl    $0x4,%eax
  103250:	01 c8                	add    %ecx,%eax
  103252:	89 30                	mov    %esi,(%eax)
  103254:	8b 75 d4             	mov    -0x2c(%ebp),%esi
  103257:	89 70 04             	mov    %esi,0x4(%eax)
  10325a:	89 50 08             	mov    %edx,0x8(%eax)
  10325d:	c7 40 0c 00 00 00 00 	movl   $0x0,0xc(%eax)
  103264:	8b 41 04             	mov    0x4(%ecx),%eax
  103267:	89 5d e0             	mov    %ebx,-0x20(%ebp)
  10326a:	8d 14 99             	lea    (%ecx,%ebx,4),%edx
  10326d:	8b 9a 10 20 08 00    	mov    0x82010(%edx),%ebx
  103273:	89 9c 81 18 24 08 00 	mov    %ebx,0x82418(%ecx,%eax,4)
  10327a:	8d 58 01             	lea    0x1(%eax),%ebx
  10327d:	89 59 04             	mov    %ebx,0x4(%ecx)
  103280:	89 82 10 20 08 00    	mov    %eax,0x82010(%edx)
  103286:	83 c0 02             	add    $0x2,%eax
  103289:	c1 e0 04             	shl    $0x4,%eax
  10328c:	01 c8                	add    %ecx,%eax
  10328e:	89 30                	mov    %esi,(%eax)
  103290:	8b 75 e0             	mov    -0x20(%ebp),%esi
  103293:	89 70 04             	mov    %esi,0x4(%eax)
  103296:	c7 40 08 00 00 00 00 	movl   $0x0,0x8(%eax)
  10329d:	c7 40 0c 00 00 00 00 	movl   $0x0,0xc(%eax)
  1032a4:	8b 41 04             	mov    0x4(%ecx),%eax
  1032a7:	8b 5d d8             	mov    -0x28(%ebp),%ebx
  1032aa:	8d 14 19             	lea    (%ecx,%ebx,1),%edx
  1032ad:	8b b2 10 20 08 00    	mov    0x82010(%edx),%esi
  1032b3:	89 b4 81 18 24 08 00 	mov    %esi,0x82418(%ecx,%eax,4)
  1032ba:	8d 70 01             	lea    0x1(%eax),%esi
  1032bd:	89 71 04             	mov    %esi,0x4(%ecx)
  1032c0:	89 82 10 20 08 00    	mov    %eax,0x82010(%edx)
  1032c6:	47                   	inc    %edi
  1032c7:	39 7d e4             	cmp    %edi,-0x1c(%ebp)
  1032ca:	0f 8f e1 fe ff ff    	jg     1031b1 <bench_dinic_prepare+0x1a9>
  1032d0:	83 c4 2c             	add    $0x2c,%esp
  1032d3:	5b                   	pop    %ebx
  1032d4:	5e                   	pop    %esi
  1032d5:	5f                   	pop    %edi
  1032d6:	5d                   	pop    %ebp
  1032d7:	c3                   	ret    

001032d8 <bench_dinic_run>:
  1032d8:	55                   	push   %ebp
  1032d9:	89 e5                	mov    %esp,%ebp
  1032db:	57                   	push   %edi
  1032dc:	56                   	push   %esi
  1032dd:	53                   	push   %ebx
  1032de:	81 ec cc 00 00 00    	sub    $0xcc,%esp
  1032e4:	a1 84 5a 10 00       	mov    0x105a84,%eax
  1032e9:	01 c0                	add    %eax,%eax
  1032eb:	89 85 34 ff ff ff    	mov    %eax,-0xcc(%ebp)
  1032f1:	8d 78 01             	lea    0x1(%eax),%edi
  1032f4:	89 f9                	mov    %edi,%ecx
  1032f6:	89 7d d8             	mov    %edi,-0x28(%ebp)
  1032f9:	8b 3d 80 5a 10 00    	mov    0x105a80,%edi
  1032ff:	89 47 08             	mov    %eax,0x8(%edi)
  103302:	89 4f 0c             	mov    %ecx,0xc(%edi)
  103305:	8b 0f                	mov    (%edi),%ecx
  103307:	89 4d dc             	mov    %ecx,-0x24(%ebp)
  10330a:	89 45 d4             	mov    %eax,-0x2c(%ebp)
  10330d:	c7 85 3c ff ff ff 00 	movl   $0x0,-0xc4(%ebp)
  103314:	00 00 00 
  103317:	8d 98 44 8b 02 00    	lea    0x28b44(%eax),%ebx
  10331d:	89 5d d0             	mov    %ebx,-0x30(%ebp)
  103320:	8d 04 87             	lea    (%edi,%eax,4),%eax
  103323:	89 85 48 ff ff ff    	mov    %eax,-0xb8(%ebp)
  103329:	8b 45 dc             	mov    -0x24(%ebp),%eax
  10332c:	85 c0                	test   %eax,%eax
  10332e:	7e 14                	jle    103344 <bench_dinic_run+0x6c>
  103330:	8d 87 18 2c 0a 00    	lea    0xa2c18(%edi),%eax
  103336:	8b 75 dc             	mov    -0x24(%ebp),%esi
  103339:	8d 14 30             	lea    (%eax,%esi,1),%edx
  10333c:	c6 00 00             	movb   $0x0,(%eax)
  10333f:	40                   	inc    %eax
  103340:	39 d0                	cmp    %edx,%eax
  103342:	75 f8                	jne    10333c <bench_dinic_run+0x64>
  103344:	8b 45 d4             	mov    -0x2c(%ebp),%eax
  103347:	89 87 2c 35 0a 00    	mov    %eax,0xa352c(%edi)
  10334d:	8b 5d d0             	mov    -0x30(%ebp),%ebx
  103350:	c7 44 9f 0c 00 00 00 	movl   $0x0,0xc(%edi,%ebx,4)
  103357:	00 
  103358:	c6 84 07 18 2c 0a 00 	movb   $0x1,0xa2c18(%edi,%eax,1)
  10335f:	01 
  103360:	bb 01 00 00 00       	mov    $0x1,%ebx
  103365:	c7 45 e0 00 00 00 00 	movl   $0x0,-0x20(%ebp)
  10336c:	ff 45 e0             	incl   -0x20(%ebp)
  10336f:	8d 34 87             	lea    (%edi,%eax,4),%esi
  103372:	8b 86 10 20 08 00    	mov    0x82010(%esi),%eax
  103378:	83 f8 ff             	cmp    $0xffffffff,%eax
  10337b:	74 4f                	je     1033cc <bench_dinic_run+0xf4>
  10337d:	89 75 e4             	mov    %esi,-0x1c(%ebp)
  103380:	8d 50 01             	lea    0x1(%eax),%edx
  103383:	c1 e2 04             	shl    $0x4,%edx
  103386:	01 fa                	add    %edi,%edx
  103388:	8b 4a 04             	mov    0x4(%edx),%ecx
  10338b:	80 bc 0f 18 2c 0a 00 	cmpb   $0x0,0xa2c18(%edi,%ecx,1)
  103392:	00 
  103393:	75 2b                	jne    1033c0 <bench_dinic_run+0xe8>
  103395:	8b 72 0c             	mov    0xc(%edx),%esi
  103398:	39 72 08             	cmp    %esi,0x8(%edx)
  10339b:	7e 23                	jle    1033c0 <bench_dinic_run+0xe8>
  10339d:	c6 84 0f 18 2c 0a 00 	movb   $0x1,0xa2c18(%edi,%ecx,1)
  1033a4:	01 
  1033a5:	8b 75 e4             	mov    -0x1c(%ebp),%esi
  1033a8:	8b b6 1c 2d 0a 00    	mov    0xa2d1c(%esi),%esi
  1033ae:	8d 56 01             	lea    0x1(%esi),%edx
  1033b1:	89 94 8f 1c 2d 0a 00 	mov    %edx,0xa2d1c(%edi,%ecx,4)
  1033b8:	89 8c 9f 2c 35 0a 00 	mov    %ecx,0xa352c(%edi,%ebx,4)
  1033bf:	43                   	inc    %ebx
  1033c0:	8b 84 87 18 24 08 00 	mov    0x82418(%edi,%eax,4),%eax
  1033c7:	83 f8 ff             	cmp    $0xffffffff,%eax
  1033ca:	75 b4                	jne    103380 <bench_dinic_run+0xa8>
  1033cc:	8b 45 e0             	mov    -0x20(%ebp),%eax
  1033cf:	39 d8                	cmp    %ebx,%eax
  1033d1:	74 09                	je     1033dc <bench_dinic_run+0x104>
  1033d3:	8b 84 87 2c 35 0a 00 	mov    0xa352c(%edi,%eax,4),%eax
  1033da:	eb 90                	jmp    10336c <bench_dinic_run+0x94>
  1033dc:	8b 45 d8             	mov    -0x28(%ebp),%eax
  1033df:	80 bc 07 18 2c 0a 00 	cmpb   $0x0,0xa2c18(%edi,%eax,1)
  1033e6:	00 
  1033e7:	0f 84 9c 07 00 00    	je     103b89 <bench_dinic_run+0x8b1>
  1033ed:	8b 5d dc             	mov    -0x24(%ebp),%ebx
  1033f0:	85 db                	test   %ebx,%ebx
  1033f2:	7e 1b                	jle    10340f <bench_dinic_run+0x137>
  1033f4:	8d 87 10 20 08 00    	lea    0x82010(%edi),%eax
  1033fa:	8d 14 98             	lea    (%eax,%ebx,4),%edx
  1033fd:	8d 76 00             	lea    0x0(%esi),%esi
  103400:	8b 08                	mov    (%eax),%ecx
  103402:	89 88 14 11 02 00    	mov    %ecx,0x21114(%eax)
  103408:	83 c0 04             	add    $0x4,%eax
  10340b:	39 d0                	cmp    %edx,%eax
  10340d:	75 f1                	jne    103400 <bench_dinic_run+0x128>
  10340f:	8b 45 d8             	mov    -0x28(%ebp),%eax
  103412:	39 85 34 ff ff ff    	cmp    %eax,-0xcc(%ebp)
  103418:	0f 84 3c 07 00 00    	je     103b5a <bench_dinic_run+0x882>
  10341e:	8b 8d 48 ff ff ff    	mov    -0xb8(%ebp),%ecx
  103424:	8b 99 24 31 0a 00    	mov    0xa3124(%ecx),%ebx
  10342a:	89 9d 68 ff ff ff    	mov    %ebx,-0x98(%ebp)
  103430:	43                   	inc    %ebx
  103431:	0f 84 2a 07 00 00    	je     103b61 <bench_dinic_run+0x889>
  103437:	c7 85 40 ff ff ff 00 	movl   $0x0,-0xc0(%ebp)
  10343e:	00 00 00 
  103441:	c7 85 38 ff ff ff 3f 	movl   $0x3f3f3f,-0xc8(%ebp)
  103448:	3f 3f 00 
  10344b:	89 c3                	mov    %eax,%ebx
  10344d:	eb 1a                	jmp    103469 <bench_dinic_run+0x191>
  10344f:	8b 85 68 ff ff ff    	mov    -0x98(%ebp),%eax
  103455:	8b 84 87 18 24 08 00 	mov    0x82418(%edi,%eax,4),%eax
  10345c:	89 85 68 ff ff ff    	mov    %eax,-0x98(%ebp)
  103462:	40                   	inc    %eax
  103463:	0f 84 c7 06 00 00    	je     103b30 <bench_dinic_run+0x858>
  103469:	8b 85 68 ff ff ff    	mov    -0x98(%ebp),%eax
  10346f:	40                   	inc    %eax
  103470:	c1 e0 04             	shl    $0x4,%eax
  103473:	01 f8                	add    %edi,%eax
  103475:	89 c6                	mov    %eax,%esi
  103477:	89 85 4c ff ff ff    	mov    %eax,-0xb4(%ebp)
  10347d:	8b 85 48 ff ff ff    	mov    -0xb8(%ebp),%eax
  103483:	8b 80 1c 2d 0a 00    	mov    0xa2d1c(%eax),%eax
  103489:	89 45 e4             	mov    %eax,-0x1c(%ebp)
  10348c:	40                   	inc    %eax
  10348d:	8b 56 04             	mov    0x4(%esi),%edx
  103490:	8d 0c 97             	lea    (%edi,%edx,4),%ecx
  103493:	89 8d 5c ff ff ff    	mov    %ecx,-0xa4(%ebp)
  103499:	3b 81 1c 2d 0a 00    	cmp    0xa2d1c(%ecx),%eax
  10349f:	75 ae                	jne    10344f <bench_dinic_run+0x177>
  1034a1:	8b 4e 08             	mov    0x8(%esi),%ecx
  1034a4:	2b 4e 0c             	sub    0xc(%esi),%ecx
  1034a7:	8b b5 38 ff ff ff    	mov    -0xc8(%ebp),%esi
  1034ad:	89 b5 54 ff ff ff    	mov    %esi,-0xac(%ebp)
  1034b3:	39 ce                	cmp    %ecx,%esi
  1034b5:	7e 06                	jle    1034bd <bench_dinic_run+0x1e5>
  1034b7:	89 8d 54 ff ff ff    	mov    %ecx,-0xac(%ebp)
  1034bd:	39 da                	cmp    %ebx,%edx
  1034bf:	0f 84 4b 06 00 00    	je     103b10 <bench_dinic_run+0x838>
  1034c5:	8b b5 54 ff ff ff    	mov    -0xac(%ebp),%esi
  1034cb:	85 f6                	test   %esi,%esi
  1034cd:	74 80                	je     10344f <bench_dinic_run+0x177>
  1034cf:	8b b5 5c ff ff ff    	mov    -0xa4(%ebp),%esi
  1034d5:	8b 8e 24 31 0a 00    	mov    0xa3124(%esi),%ecx
  1034db:	89 8d 78 ff ff ff    	mov    %ecx,-0x88(%ebp)
  1034e1:	41                   	inc    %ecx
  1034e2:	0f 84 67 ff ff ff    	je     10344f <bench_dinic_run+0x177>
  1034e8:	c7 85 44 ff ff ff 00 	movl   $0x0,-0xbc(%ebp)
  1034ef:	00 00 00 
  1034f2:	eb 26                	jmp    10351a <bench_dinic_run+0x242>
  1034f4:	8b 85 78 ff ff ff    	mov    -0x88(%ebp),%eax
  1034fa:	8b 84 87 18 24 08 00 	mov    0x82418(%edi,%eax,4),%eax
  103501:	89 85 78 ff ff ff    	mov    %eax,-0x88(%ebp)
  103507:	40                   	inc    %eax
  103508:	0f 84 0e 06 00 00    	je     103b1c <bench_dinic_run+0x844>
  10350e:	8b 85 5c ff ff ff    	mov    -0xa4(%ebp),%eax
  103514:	8b 80 1c 2d 0a 00    	mov    0xa2d1c(%eax),%eax
  10351a:	8b b5 78 ff ff ff    	mov    -0x88(%ebp),%esi
  103520:	8d 56 01             	lea    0x1(%esi),%edx
  103523:	c1 e2 04             	shl    $0x4,%edx
  103526:	8d 34 17             	lea    (%edi,%edx,1),%esi
  103529:	89 b5 58 ff ff ff    	mov    %esi,-0xa8(%ebp)
  10352f:	40                   	inc    %eax
  103530:	8b 56 04             	mov    0x4(%esi),%edx
  103533:	8d 0c 97             	lea    (%edi,%edx,4),%ecx
  103536:	89 8d 70 ff ff ff    	mov    %ecx,-0x90(%ebp)
  10353c:	3b 81 1c 2d 0a 00    	cmp    0xa2d1c(%ecx),%eax
  103542:	75 b0                	jne    1034f4 <bench_dinic_run+0x21c>
  103544:	8b 4e 08             	mov    0x8(%esi),%ecx
  103547:	2b 4e 0c             	sub    0xc(%esi),%ecx
  10354a:	8b 9d 54 ff ff ff    	mov    -0xac(%ebp),%ebx
  103550:	89 9d 60 ff ff ff    	mov    %ebx,-0xa0(%ebp)
  103556:	39 cb                	cmp    %ecx,%ebx
  103558:	7e 06                	jle    103560 <bench_dinic_run+0x288>
  10355a:	89 8d 60 ff ff ff    	mov    %ecx,-0xa0(%ebp)
  103560:	3b 57 0c             	cmp    0xc(%edi),%edx
  103563:	0f 84 87 05 00 00    	je     103af0 <bench_dinic_run+0x818>
  103569:	8b 9d 60 ff ff ff    	mov    -0xa0(%ebp),%ebx
  10356f:	85 db                	test   %ebx,%ebx
  103571:	74 81                	je     1034f4 <bench_dinic_run+0x21c>
  103573:	8b 9d 70 ff ff ff    	mov    -0x90(%ebp),%ebx
  103579:	8b 9b 24 31 0a 00    	mov    0xa3124(%ebx),%ebx
  10357f:	89 5d 8c             	mov    %ebx,-0x74(%ebp)
  103582:	43                   	inc    %ebx
  103583:	0f 84 6b ff ff ff    	je     1034f4 <bench_dinic_run+0x21c>
  103589:	c7 85 50 ff ff ff 00 	movl   $0x0,-0xb0(%ebp)
  103590:	00 00 00 
  103593:	eb 23                	jmp    1035b8 <bench_dinic_run+0x2e0>
  103595:	8d 76 00             	lea    0x0(%esi),%esi
  103598:	8b 45 8c             	mov    -0x74(%ebp),%eax
  10359b:	8b 84 87 18 24 08 00 	mov    0x82418(%edi,%eax,4),%eax
  1035a2:	89 45 8c             	mov    %eax,-0x74(%ebp)
  1035a5:	40                   	inc    %eax
  1035a6:	0f 84 50 05 00 00    	je     103afc <bench_dinic_run+0x824>
  1035ac:	8b 85 70 ff ff ff    	mov    -0x90(%ebp),%eax
  1035b2:	8b 80 1c 2d 0a 00    	mov    0xa2d1c(%eax),%eax
  1035b8:	8b 75 8c             	mov    -0x74(%ebp),%esi
  1035bb:	8d 56 01             	lea    0x1(%esi),%edx
  1035be:	c1 e2 04             	shl    $0x4,%edx
  1035c1:	8d 1c 17             	lea    (%edi,%edx,1),%ebx
  1035c4:	89 9d 6c ff ff ff    	mov    %ebx,-0x94(%ebp)
  1035ca:	40                   	inc    %eax
  1035cb:	8b 53 04             	mov    0x4(%ebx),%edx
  1035ce:	8d 0c 97             	lea    (%edi,%edx,4),%ecx
  1035d1:	89 4d 84             	mov    %ecx,-0x7c(%ebp)
  1035d4:	3b 81 1c 2d 0a 00    	cmp    0xa2d1c(%ecx),%eax
  1035da:	75 bc                	jne    103598 <bench_dinic_run+0x2c0>
  1035dc:	8b 4b 08             	mov    0x8(%ebx),%ecx
  1035df:	2b 4b 0c             	sub    0xc(%ebx),%ecx
  1035e2:	8b b5 60 ff ff ff    	mov    -0xa0(%ebp),%esi
  1035e8:	89 b5 74 ff ff ff    	mov    %esi,-0x8c(%ebp)
  1035ee:	39 ce                	cmp    %ecx,%esi
  1035f0:	7e 06                	jle    1035f8 <bench_dinic_run+0x320>
  1035f2:	89 8d 74 ff ff ff    	mov    %ecx,-0x8c(%ebp)
  1035f8:	3b 57 0c             	cmp    0xc(%edi),%edx
  1035fb:	0f 84 cf 04 00 00    	je     103ad0 <bench_dinic_run+0x7f8>
  103601:	8b 8d 74 ff ff ff    	mov    -0x8c(%ebp),%ecx
  103607:	85 c9                	test   %ecx,%ecx
  103609:	74 8d                	je     103598 <bench_dinic_run+0x2c0>
  10360b:	8b 5d 84             	mov    -0x7c(%ebp),%ebx
  10360e:	8b 8b 24 31 0a 00    	mov    0xa3124(%ebx),%ecx
  103614:	89 4d 9c             	mov    %ecx,-0x64(%ebp)
  103617:	41                   	inc    %ecx
  103618:	0f 84 7a ff ff ff    	je     103598 <bench_dinic_run+0x2c0>
  10361e:	c7 85 64 ff ff ff 00 	movl   $0x0,-0x9c(%ebp)
  103625:	00 00 00 
  103628:	eb 1f                	jmp    103649 <bench_dinic_run+0x371>
  10362a:	66 90                	xchg   %ax,%ax
  10362c:	8b 45 9c             	mov    -0x64(%ebp),%eax
  10362f:	8b 84 87 18 24 08 00 	mov    0x82418(%edi,%eax,4),%eax
  103636:	89 45 9c             	mov    %eax,-0x64(%ebp)
  103639:	40                   	inc    %eax
  10363a:	0f 84 9c 04 00 00    	je     103adc <bench_dinic_run+0x804>
  103640:	8b 45 84             	mov    -0x7c(%ebp),%eax
  103643:	8b 80 1c 2d 0a 00    	mov    0xa2d1c(%eax),%eax
  103649:	8b 5d 9c             	mov    -0x64(%ebp),%ebx
  10364c:	8d 53 01             	lea    0x1(%ebx),%edx
  10364f:	c1 e2 04             	shl    $0x4,%edx
  103652:	8d 1c 17             	lea    (%edi,%edx,1),%ebx
  103655:	89 5d 80             	mov    %ebx,-0x80(%ebp)
  103658:	40                   	inc    %eax
  103659:	8b 53 04             	mov    0x4(%ebx),%edx
  10365c:	8d 0c 97             	lea    (%edi,%edx,4),%ecx
  10365f:	89 4d 98             	mov    %ecx,-0x68(%ebp)
  103662:	3b 81 1c 2d 0a 00    	cmp    0xa2d1c(%ecx),%eax
  103668:	75 c2                	jne    10362c <bench_dinic_run+0x354>
  10366a:	8b 4b 08             	mov    0x8(%ebx),%ecx
  10366d:	2b 4b 0c             	sub    0xc(%ebx),%ecx
  103670:	8b 9d 74 ff ff ff    	mov    -0x8c(%ebp),%ebx
  103676:	89 5d 88             	mov    %ebx,-0x78(%ebp)
  103679:	39 cb                	cmp    %ecx,%ebx
  10367b:	7e 03                	jle    103680 <bench_dinic_run+0x3a8>
  10367d:	89 4d 88             	mov    %ecx,-0x78(%ebp)
  103680:	3b 57 0c             	cmp    0xc(%edi),%edx
  103683:	0f 84 2b 04 00 00    	je     103ab4 <bench_dinic_run+0x7dc>
  103689:	8b 55 88             	mov    -0x78(%ebp),%edx
  10368c:	85 d2                	test   %edx,%edx
  10368e:	74 9c                	je     10362c <bench_dinic_run+0x354>
  103690:	8b 75 98             	mov    -0x68(%ebp),%esi
  103693:	8b 9e 24 31 0a 00    	mov    0xa3124(%esi),%ebx
  103699:	89 5d b0             	mov    %ebx,-0x50(%ebp)
  10369c:	43                   	inc    %ebx
  10369d:	74 8d                	je     10362c <bench_dinic_run+0x354>
  10369f:	c7 85 7c ff ff ff 00 	movl   $0x0,-0x84(%ebp)
  1036a6:	00 00 00 
  1036a9:	eb 1e                	jmp    1036c9 <bench_dinic_run+0x3f1>
  1036ab:	90                   	nop
  1036ac:	8b 45 b0             	mov    -0x50(%ebp),%eax
  1036af:	8b 84 87 18 24 08 00 	mov    0x82418(%edi,%eax,4),%eax
  1036b6:	89 45 b0             	mov    %eax,-0x50(%ebp)
  1036b9:	40                   	inc    %eax
  1036ba:	0f 84 fd 03 00 00    	je     103abd <bench_dinic_run+0x7e5>
  1036c0:	8b 45 98             	mov    -0x68(%ebp),%eax
  1036c3:	8b 80 1c 2d 0a 00    	mov    0xa2d1c(%eax),%eax
  1036c9:	8b 5d b0             	mov    -0x50(%ebp),%ebx
  1036cc:	8d 53 01             	lea    0x1(%ebx),%edx
  1036cf:	c1 e2 04             	shl    $0x4,%edx
  1036d2:	8d 0c 17             	lea    (%edi,%edx,1),%ecx
  1036d5:	89 4d 94             	mov    %ecx,-0x6c(%ebp)
  1036d8:	40                   	inc    %eax
  1036d9:	8b 51 04             	mov    0x4(%ecx),%edx
  1036dc:	8d 0c 97             	lea    (%edi,%edx,4),%ecx
  1036df:	89 4d ac             	mov    %ecx,-0x54(%ebp)
  1036e2:	3b 81 1c 2d 0a 00    	cmp    0xa2d1c(%ecx),%eax
  1036e8:	75 c2                	jne    1036ac <bench_dinic_run+0x3d4>
  1036ea:	8b 5d 94             	mov    -0x6c(%ebp),%ebx
  1036ed:	8b 4b 08             	mov    0x8(%ebx),%ecx
  1036f0:	2b 4b 0c             	sub    0xc(%ebx),%ecx
  1036f3:	8b 75 88             	mov    -0x78(%ebp),%esi
  1036f6:	89 75 a0             	mov    %esi,-0x60(%ebp)
  1036f9:	39 ce                	cmp    %ecx,%esi
  1036fb:	7e 03                	jle    103700 <bench_dinic_run+0x428>
  1036fd:	89 4d a0             	mov    %ecx,-0x60(%ebp)
  103700:	3b 57 0c             	cmp    0xc(%edi),%edx
  103703:	0f 84 93 03 00 00    	je     103a9c <bench_dinic_run+0x7c4>
  103709:	8b 75 a0             	mov    -0x60(%ebp),%esi
  10370c:	85 f6                	test   %esi,%esi
  10370e:	74 9c                	je     1036ac <bench_dinic_run+0x3d4>
  103710:	8b 5d ac             	mov    -0x54(%ebp),%ebx
  103713:	8b 9b 24 31 0a 00    	mov    0xa3124(%ebx),%ebx
  103719:	89 5d c4             	mov    %ebx,-0x3c(%ebp)
  10371c:	43                   	inc    %ebx
  10371d:	74 8d                	je     1036ac <bench_dinic_run+0x3d4>
  10371f:	c7 45 90 00 00 00 00 	movl   $0x0,-0x70(%ebp)
  103726:	eb 1d                	jmp    103745 <bench_dinic_run+0x46d>
  103728:	8b 45 c4             	mov    -0x3c(%ebp),%eax
  10372b:	8b 84 87 18 24 08 00 	mov    0x82418(%edi,%eax,4),%eax
  103732:	89 45 c4             	mov    %eax,-0x3c(%ebp)
  103735:	40                   	inc    %eax
  103736:	0f 84 66 03 00 00    	je     103aa2 <bench_dinic_run+0x7ca>
  10373c:	8b 45 ac             	mov    -0x54(%ebp),%eax
  10373f:	8b 80 1c 2d 0a 00    	mov    0xa2d1c(%eax),%eax
  103745:	8b 5d c4             	mov    -0x3c(%ebp),%ebx
  103748:	8d 53 01             	lea    0x1(%ebx),%edx
  10374b:	c1 e2 04             	shl    $0x4,%edx
  10374e:	8d 1c 17             	lea    (%edi,%edx,1),%ebx
  103751:	89 5d a8             	mov    %ebx,-0x58(%ebp)
  103754:	40                   	inc    %eax
  103755:	8b 53 04             	mov    0x4(%ebx),%edx
  103758:	8d 0c 97             	lea    (%edi,%edx,4),%ecx
  10375b:	89 4d c0             	mov    %ecx,-0x40(%ebp)
  10375e:	3b 81 1c 2d 0a 00    	cmp    0xa2d1c(%ecx),%eax
  103764:	75 c2                	jne    103728 <bench_dinic_run+0x450>
  103766:	8b 4b 08             	mov    0x8(%ebx),%ecx
  103769:	2b 4b 0c             	sub    0xc(%ebx),%ecx
  10376c:	8b 75 a0             	mov    -0x60(%ebp),%esi
  10376f:	89 75 b4             	mov    %esi,-0x4c(%ebp)
  103772:	39 ce                	cmp    %ecx,%esi
  103774:	7e 03                	jle    103779 <bench_dinic_run+0x4a1>
  103776:	89 4d b4             	mov    %ecx,-0x4c(%ebp)
  103779:	3b 57 0c             	cmp    0xc(%edi),%edx
  10377c:	0f 84 02 03 00 00    	je     103a84 <bench_dinic_run+0x7ac>
  103782:	8b 5d b4             	mov    -0x4c(%ebp),%ebx
  103785:	85 db                	test   %ebx,%ebx
  103787:	74 9f                	je     103728 <bench_dinic_run+0x450>
  103789:	8b 75 c0             	mov    -0x40(%ebp),%esi
  10378c:	8b 8e 24 31 0a 00    	mov    0xa3124(%esi),%ecx
  103792:	89 4d d8             	mov    %ecx,-0x28(%ebp)
  103795:	41                   	inc    %ecx
  103796:	74 90                	je     103728 <bench_dinic_run+0x450>
  103798:	c7 45 a4 00 00 00 00 	movl   $0x0,-0x5c(%ebp)
  10379f:	eb 20                	jmp    1037c1 <bench_dinic_run+0x4e9>
  1037a1:	8d 76 00             	lea    0x0(%esi),%esi
  1037a4:	8b 45 d8             	mov    -0x28(%ebp),%eax
  1037a7:	8b 84 87 18 24 08 00 	mov    0x82418(%edi,%eax,4),%eax
  1037ae:	89 45 d8             	mov    %eax,-0x28(%ebp)
  1037b1:	40                   	inc    %eax
  1037b2:	0f 84 d2 02 00 00    	je     103a8a <bench_dinic_run+0x7b2>
  1037b8:	8b 45 c0             	mov    -0x40(%ebp),%eax
  1037bb:	8b 80 1c 2d 0a 00    	mov    0xa2d1c(%eax),%eax
  1037c1:	8b 5d d8             	mov    -0x28(%ebp),%ebx
  1037c4:	8d 53 01             	lea    0x1(%ebx),%edx
  1037c7:	c1 e2 04             	shl    $0x4,%edx
  1037ca:	8d 1c 17             	lea    (%edi,%edx,1),%ebx
  1037cd:	89 5d bc             	mov    %ebx,-0x44(%ebp)
  1037d0:	40                   	inc    %eax
  1037d1:	8b 53 04             	mov    0x4(%ebx),%edx
  1037d4:	8d 34 97             	lea    (%edi,%edx,4),%esi
  1037d7:	89 75 d4             	mov    %esi,-0x2c(%ebp)
  1037da:	3b 86 1c 2d 0a 00    	cmp    0xa2d1c(%esi),%eax
  1037e0:	75 c2                	jne    1037a4 <bench_dinic_run+0x4cc>
  1037e2:	8b 4b 08             	mov    0x8(%ebx),%ecx
  1037e5:	2b 4b 0c             	sub    0xc(%ebx),%ecx
  1037e8:	8b 5d b4             	mov    -0x4c(%ebp),%ebx
  1037eb:	89 5d c8             	mov    %ebx,-0x38(%ebp)
  1037ee:	39 cb                	cmp    %ecx,%ebx
  1037f0:	7e 03                	jle    1037f5 <bench_dinic_run+0x51d>
  1037f2:	89 4d c8             	mov    %ecx,-0x38(%ebp)
  1037f5:	3b 57 0c             	cmp    0xc(%edi),%edx
  1037f8:	0f 84 6e 02 00 00    	je     103a6c <bench_dinic_run+0x794>
  1037fe:	8b 4d c8             	mov    -0x38(%ebp),%ecx
  103801:	85 c9                	test   %ecx,%ecx
  103803:	74 9f                	je     1037a4 <bench_dinic_run+0x4cc>
  103805:	8b 75 d4             	mov    -0x2c(%ebp),%esi
  103808:	8b 8e 24 31 0a 00    	mov    0xa3124(%esi),%ecx
  10380e:	89 4d e4             	mov    %ecx,-0x1c(%ebp)
  103811:	41                   	inc    %ecx
  103812:	74 90                	je     1037a4 <bench_dinic_run+0x4cc>
  103814:	c7 45 b8 00 00 00 00 	movl   $0x0,-0x48(%ebp)
  10381b:	eb 20                	jmp    10383d <bench_dinic_run+0x565>
  10381d:	8d 76 00             	lea    0x0(%esi),%esi
  103820:	8b 45 e4             	mov    -0x1c(%ebp),%eax
  103823:	8b 84 87 18 24 08 00 	mov    0x82418(%edi,%eax,4),%eax
  10382a:	89 45 e4             	mov    %eax,-0x1c(%ebp)
  10382d:	40                   	inc    %eax
  10382e:	0f 84 3e 02 00 00    	je     103a72 <bench_dinic_run+0x79a>
  103834:	8b 45 d4             	mov    -0x2c(%ebp),%eax
  103837:	8b 80 1c 2d 0a 00    	mov    0xa2d1c(%eax),%eax
  10383d:	8b 5d e4             	mov    -0x1c(%ebp),%ebx
  103840:	8d 53 01             	lea    0x1(%ebx),%edx
  103843:	c1 e2 04             	shl    $0x4,%edx
  103846:	8d 0c 17             	lea    (%edi,%edx,1),%ecx
  103849:	89 4d d0             	mov    %ecx,-0x30(%ebp)
  10384c:	40                   	inc    %eax
  10384d:	8b 51 04             	mov    0x4(%ecx),%edx
  103850:	8d 0c 97             	lea    (%edi,%edx,4),%ecx
  103853:	3b 81 1c 2d 0a 00    	cmp    0xa2d1c(%ecx),%eax
  103859:	75 c5                	jne    103820 <bench_dinic_run+0x548>
  10385b:	8b 75 d0             	mov    -0x30(%ebp),%esi
  10385e:	8b 5e 08             	mov    0x8(%esi),%ebx
  103861:	2b 5e 0c             	sub    0xc(%esi),%ebx
  103864:	8b 75 c8             	mov    -0x38(%ebp),%esi
  103867:	89 75 e0             	mov    %esi,-0x20(%ebp)
  10386a:	39 de                	cmp    %ebx,%esi
  10386c:	7e 03                	jle    103871 <bench_dinic_run+0x599>
  10386e:	89 5d e0             	mov    %ebx,-0x20(%ebp)
  103871:	3b 57 0c             	cmp    0xc(%edi),%edx
  103874:	0f 84 da 01 00 00    	je     103a54 <bench_dinic_run+0x77c>
  10387a:	8b 55 e0             	mov    -0x20(%ebp),%edx
  10387d:	85 d2                	test   %edx,%edx
  10387f:	74 9f                	je     103820 <bench_dinic_run+0x548>
  103881:	8b 99 24 31 0a 00    	mov    0xa3124(%ecx),%ebx
  103887:	83 fb ff             	cmp    $0xffffffff,%ebx
  10388a:	74 94                	je     103820 <bench_dinic_run+0x548>
  10388c:	c7 45 cc 00 00 00 00 	movl   $0x0,-0x34(%ebp)
  103893:	89 4d dc             	mov    %ecx,-0x24(%ebp)
  103896:	eb 19                	jmp    1038b1 <bench_dinic_run+0x5d9>
  103898:	8b 9c 9f 18 24 08 00 	mov    0x82418(%edi,%ebx,4),%ebx
  10389f:	83 fb ff             	cmp    $0xffffffff,%ebx
  1038a2:	0f 84 b2 01 00 00    	je     103a5a <bench_dinic_run+0x782>
  1038a8:	8b 45 dc             	mov    -0x24(%ebp),%eax
  1038ab:	8b 80 1c 2d 0a 00    	mov    0xa2d1c(%eax),%eax
  1038b1:	8d 73 01             	lea    0x1(%ebx),%esi
  1038b4:	c1 e6 04             	shl    $0x4,%esi
  1038b7:	01 fe                	add    %edi,%esi
  1038b9:	8b 56 04             	mov    0x4(%esi),%edx
  1038bc:	40                   	inc    %eax
  1038bd:	3b 84 97 1c 2d 0a 00 	cmp    0xa2d1c(%edi,%edx,4),%eax
  1038c4:	75 d2                	jne    103898 <bench_dinic_run+0x5c0>
  1038c6:	8b 46 08             	mov    0x8(%esi),%eax
  1038c9:	2b 46 0c             	sub    0xc(%esi),%eax
  1038cc:	8b 4d e0             	mov    -0x20(%ebp),%ecx
  1038cf:	39 c1                	cmp    %eax,%ecx
  1038d1:	7e 02                	jle    1038d5 <bench_dinic_run+0x5fd>
  1038d3:	89 c1                	mov    %eax,%ecx
  1038d5:	89 4c 24 08          	mov    %ecx,0x8(%esp)
  1038d9:	89 54 24 04          	mov    %edx,0x4(%esp)
  1038dd:	89 3c 24             	mov    %edi,(%esp)
  1038e0:	e8 d7 02 00 00       	call   103bbc <_ZN5Dinic3DFSEii>
  1038e5:	85 c0                	test   %eax,%eax
  1038e7:	7e af                	jle    103898 <bench_dinic_run+0x5c0>
  1038e9:	01 46 0c             	add    %eax,0xc(%esi)
  1038ec:	89 da                	mov    %ebx,%edx
  1038ee:	83 f2 01             	xor    $0x1,%edx
  1038f1:	c1 e2 04             	shl    $0x4,%edx
  1038f4:	29 44 17 1c          	sub    %eax,0x1c(%edi,%edx,1)
  1038f8:	01 45 cc             	add    %eax,-0x34(%ebp)
  1038fb:	29 45 e0             	sub    %eax,-0x20(%ebp)
  1038fe:	75 98                	jne    103898 <bench_dinic_run+0x5c0>
  103900:	8b 75 d0             	mov    -0x30(%ebp),%esi
  103903:	8b 4d cc             	mov    -0x34(%ebp),%ecx
  103906:	01 4e 0c             	add    %ecx,0xc(%esi)
  103909:	8b 45 e4             	mov    -0x1c(%ebp),%eax
  10390c:	83 f0 01             	xor    $0x1,%eax
  10390f:	c1 e0 04             	shl    $0x4,%eax
  103912:	29 4c 07 1c          	sub    %ecx,0x1c(%edi,%eax,1)
  103916:	01 4d b8             	add    %ecx,-0x48(%ebp)
  103919:	29 4d c8             	sub    %ecx,-0x38(%ebp)
  10391c:	0f 85 fe fe ff ff    	jne    103820 <bench_dinic_run+0x548>
  103922:	66 90                	xchg   %ax,%ax
  103924:	8b 4d bc             	mov    -0x44(%ebp),%ecx
  103927:	8b 5d b8             	mov    -0x48(%ebp),%ebx
  10392a:	01 59 0c             	add    %ebx,0xc(%ecx)
  10392d:	8b 45 d8             	mov    -0x28(%ebp),%eax
  103930:	83 f0 01             	xor    $0x1,%eax
  103933:	c1 e0 04             	shl    $0x4,%eax
  103936:	29 5c 07 1c          	sub    %ebx,0x1c(%edi,%eax,1)
  10393a:	01 5d a4             	add    %ebx,-0x5c(%ebp)
  10393d:	29 5d b4             	sub    %ebx,-0x4c(%ebp)
  103940:	0f 85 5e fe ff ff    	jne    1037a4 <bench_dinic_run+0x4cc>
  103946:	66 90                	xchg   %ax,%ax
  103948:	8b 4d a8             	mov    -0x58(%ebp),%ecx
  10394b:	8b 5d a4             	mov    -0x5c(%ebp),%ebx
  10394e:	01 59 0c             	add    %ebx,0xc(%ecx)
  103951:	8b 45 c4             	mov    -0x3c(%ebp),%eax
  103954:	83 f0 01             	xor    $0x1,%eax
  103957:	c1 e0 04             	shl    $0x4,%eax
  10395a:	29 5c 07 1c          	sub    %ebx,0x1c(%edi,%eax,1)
  10395e:	01 5d 90             	add    %ebx,-0x70(%ebp)
  103961:	29 5d a0             	sub    %ebx,-0x60(%ebp)
  103964:	0f 85 be fd ff ff    	jne    103728 <bench_dinic_run+0x450>
  10396a:	66 90                	xchg   %ax,%ax
  10396c:	8b 4d 94             	mov    -0x6c(%ebp),%ecx
  10396f:	8b 75 90             	mov    -0x70(%ebp),%esi
  103972:	01 71 0c             	add    %esi,0xc(%ecx)
  103975:	8b 45 b0             	mov    -0x50(%ebp),%eax
  103978:	83 f0 01             	xor    $0x1,%eax
  10397b:	c1 e0 04             	shl    $0x4,%eax
  10397e:	29 74 07 1c          	sub    %esi,0x1c(%edi,%eax,1)
  103982:	01 b5 7c ff ff ff    	add    %esi,-0x84(%ebp)
  103988:	29 75 88             	sub    %esi,-0x78(%ebp)
  10398b:	0f 85 1b fd ff ff    	jne    1036ac <bench_dinic_run+0x3d4>
  103991:	8b 4d 80             	mov    -0x80(%ebp),%ecx
  103994:	8b 9d 7c ff ff ff    	mov    -0x84(%ebp),%ebx
  10399a:	01 59 0c             	add    %ebx,0xc(%ecx)
  10399d:	8b 45 9c             	mov    -0x64(%ebp),%eax
  1039a0:	83 f0 01             	xor    $0x1,%eax
  1039a3:	c1 e0 04             	shl    $0x4,%eax
  1039a6:	29 5c 07 1c          	sub    %ebx,0x1c(%edi,%eax,1)
  1039aa:	01 9d 64 ff ff ff    	add    %ebx,-0x9c(%ebp)
  1039b0:	29 9d 74 ff ff ff    	sub    %ebx,-0x8c(%ebp)
  1039b6:	0f 85 70 fc ff ff    	jne    10362c <bench_dinic_run+0x354>
  1039bc:	8b 9d 6c ff ff ff    	mov    -0x94(%ebp),%ebx
  1039c2:	8b 8d 64 ff ff ff    	mov    -0x9c(%ebp),%ecx
  1039c8:	01 4b 0c             	add    %ecx,0xc(%ebx)
  1039cb:	8b 45 8c             	mov    -0x74(%ebp),%eax
  1039ce:	83 f0 01             	xor    $0x1,%eax
  1039d1:	c1 e0 04             	shl    $0x4,%eax
  1039d4:	29 4c 07 1c          	sub    %ecx,0x1c(%edi,%eax,1)
  1039d8:	01 8d 50 ff ff ff    	add    %ecx,-0xb0(%ebp)
  1039de:	29 8d 60 ff ff ff    	sub    %ecx,-0xa0(%ebp)
  1039e4:	0f 85 ae fb ff ff    	jne    103598 <bench_dinic_run+0x2c0>
  1039ea:	8b 9d 58 ff ff ff    	mov    -0xa8(%ebp),%ebx
  1039f0:	8b 8d 50 ff ff ff    	mov    -0xb0(%ebp),%ecx
  1039f6:	01 4b 0c             	add    %ecx,0xc(%ebx)
  1039f9:	8b 85 78 ff ff ff    	mov    -0x88(%ebp),%eax
  1039ff:	83 f0 01             	xor    $0x1,%eax
  103a02:	c1 e0 04             	shl    $0x4,%eax
  103a05:	29 4c 07 1c          	sub    %ecx,0x1c(%edi,%eax,1)
  103a09:	01 8d 44 ff ff ff    	add    %ecx,-0xbc(%ebp)
  103a0f:	29 8d 54 ff ff ff    	sub    %ecx,-0xac(%ebp)
  103a15:	0f 85 d9 fa ff ff    	jne    1034f4 <bench_dinic_run+0x21c>
  103a1b:	8b 8d 4c ff ff ff    	mov    -0xb4(%ebp),%ecx
  103a21:	8b b5 44 ff ff ff    	mov    -0xbc(%ebp),%esi
  103a27:	01 71 0c             	add    %esi,0xc(%ecx)
  103a2a:	8b 85 68 ff ff ff    	mov    -0x98(%ebp),%eax
  103a30:	83 f0 01             	xor    $0x1,%eax
  103a33:	c1 e0 04             	shl    $0x4,%eax
  103a36:	29 74 07 1c          	sub    %esi,0x1c(%edi,%eax,1)
  103a3a:	01 b5 40 ff ff ff    	add    %esi,-0xc0(%ebp)
  103a40:	29 b5 38 ff ff ff    	sub    %esi,-0xc8(%ebp)
  103a46:	0f 84 19 01 00 00    	je     103b65 <bench_dinic_run+0x88d>
  103a4c:	8b 5f 0c             	mov    0xc(%edi),%ebx
  103a4f:	e9 fb f9 ff ff       	jmp    10344f <bench_dinic_run+0x177>
  103a54:	8b 45 e0             	mov    -0x20(%ebp),%eax
  103a57:	89 45 cc             	mov    %eax,-0x34(%ebp)
  103a5a:	8b 45 cc             	mov    -0x34(%ebp),%eax
  103a5d:	85 c0                	test   %eax,%eax
  103a5f:	0f 8f 9b fe ff ff    	jg     103900 <bench_dinic_run+0x628>
  103a65:	e9 b6 fd ff ff       	jmp    103820 <bench_dinic_run+0x548>
  103a6a:	66 90                	xchg   %ax,%ax
  103a6c:	8b 45 c8             	mov    -0x38(%ebp),%eax
  103a6f:	89 45 b8             	mov    %eax,-0x48(%ebp)
  103a72:	8b 45 b8             	mov    -0x48(%ebp),%eax
  103a75:	85 c0                	test   %eax,%eax
  103a77:	0f 8f a7 fe ff ff    	jg     103924 <bench_dinic_run+0x64c>
  103a7d:	e9 22 fd ff ff       	jmp    1037a4 <bench_dinic_run+0x4cc>
  103a82:	66 90                	xchg   %ax,%ax
  103a84:	8b 45 b4             	mov    -0x4c(%ebp),%eax
  103a87:	89 45 a4             	mov    %eax,-0x5c(%ebp)
  103a8a:	8b 45 a4             	mov    -0x5c(%ebp),%eax
  103a8d:	85 c0                	test   %eax,%eax
  103a8f:	0f 8f b3 fe ff ff    	jg     103948 <bench_dinic_run+0x670>
  103a95:	e9 8e fc ff ff       	jmp    103728 <bench_dinic_run+0x450>
  103a9a:	66 90                	xchg   %ax,%ax
  103a9c:	8b 45 a0             	mov    -0x60(%ebp),%eax
  103a9f:	89 45 90             	mov    %eax,-0x70(%ebp)
  103aa2:	8b 45 90             	mov    -0x70(%ebp),%eax
  103aa5:	85 c0                	test   %eax,%eax
  103aa7:	0f 8f bf fe ff ff    	jg     10396c <bench_dinic_run+0x694>
  103aad:	e9 fa fb ff ff       	jmp    1036ac <bench_dinic_run+0x3d4>
  103ab2:	66 90                	xchg   %ax,%ax
  103ab4:	8b 45 88             	mov    -0x78(%ebp),%eax
  103ab7:	89 85 7c ff ff ff    	mov    %eax,-0x84(%ebp)
  103abd:	8b b5 7c ff ff ff    	mov    -0x84(%ebp),%esi
  103ac3:	85 f6                	test   %esi,%esi
  103ac5:	0f 8f c6 fe ff ff    	jg     103991 <bench_dinic_run+0x6b9>
  103acb:	e9 5c fb ff ff       	jmp    10362c <bench_dinic_run+0x354>
  103ad0:	8b 85 74 ff ff ff    	mov    -0x8c(%ebp),%eax
  103ad6:	89 85 64 ff ff ff    	mov    %eax,-0x9c(%ebp)
  103adc:	8b 9d 64 ff ff ff    	mov    -0x9c(%ebp),%ebx
  103ae2:	85 db                	test   %ebx,%ebx
  103ae4:	0f 8f d2 fe ff ff    	jg     1039bc <bench_dinic_run+0x6e4>
  103aea:	e9 a9 fa ff ff       	jmp    103598 <bench_dinic_run+0x2c0>
  103aef:	90                   	nop
  103af0:	8b 85 60 ff ff ff    	mov    -0xa0(%ebp),%eax
  103af6:	89 85 50 ff ff ff    	mov    %eax,-0xb0(%ebp)
  103afc:	8b 8d 50 ff ff ff    	mov    -0xb0(%ebp),%ecx
  103b02:	85 c9                	test   %ecx,%ecx
  103b04:	0f 8f e0 fe ff ff    	jg     1039ea <bench_dinic_run+0x712>
  103b0a:	e9 e5 f9 ff ff       	jmp    1034f4 <bench_dinic_run+0x21c>
  103b0f:	90                   	nop
  103b10:	8b 85 54 ff ff ff    	mov    -0xac(%ebp),%eax
  103b16:	89 85 44 ff ff ff    	mov    %eax,-0xbc(%ebp)
  103b1c:	8b 95 44 ff ff ff    	mov    -0xbc(%ebp),%edx
  103b22:	85 d2                	test   %edx,%edx
  103b24:	0f 8f f1 fe ff ff    	jg     103a1b <bench_dinic_run+0x743>
  103b2a:	e9 1d ff ff ff       	jmp    103a4c <bench_dinic_run+0x774>
  103b2f:	90                   	nop
  103b30:	89 5d d8             	mov    %ebx,-0x28(%ebp)
  103b33:	8b 07                	mov    (%edi),%eax
  103b35:	89 45 dc             	mov    %eax,-0x24(%ebp)
  103b38:	8b 47 08             	mov    0x8(%edi),%eax
  103b3b:	89 c1                	mov    %eax,%ecx
  103b3d:	89 45 d4             	mov    %eax,-0x2c(%ebp)
  103b40:	8b 85 40 ff ff ff    	mov    -0xc0(%ebp),%eax
  103b46:	81 c1 44 8b 02 00    	add    $0x28b44,%ecx
  103b4c:	89 4d d0             	mov    %ecx,-0x30(%ebp)
  103b4f:	01 85 3c ff ff ff    	add    %eax,-0xc4(%ebp)
  103b55:	e9 cf f7 ff ff       	jmp    103329 <bench_dinic_run+0x51>
  103b5a:	b8 3f 3f 3f 00       	mov    $0x3f3f3f,%eax
  103b5f:	eb ee                	jmp    103b4f <bench_dinic_run+0x877>
  103b61:	31 c0                	xor    %eax,%eax
  103b63:	eb ea                	jmp    103b4f <bench_dinic_run+0x877>
  103b65:	8b 07                	mov    (%edi),%eax
  103b67:	89 45 dc             	mov    %eax,-0x24(%ebp)
  103b6a:	8b 47 08             	mov    0x8(%edi),%eax
  103b6d:	89 c6                	mov    %eax,%esi
  103b6f:	89 45 d4             	mov    %eax,-0x2c(%ebp)
  103b72:	8b 47 0c             	mov    0xc(%edi),%eax
  103b75:	89 45 d8             	mov    %eax,-0x28(%ebp)
  103b78:	8b 85 40 ff ff ff    	mov    -0xc0(%ebp),%eax
  103b7e:	81 c6 44 8b 02 00    	add    $0x28b44,%esi
  103b84:	89 75 d0             	mov    %esi,-0x30(%ebp)
  103b87:	eb c6                	jmp    103b4f <bench_dinic_run+0x877>
  103b89:	8b 85 3c ff ff ff    	mov    -0xc4(%ebp),%eax
  103b8f:	a3 7c 5a 10 00       	mov    %eax,0x105a7c
  103b94:	81 c4 cc 00 00 00    	add    $0xcc,%esp
  103b9a:	5b                   	pop    %ebx
  103b9b:	5e                   	pop    %esi
  103b9c:	5f                   	pop    %edi
  103b9d:	5d                   	pop    %ebp
  103b9e:	c3                   	ret    
  103b9f:	90                   	nop

00103ba0 <bench_dinic_validate>:
  103ba0:	55                   	push   %ebp
  103ba1:	89 e5                	mov    %esp,%ebp
  103ba3:	a1 b8 5a 10 00       	mov    0x105ab8,%eax
  103ba8:	8b 40 0c             	mov    0xc(%eax),%eax
  103bab:	39 05 7c 5a 10 00    	cmp    %eax,0x105a7c
  103bb1:	0f 94 c0             	sete   %al
  103bb4:	0f b6 c0             	movzbl %al,%eax
  103bb7:	5d                   	pop    %ebp
  103bb8:	c3                   	ret    
  103bb9:	66 90                	xchg   %ax,%ax
  103bbb:	90                   	nop

00103bbc <_ZN5Dinic3DFSEii>:
  103bbc:	55                   	push   %ebp
  103bbd:	89 e5                	mov    %esp,%ebp
  103bbf:	57                   	push   %edi
  103bc0:	56                   	push   %esi
  103bc1:	53                   	push   %ebx
  103bc2:	81 ec cc 00 00 00    	sub    $0xcc,%esp
  103bc8:	8b 7d 08             	mov    0x8(%ebp),%edi
  103bcb:	8b 45 0c             	mov    0xc(%ebp),%eax
  103bce:	39 47 0c             	cmp    %eax,0xc(%edi)
  103bd1:	0f 84 36 07 00 00    	je     10430d <_ZN5Dinic3DFSEii+0x751>
  103bd7:	8b 55 10             	mov    0x10(%ebp),%edx
  103bda:	85 d2                	test   %edx,%edx
  103bdc:	0f 84 1e 07 00 00    	je     104300 <_ZN5Dinic3DFSEii+0x744>
  103be2:	8d 04 87             	lea    (%edi,%eax,4),%eax
  103be5:	89 85 44 ff ff ff    	mov    %eax,-0xbc(%ebp)
  103beb:	8b 80 24 31 0a 00    	mov    0xa3124(%eax),%eax
  103bf1:	89 85 68 ff ff ff    	mov    %eax,-0x98(%ebp)
  103bf7:	40                   	inc    %eax
  103bf8:	0f 84 02 07 00 00    	je     104300 <_ZN5Dinic3DFSEii+0x744>
  103bfe:	c7 85 40 ff ff ff 00 	movl   $0x0,-0xc0(%ebp)
  103c05:	00 00 00 
  103c08:	eb 1c                	jmp    103c26 <_ZN5Dinic3DFSEii+0x6a>
  103c0a:	66 90                	xchg   %ax,%ax
  103c0c:	8b 85 68 ff ff ff    	mov    -0x98(%ebp),%eax
  103c12:	8b 84 87 18 24 08 00 	mov    0x82418(%edi,%eax,4),%eax
  103c19:	89 85 68 ff ff ff    	mov    %eax,-0x98(%ebp)
  103c1f:	40                   	inc    %eax
  103c20:	0f 84 eb 05 00 00    	je     104211 <_ZN5Dinic3DFSEii+0x655>
  103c26:	8b 85 68 ff ff ff    	mov    -0x98(%ebp),%eax
  103c2c:	40                   	inc    %eax
  103c2d:	c1 e0 04             	shl    $0x4,%eax
  103c30:	01 f8                	add    %edi,%eax
  103c32:	89 c3                	mov    %eax,%ebx
  103c34:	89 85 4c ff ff ff    	mov    %eax,-0xb4(%ebp)
  103c3a:	8b 85 44 ff ff ff    	mov    -0xbc(%ebp),%eax
  103c40:	8b 80 1c 2d 0a 00    	mov    0xa2d1c(%eax),%eax
  103c46:	89 45 e4             	mov    %eax,-0x1c(%ebp)
  103c49:	40                   	inc    %eax
  103c4a:	8b 53 04             	mov    0x4(%ebx),%edx
  103c4d:	8d 34 97             	lea    (%edi,%edx,4),%esi
  103c50:	89 b5 5c ff ff ff    	mov    %esi,-0xa4(%ebp)
  103c56:	3b 86 1c 2d 0a 00    	cmp    0xa2d1c(%esi),%eax
  103c5c:	75 ae                	jne    103c0c <_ZN5Dinic3DFSEii+0x50>
  103c5e:	8b 4b 08             	mov    0x8(%ebx),%ecx
  103c61:	2b 4b 0c             	sub    0xc(%ebx),%ecx
  103c64:	8b 5d 10             	mov    0x10(%ebp),%ebx
  103c67:	89 9d 54 ff ff ff    	mov    %ebx,-0xac(%ebp)
  103c6d:	39 cb                	cmp    %ecx,%ebx
  103c6f:	7e 06                	jle    103c77 <_ZN5Dinic3DFSEii+0xbb>
  103c71:	89 8d 54 ff ff ff    	mov    %ecx,-0xac(%ebp)
  103c77:	3b 57 0c             	cmp    0xc(%edi),%edx
  103c7a:	0f 84 60 06 00 00    	je     1042e0 <_ZN5Dinic3DFSEii+0x724>
  103c80:	8b b5 54 ff ff ff    	mov    -0xac(%ebp),%esi
  103c86:	85 f6                	test   %esi,%esi
  103c88:	74 82                	je     103c0c <_ZN5Dinic3DFSEii+0x50>
  103c8a:	8b 95 5c ff ff ff    	mov    -0xa4(%ebp),%edx
  103c90:	8b 92 24 31 0a 00    	mov    0xa3124(%edx),%edx
  103c96:	89 95 78 ff ff ff    	mov    %edx,-0x88(%ebp)
  103c9c:	42                   	inc    %edx
  103c9d:	0f 84 69 ff ff ff    	je     103c0c <_ZN5Dinic3DFSEii+0x50>
  103ca3:	c7 85 48 ff ff ff 00 	movl   $0x0,-0xb8(%ebp)
  103caa:	00 00 00 
  103cad:	eb 26                	jmp    103cd5 <_ZN5Dinic3DFSEii+0x119>
  103caf:	8b 85 78 ff ff ff    	mov    -0x88(%ebp),%eax
  103cb5:	8b 84 87 18 24 08 00 	mov    0x82418(%edi,%eax,4),%eax
  103cbc:	89 85 78 ff ff ff    	mov    %eax,-0x88(%ebp)
  103cc2:	40                   	inc    %eax
  103cc3:	0f 84 23 06 00 00    	je     1042ec <_ZN5Dinic3DFSEii+0x730>
  103cc9:	8b 85 5c ff ff ff    	mov    -0xa4(%ebp),%eax
  103ccf:	8b 80 1c 2d 0a 00    	mov    0xa2d1c(%eax),%eax
  103cd5:	8b 9d 78 ff ff ff    	mov    -0x88(%ebp),%ebx
  103cdb:	8d 53 01             	lea    0x1(%ebx),%edx
  103cde:	c1 e2 04             	shl    $0x4,%edx
  103ce1:	01 fa                	add    %edi,%edx
  103ce3:	89 95 58 ff ff ff    	mov    %edx,-0xa8(%ebp)
  103ce9:	40                   	inc    %eax
  103cea:	8b 52 04             	mov    0x4(%edx),%edx
  103ced:	8d 0c 97             	lea    (%edi,%edx,4),%ecx
  103cf0:	89 8d 70 ff ff ff    	mov    %ecx,-0x90(%ebp)
  103cf6:	3b 81 1c 2d 0a 00    	cmp    0xa2d1c(%ecx),%eax
  103cfc:	75 b1                	jne    103caf <_ZN5Dinic3DFSEii+0xf3>
  103cfe:	8b 9d 58 ff ff ff    	mov    -0xa8(%ebp),%ebx
  103d04:	8b 4b 08             	mov    0x8(%ebx),%ecx
  103d07:	2b 4b 0c             	sub    0xc(%ebx),%ecx
  103d0a:	8b b5 54 ff ff ff    	mov    -0xac(%ebp),%esi
  103d10:	89 b5 60 ff ff ff    	mov    %esi,-0xa0(%ebp)
  103d16:	39 ce                	cmp    %ecx,%esi
  103d18:	7e 06                	jle    103d20 <_ZN5Dinic3DFSEii+0x164>
  103d1a:	89 8d 60 ff ff ff    	mov    %ecx,-0xa0(%ebp)
  103d20:	3b 57 0c             	cmp    0xc(%edi),%edx
  103d23:	0f 84 97 05 00 00    	je     1042c0 <_ZN5Dinic3DFSEii+0x704>
  103d29:	8b 9d 60 ff ff ff    	mov    -0xa0(%ebp),%ebx
  103d2f:	85 db                	test   %ebx,%ebx
  103d31:	0f 84 78 ff ff ff    	je     103caf <_ZN5Dinic3DFSEii+0xf3>
  103d37:	8b 95 70 ff ff ff    	mov    -0x90(%ebp),%edx
  103d3d:	8b 8a 24 31 0a 00    	mov    0xa3124(%edx),%ecx
  103d43:	89 4d 8c             	mov    %ecx,-0x74(%ebp)
  103d46:	41                   	inc    %ecx
  103d47:	0f 84 62 ff ff ff    	je     103caf <_ZN5Dinic3DFSEii+0xf3>
  103d4d:	c7 85 50 ff ff ff 00 	movl   $0x0,-0xb0(%ebp)
  103d54:	00 00 00 
  103d57:	eb 23                	jmp    103d7c <_ZN5Dinic3DFSEii+0x1c0>
  103d59:	8d 76 00             	lea    0x0(%esi),%esi
  103d5c:	8b 45 8c             	mov    -0x74(%ebp),%eax
  103d5f:	8b 84 87 18 24 08 00 	mov    0x82418(%edi,%eax,4),%eax
  103d66:	89 45 8c             	mov    %eax,-0x74(%ebp)
  103d69:	40                   	inc    %eax
  103d6a:	0f 84 5c 05 00 00    	je     1042cc <_ZN5Dinic3DFSEii+0x710>
  103d70:	8b 85 70 ff ff ff    	mov    -0x90(%ebp),%eax
  103d76:	8b 80 1c 2d 0a 00    	mov    0xa2d1c(%eax),%eax
  103d7c:	8b 55 8c             	mov    -0x74(%ebp),%edx
  103d7f:	42                   	inc    %edx
  103d80:	c1 e2 04             	shl    $0x4,%edx
  103d83:	01 fa                	add    %edi,%edx
  103d85:	89 95 6c ff ff ff    	mov    %edx,-0x94(%ebp)
  103d8b:	40                   	inc    %eax
  103d8c:	8b 52 04             	mov    0x4(%edx),%edx
  103d8f:	8d 0c 97             	lea    (%edi,%edx,4),%ecx
  103d92:	89 4d 84             	mov    %ecx,-0x7c(%ebp)
  103d95:	3b 81 1c 2d 0a 00    	cmp    0xa2d1c(%ecx),%eax
  103d9b:	75 bf                	jne    103d5c <_ZN5Dinic3DFSEii+0x1a0>
  103d9d:	8b 9d 6c ff ff ff    	mov    -0x94(%ebp),%ebx
  103da3:	8b 4b 08             	mov    0x8(%ebx),%ecx
  103da6:	2b 4b 0c             	sub    0xc(%ebx),%ecx
  103da9:	8b b5 60 ff ff ff    	mov    -0xa0(%ebp),%esi
  103daf:	89 b5 74 ff ff ff    	mov    %esi,-0x8c(%ebp)
  103db5:	39 ce                	cmp    %ecx,%esi
  103db7:	7e 06                	jle    103dbf <_ZN5Dinic3DFSEii+0x203>
  103db9:	89 8d 74 ff ff ff    	mov    %ecx,-0x8c(%ebp)
  103dbf:	3b 57 0c             	cmp    0xc(%edi),%edx
  103dc2:	0f 84 d8 04 00 00    	je     1042a0 <_ZN5Dinic3DFSEii+0x6e4>
  103dc8:	8b 8d 74 ff ff ff    	mov    -0x8c(%ebp),%ecx
  103dce:	85 c9                	test   %ecx,%ecx
  103dd0:	74 8a                	je     103d5c <_ZN5Dinic3DFSEii+0x1a0>
  103dd2:	8b 55 84             	mov    -0x7c(%ebp),%edx
  103dd5:	8b 92 24 31 0a 00    	mov    0xa3124(%edx),%edx
  103ddb:	89 55 9c             	mov    %edx,-0x64(%ebp)
  103dde:	42                   	inc    %edx
  103ddf:	0f 84 77 ff ff ff    	je     103d5c <_ZN5Dinic3DFSEii+0x1a0>
  103de5:	c7 85 64 ff ff ff 00 	movl   $0x0,-0x9c(%ebp)
  103dec:	00 00 00 
  103def:	eb 20                	jmp    103e11 <_ZN5Dinic3DFSEii+0x255>
  103df1:	8d 76 00             	lea    0x0(%esi),%esi
  103df4:	8b 45 9c             	mov    -0x64(%ebp),%eax
  103df7:	8b 84 87 18 24 08 00 	mov    0x82418(%edi,%eax,4),%eax
  103dfe:	89 45 9c             	mov    %eax,-0x64(%ebp)
  103e01:	40                   	inc    %eax
  103e02:	0f 84 a4 04 00 00    	je     1042ac <_ZN5Dinic3DFSEii+0x6f0>
  103e08:	8b 45 84             	mov    -0x7c(%ebp),%eax
  103e0b:	8b 80 1c 2d 0a 00    	mov    0xa2d1c(%eax),%eax
  103e11:	8b 55 9c             	mov    -0x64(%ebp),%edx
  103e14:	42                   	inc    %edx
  103e15:	c1 e2 04             	shl    $0x4,%edx
  103e18:	8d 0c 17             	lea    (%edi,%edx,1),%ecx
  103e1b:	89 4d 80             	mov    %ecx,-0x80(%ebp)
  103e1e:	40                   	inc    %eax
  103e1f:	8b 51 04             	mov    0x4(%ecx),%edx
  103e22:	8d 1c 97             	lea    (%edi,%edx,4),%ebx
  103e25:	89 5d 98             	mov    %ebx,-0x68(%ebp)
  103e28:	3b 83 1c 2d 0a 00    	cmp    0xa2d1c(%ebx),%eax
  103e2e:	75 c4                	jne    103df4 <_ZN5Dinic3DFSEii+0x238>
  103e30:	89 ce                	mov    %ecx,%esi
  103e32:	8b 49 08             	mov    0x8(%ecx),%ecx
  103e35:	2b 4e 0c             	sub    0xc(%esi),%ecx
  103e38:	8b 9d 74 ff ff ff    	mov    -0x8c(%ebp),%ebx
  103e3e:	89 5d 88             	mov    %ebx,-0x78(%ebp)
  103e41:	39 cb                	cmp    %ecx,%ebx
  103e43:	7e 03                	jle    103e48 <_ZN5Dinic3DFSEii+0x28c>
  103e45:	89 4d 88             	mov    %ecx,-0x78(%ebp)
  103e48:	3b 57 0c             	cmp    0xc(%edi),%edx
  103e4b:	0f 84 33 04 00 00    	je     104284 <_ZN5Dinic3DFSEii+0x6c8>
  103e51:	8b 55 88             	mov    -0x78(%ebp),%edx
  103e54:	85 d2                	test   %edx,%edx
  103e56:	74 9c                	je     103df4 <_ZN5Dinic3DFSEii+0x238>
  103e58:	8b 55 98             	mov    -0x68(%ebp),%edx
  103e5b:	8b 92 24 31 0a 00    	mov    0xa3124(%edx),%edx
  103e61:	89 55 b0             	mov    %edx,-0x50(%ebp)
  103e64:	42                   	inc    %edx
  103e65:	74 8d                	je     103df4 <_ZN5Dinic3DFSEii+0x238>
  103e67:	c7 85 7c ff ff ff 00 	movl   $0x0,-0x84(%ebp)
  103e6e:	00 00 00 
  103e71:	eb 1e                	jmp    103e91 <_ZN5Dinic3DFSEii+0x2d5>
  103e73:	90                   	nop
  103e74:	8b 45 b0             	mov    -0x50(%ebp),%eax
  103e77:	8b 84 87 18 24 08 00 	mov    0x82418(%edi,%eax,4),%eax
  103e7e:	89 45 b0             	mov    %eax,-0x50(%ebp)
  103e81:	40                   	inc    %eax
  103e82:	0f 84 05 04 00 00    	je     10428d <_ZN5Dinic3DFSEii+0x6d1>
  103e88:	8b 45 98             	mov    -0x68(%ebp),%eax
  103e8b:	8b 80 1c 2d 0a 00    	mov    0xa2d1c(%eax),%eax
  103e91:	8b 55 b0             	mov    -0x50(%ebp),%edx
  103e94:	42                   	inc    %edx
  103e95:	c1 e2 04             	shl    $0x4,%edx
  103e98:	8d 0c 17             	lea    (%edi,%edx,1),%ecx
  103e9b:	89 4d 94             	mov    %ecx,-0x6c(%ebp)
  103e9e:	40                   	inc    %eax
  103e9f:	8b 51 04             	mov    0x4(%ecx),%edx
  103ea2:	8d 0c 97             	lea    (%edi,%edx,4),%ecx
  103ea5:	89 4d ac             	mov    %ecx,-0x54(%ebp)
  103ea8:	3b 81 1c 2d 0a 00    	cmp    0xa2d1c(%ecx),%eax
  103eae:	75 c4                	jne    103e74 <_ZN5Dinic3DFSEii+0x2b8>
  103eb0:	8b 75 94             	mov    -0x6c(%ebp),%esi
  103eb3:	8b 4e 08             	mov    0x8(%esi),%ecx
  103eb6:	2b 4e 0c             	sub    0xc(%esi),%ecx
  103eb9:	8b 5d 88             	mov    -0x78(%ebp),%ebx
  103ebc:	89 5d a0             	mov    %ebx,-0x60(%ebp)
  103ebf:	39 cb                	cmp    %ecx,%ebx
  103ec1:	7e 03                	jle    103ec6 <_ZN5Dinic3DFSEii+0x30a>
  103ec3:	89 4d a0             	mov    %ecx,-0x60(%ebp)
  103ec6:	3b 57 0c             	cmp    0xc(%edi),%edx
  103ec9:	0f 84 9d 03 00 00    	je     10426c <_ZN5Dinic3DFSEii+0x6b0>
  103ecf:	8b 75 a0             	mov    -0x60(%ebp),%esi
  103ed2:	85 f6                	test   %esi,%esi
  103ed4:	74 9e                	je     103e74 <_ZN5Dinic3DFSEii+0x2b8>
  103ed6:	8b 55 ac             	mov    -0x54(%ebp),%edx
  103ed9:	8b b2 24 31 0a 00    	mov    0xa3124(%edx),%esi
  103edf:	89 75 c4             	mov    %esi,-0x3c(%ebp)
  103ee2:	46                   	inc    %esi
  103ee3:	74 8f                	je     103e74 <_ZN5Dinic3DFSEii+0x2b8>
  103ee5:	c7 45 90 00 00 00 00 	movl   $0x0,-0x70(%ebp)
  103eec:	eb 1f                	jmp    103f0d <_ZN5Dinic3DFSEii+0x351>
  103eee:	66 90                	xchg   %ax,%ax
  103ef0:	8b 45 c4             	mov    -0x3c(%ebp),%eax
  103ef3:	8b 84 87 18 24 08 00 	mov    0x82418(%edi,%eax,4),%eax
  103efa:	89 45 c4             	mov    %eax,-0x3c(%ebp)
  103efd:	40                   	inc    %eax
  103efe:	0f 84 6e 03 00 00    	je     104272 <_ZN5Dinic3DFSEii+0x6b6>
  103f04:	8b 45 ac             	mov    -0x54(%ebp),%eax
  103f07:	8b 80 1c 2d 0a 00    	mov    0xa2d1c(%eax),%eax
  103f0d:	8b 4d c4             	mov    -0x3c(%ebp),%ecx
  103f10:	8d 51 01             	lea    0x1(%ecx),%edx
  103f13:	c1 e2 04             	shl    $0x4,%edx
  103f16:	8d 0c 17             	lea    (%edi,%edx,1),%ecx
  103f19:	89 4d a8             	mov    %ecx,-0x58(%ebp)
  103f1c:	40                   	inc    %eax
  103f1d:	8b 51 04             	mov    0x4(%ecx),%edx
  103f20:	8d 1c 97             	lea    (%edi,%edx,4),%ebx
  103f23:	89 5d c0             	mov    %ebx,-0x40(%ebp)
  103f26:	3b 83 1c 2d 0a 00    	cmp    0xa2d1c(%ebx),%eax
  103f2c:	75 c2                	jne    103ef0 <_ZN5Dinic3DFSEii+0x334>
  103f2e:	89 ce                	mov    %ecx,%esi
  103f30:	8b 49 08             	mov    0x8(%ecx),%ecx
  103f33:	2b 4e 0c             	sub    0xc(%esi),%ecx
  103f36:	8b 75 a0             	mov    -0x60(%ebp),%esi
  103f39:	89 75 b4             	mov    %esi,-0x4c(%ebp)
  103f3c:	39 ce                	cmp    %ecx,%esi
  103f3e:	7e 03                	jle    103f43 <_ZN5Dinic3DFSEii+0x387>
  103f40:	89 4d b4             	mov    %ecx,-0x4c(%ebp)
  103f43:	3b 57 0c             	cmp    0xc(%edi),%edx
  103f46:	0f 84 08 03 00 00    	je     104254 <_ZN5Dinic3DFSEii+0x698>
  103f4c:	8b 5d b4             	mov    -0x4c(%ebp),%ebx
  103f4f:	85 db                	test   %ebx,%ebx
  103f51:	74 9d                	je     103ef0 <_ZN5Dinic3DFSEii+0x334>
  103f53:	8b 75 c0             	mov    -0x40(%ebp),%esi
  103f56:	8b 96 24 31 0a 00    	mov    0xa3124(%esi),%edx
  103f5c:	89 55 d8             	mov    %edx,-0x28(%ebp)
  103f5f:	42                   	inc    %edx
  103f60:	74 8e                	je     103ef0 <_ZN5Dinic3DFSEii+0x334>
  103f62:	c7 45 a4 00 00 00 00 	movl   $0x0,-0x5c(%ebp)
  103f69:	eb 1e                	jmp    103f89 <_ZN5Dinic3DFSEii+0x3cd>
  103f6b:	90                   	nop
  103f6c:	8b 45 d8             	mov    -0x28(%ebp),%eax
  103f6f:	8b 84 87 18 24 08 00 	mov    0x82418(%edi,%eax,4),%eax
  103f76:	89 45 d8             	mov    %eax,-0x28(%ebp)
  103f79:	40                   	inc    %eax
  103f7a:	0f 84 da 02 00 00    	je     10425a <_ZN5Dinic3DFSEii+0x69e>
  103f80:	8b 45 c0             	mov    -0x40(%ebp),%eax
  103f83:	8b 80 1c 2d 0a 00    	mov    0xa2d1c(%eax),%eax
  103f89:	8b 5d d8             	mov    -0x28(%ebp),%ebx
  103f8c:	8d 53 01             	lea    0x1(%ebx),%edx
  103f8f:	c1 e2 04             	shl    $0x4,%edx
  103f92:	8d 1c 17             	lea    (%edi,%edx,1),%ebx
  103f95:	89 5d bc             	mov    %ebx,-0x44(%ebp)
  103f98:	40                   	inc    %eax
  103f99:	8b 53 04             	mov    0x4(%ebx),%edx
  103f9c:	8d 34 97             	lea    (%edi,%edx,4),%esi
  103f9f:	89 75 d4             	mov    %esi,-0x2c(%ebp)
  103fa2:	3b 86 1c 2d 0a 00    	cmp    0xa2d1c(%esi),%eax
  103fa8:	75 c2                	jne    103f6c <_ZN5Dinic3DFSEii+0x3b0>
  103faa:	8b 4b 08             	mov    0x8(%ebx),%ecx
  103fad:	2b 4b 0c             	sub    0xc(%ebx),%ecx
  103fb0:	8b 5d b4             	mov    -0x4c(%ebp),%ebx
  103fb3:	89 5d c8             	mov    %ebx,-0x38(%ebp)
  103fb6:	39 cb                	cmp    %ecx,%ebx
  103fb8:	7e 03                	jle    103fbd <_ZN5Dinic3DFSEii+0x401>
  103fba:	89 4d c8             	mov    %ecx,-0x38(%ebp)
  103fbd:	3b 57 0c             	cmp    0xc(%edi),%edx
  103fc0:	0f 84 76 02 00 00    	je     10423c <_ZN5Dinic3DFSEii+0x680>
  103fc6:	8b 4d c8             	mov    -0x38(%ebp),%ecx
  103fc9:	85 c9                	test   %ecx,%ecx
  103fcb:	74 9f                	je     103f6c <_ZN5Dinic3DFSEii+0x3b0>
  103fcd:	8b 55 d4             	mov    -0x2c(%ebp),%edx
  103fd0:	8b 9a 24 31 0a 00    	mov    0xa3124(%edx),%ebx
  103fd6:	89 5d e4             	mov    %ebx,-0x1c(%ebp)
  103fd9:	43                   	inc    %ebx
  103fda:	74 90                	je     103f6c <_ZN5Dinic3DFSEii+0x3b0>
  103fdc:	c7 45 b8 00 00 00 00 	movl   $0x0,-0x48(%ebp)
  103fe3:	eb 20                	jmp    104005 <_ZN5Dinic3DFSEii+0x449>
  103fe5:	8d 76 00             	lea    0x0(%esi),%esi
  103fe8:	8b 45 e4             	mov    -0x1c(%ebp),%eax
  103feb:	8b 84 87 18 24 08 00 	mov    0x82418(%edi,%eax,4),%eax
  103ff2:	89 45 e4             	mov    %eax,-0x1c(%ebp)
  103ff5:	40                   	inc    %eax
  103ff6:	0f 84 46 02 00 00    	je     104242 <_ZN5Dinic3DFSEii+0x686>
  103ffc:	8b 45 d4             	mov    -0x2c(%ebp),%eax
  103fff:	8b 80 1c 2d 0a 00    	mov    0xa2d1c(%eax),%eax
  104005:	8b 5d e4             	mov    -0x1c(%ebp),%ebx
  104008:	8d 53 01             	lea    0x1(%ebx),%edx
  10400b:	c1 e2 04             	shl    $0x4,%edx
  10400e:	8d 0c 17             	lea    (%edi,%edx,1),%ecx
  104011:	89 4d d0             	mov    %ecx,-0x30(%ebp)
  104014:	40                   	inc    %eax
  104015:	8b 51 04             	mov    0x4(%ecx),%edx
  104018:	8d 0c 97             	lea    (%edi,%edx,4),%ecx
  10401b:	3b 81 1c 2d 0a 00    	cmp    0xa2d1c(%ecx),%eax
  104021:	75 c5                	jne    103fe8 <_ZN5Dinic3DFSEii+0x42c>
  104023:	8b 75 d0             	mov    -0x30(%ebp),%esi
  104026:	8b 5e 08             	mov    0x8(%esi),%ebx
  104029:	2b 5e 0c             	sub    0xc(%esi),%ebx
  10402c:	8b 75 c8             	mov    -0x38(%ebp),%esi
  10402f:	89 75 e0             	mov    %esi,-0x20(%ebp)
  104032:	39 de                	cmp    %ebx,%esi
  104034:	7e 03                	jle    104039 <_ZN5Dinic3DFSEii+0x47d>
  104036:	89 5d e0             	mov    %ebx,-0x20(%ebp)
  104039:	3b 57 0c             	cmp    0xc(%edi),%edx
  10403c:	0f 84 e2 01 00 00    	je     104224 <_ZN5Dinic3DFSEii+0x668>
  104042:	8b 55 e0             	mov    -0x20(%ebp),%edx
  104045:	85 d2                	test   %edx,%edx
  104047:	74 9f                	je     103fe8 <_ZN5Dinic3DFSEii+0x42c>
  104049:	8b 99 24 31 0a 00    	mov    0xa3124(%ecx),%ebx
  10404f:	83 fb ff             	cmp    $0xffffffff,%ebx
  104052:	74 94                	je     103fe8 <_ZN5Dinic3DFSEii+0x42c>
  104054:	c7 45 cc 00 00 00 00 	movl   $0x0,-0x34(%ebp)
  10405b:	89 4d dc             	mov    %ecx,-0x24(%ebp)
  10405e:	eb 19                	jmp    104079 <_ZN5Dinic3DFSEii+0x4bd>
  104060:	8b 9c 9f 18 24 08 00 	mov    0x82418(%edi,%ebx,4),%ebx
  104067:	83 fb ff             	cmp    $0xffffffff,%ebx
  10406a:	0f 84 ba 01 00 00    	je     10422a <_ZN5Dinic3DFSEii+0x66e>
  104070:	8b 45 dc             	mov    -0x24(%ebp),%eax
  104073:	8b 80 1c 2d 0a 00    	mov    0xa2d1c(%eax),%eax
  104079:	8d 73 01             	lea    0x1(%ebx),%esi
  10407c:	c1 e6 04             	shl    $0x4,%esi
  10407f:	01 fe                	add    %edi,%esi
  104081:	8b 56 04             	mov    0x4(%esi),%edx
  104084:	40                   	inc    %eax
  104085:	3b 84 97 1c 2d 0a 00 	cmp    0xa2d1c(%edi,%edx,4),%eax
  10408c:	75 d2                	jne    104060 <_ZN5Dinic3DFSEii+0x4a4>
  10408e:	8b 46 08             	mov    0x8(%esi),%eax
  104091:	2b 46 0c             	sub    0xc(%esi),%eax
  104094:	8b 4d e0             	mov    -0x20(%ebp),%ecx
  104097:	39 c1                	cmp    %eax,%ecx
  104099:	7e 02                	jle    10409d <_ZN5Dinic3DFSEii+0x4e1>
  10409b:	89 c1                	mov    %eax,%ecx
  10409d:	89 4c 24 08          	mov    %ecx,0x8(%esp)
  1040a1:	89 54 24 04          	mov    %edx,0x4(%esp)
  1040a5:	89 3c 24             	mov    %edi,(%esp)
  1040a8:	e8 0f fb ff ff       	call   103bbc <_ZN5Dinic3DFSEii>
  1040ad:	85 c0                	test   %eax,%eax
  1040af:	7e af                	jle    104060 <_ZN5Dinic3DFSEii+0x4a4>
  1040b1:	01 46 0c             	add    %eax,0xc(%esi)
  1040b4:	89 da                	mov    %ebx,%edx
  1040b6:	83 f2 01             	xor    $0x1,%edx
  1040b9:	c1 e2 04             	shl    $0x4,%edx
  1040bc:	29 44 17 1c          	sub    %eax,0x1c(%edi,%edx,1)
  1040c0:	01 45 cc             	add    %eax,-0x34(%ebp)
  1040c3:	29 45 e0             	sub    %eax,-0x20(%ebp)
  1040c6:	75 98                	jne    104060 <_ZN5Dinic3DFSEii+0x4a4>
  1040c8:	8b 55 d0             	mov    -0x30(%ebp),%edx
  1040cb:	8b 4d cc             	mov    -0x34(%ebp),%ecx
  1040ce:	01 4a 0c             	add    %ecx,0xc(%edx)
  1040d1:	8b 45 e4             	mov    -0x1c(%ebp),%eax
  1040d4:	83 f0 01             	xor    $0x1,%eax
  1040d7:	c1 e0 04             	shl    $0x4,%eax
  1040da:	29 4c 07 1c          	sub    %ecx,0x1c(%edi,%eax,1)
  1040de:	01 4d b8             	add    %ecx,-0x48(%ebp)
  1040e1:	29 4d c8             	sub    %ecx,-0x38(%ebp)
  1040e4:	0f 85 fe fe ff ff    	jne    103fe8 <_ZN5Dinic3DFSEii+0x42c>
  1040ea:	66 90                	xchg   %ax,%ax
  1040ec:	8b 55 bc             	mov    -0x44(%ebp),%edx
  1040ef:	8b 5d b8             	mov    -0x48(%ebp),%ebx
  1040f2:	01 5a 0c             	add    %ebx,0xc(%edx)
  1040f5:	8b 45 d8             	mov    -0x28(%ebp),%eax
  1040f8:	83 f0 01             	xor    $0x1,%eax
  1040fb:	c1 e0 04             	shl    $0x4,%eax
  1040fe:	29 5c 07 1c          	sub    %ebx,0x1c(%edi,%eax,1)
  104102:	01 5d a4             	add    %ebx,-0x5c(%ebp)
  104105:	29 5d b4             	sub    %ebx,-0x4c(%ebp)
  104108:	0f 85 5e fe ff ff    	jne    103f6c <_ZN5Dinic3DFSEii+0x3b0>
  10410e:	66 90                	xchg   %ax,%ax
  104110:	8b 4d a8             	mov    -0x58(%ebp),%ecx
  104113:	8b 55 a4             	mov    -0x5c(%ebp),%edx
  104116:	01 51 0c             	add    %edx,0xc(%ecx)
  104119:	8b 45 c4             	mov    -0x3c(%ebp),%eax
  10411c:	83 f0 01             	xor    $0x1,%eax
  10411f:	c1 e0 04             	shl    $0x4,%eax
  104122:	29 54 07 1c          	sub    %edx,0x1c(%edi,%eax,1)
  104126:	01 55 90             	add    %edx,-0x70(%ebp)
  104129:	29 55 a0             	sub    %edx,-0x60(%ebp)
  10412c:	0f 85 be fd ff ff    	jne    103ef0 <_ZN5Dinic3DFSEii+0x334>
  104132:	66 90                	xchg   %ax,%ax
  104134:	8b 55 94             	mov    -0x6c(%ebp),%edx
  104137:	8b 75 90             	mov    -0x70(%ebp),%esi
  10413a:	01 72 0c             	add    %esi,0xc(%edx)
  10413d:	8b 45 b0             	mov    -0x50(%ebp),%eax
  104140:	83 f0 01             	xor    $0x1,%eax
  104143:	c1 e0 04             	shl    $0x4,%eax
  104146:	29 74 07 1c          	sub    %esi,0x1c(%edi,%eax,1)
  10414a:	01 b5 7c ff ff ff    	add    %esi,-0x84(%ebp)
  104150:	29 75 88             	sub    %esi,-0x78(%ebp)
  104153:	0f 85 1b fd ff ff    	jne    103e74 <_ZN5Dinic3DFSEii+0x2b8>
  104159:	8b 4d 80             	mov    -0x80(%ebp),%ecx
  10415c:	8b 9d 7c ff ff ff    	mov    -0x84(%ebp),%ebx
  104162:	01 59 0c             	add    %ebx,0xc(%ecx)
  104165:	8b 45 9c             	mov    -0x64(%ebp),%eax
  104168:	83 f0 01             	xor    $0x1,%eax
  10416b:	c1 e0 04             	shl    $0x4,%eax
  10416e:	29 5c 07 1c          	sub    %ebx,0x1c(%edi,%eax,1)
  104172:	01 9d 64 ff ff ff    	add    %ebx,-0x9c(%ebp)
  104178:	29 9d 74 ff ff ff    	sub    %ebx,-0x8c(%ebp)
  10417e:	0f 85 70 fc ff ff    	jne    103df4 <_ZN5Dinic3DFSEii+0x238>
  104184:	8b 95 6c ff ff ff    	mov    -0x94(%ebp),%edx
  10418a:	8b 8d 64 ff ff ff    	mov    -0x9c(%ebp),%ecx
  104190:	01 4a 0c             	add    %ecx,0xc(%edx)
  104193:	8b 45 8c             	mov    -0x74(%ebp),%eax
  104196:	83 f0 01             	xor    $0x1,%eax
  104199:	c1 e0 04             	shl    $0x4,%eax
  10419c:	29 4c 07 1c          	sub    %ecx,0x1c(%edi,%eax,1)
  1041a0:	01 8d 50 ff ff ff    	add    %ecx,-0xb0(%ebp)
  1041a6:	29 8d 60 ff ff ff    	sub    %ecx,-0xa0(%ebp)
  1041ac:	0f 85 aa fb ff ff    	jne    103d5c <_ZN5Dinic3DFSEii+0x1a0>
  1041b2:	8b b5 58 ff ff ff    	mov    -0xa8(%ebp),%esi
  1041b8:	8b 8d 50 ff ff ff    	mov    -0xb0(%ebp),%ecx
  1041be:	01 4e 0c             	add    %ecx,0xc(%esi)
  1041c1:	8b 85 78 ff ff ff    	mov    -0x88(%ebp),%eax
  1041c7:	83 f0 01             	xor    $0x1,%eax
  1041ca:	c1 e0 04             	shl    $0x4,%eax
  1041cd:	29 4c 07 1c          	sub    %ecx,0x1c(%edi,%eax,1)
  1041d1:	01 8d 48 ff ff ff    	add    %ecx,-0xb8(%ebp)
  1041d7:	29 8d 54 ff ff ff    	sub    %ecx,-0xac(%ebp)
  1041dd:	0f 85 cc fa ff ff    	jne    103caf <_ZN5Dinic3DFSEii+0xf3>
  1041e3:	8b 95 4c ff ff ff    	mov    -0xb4(%ebp),%edx
  1041e9:	8b 8d 48 ff ff ff    	mov    -0xb8(%ebp),%ecx
  1041ef:	01 4a 0c             	add    %ecx,0xc(%edx)
  1041f2:	8b 85 68 ff ff ff    	mov    -0x98(%ebp),%eax
  1041f8:	83 f0 01             	xor    $0x1,%eax
  1041fb:	c1 e0 04             	shl    $0x4,%eax
  1041fe:	29 4c 07 1c          	sub    %ecx,0x1c(%edi,%eax,1)
  104202:	01 8d 40 ff ff ff    	add    %ecx,-0xc0(%ebp)
  104208:	29 4d 10             	sub    %ecx,0x10(%ebp)
  10420b:	0f 85 fb f9 ff ff    	jne    103c0c <_ZN5Dinic3DFSEii+0x50>
  104211:	8b 85 40 ff ff ff    	mov    -0xc0(%ebp),%eax
  104217:	81 c4 cc 00 00 00    	add    $0xcc,%esp
  10421d:	5b                   	pop    %ebx
  10421e:	5e                   	pop    %esi
  10421f:	5f                   	pop    %edi
  104220:	5d                   	pop    %ebp
  104221:	c3                   	ret    
  104222:	66 90                	xchg   %ax,%ax
  104224:	8b 45 e0             	mov    -0x20(%ebp),%eax
  104227:	89 45 cc             	mov    %eax,-0x34(%ebp)
  10422a:	8b 45 cc             	mov    -0x34(%ebp),%eax
  10422d:	85 c0                	test   %eax,%eax
  10422f:	0f 8f 93 fe ff ff    	jg     1040c8 <_ZN5Dinic3DFSEii+0x50c>
  104235:	e9 ae fd ff ff       	jmp    103fe8 <_ZN5Dinic3DFSEii+0x42c>
  10423a:	66 90                	xchg   %ax,%ax
  10423c:	8b 45 c8             	mov    -0x38(%ebp),%eax
  10423f:	89 45 b8             	mov    %eax,-0x48(%ebp)
  104242:	8b 45 b8             	mov    -0x48(%ebp),%eax
  104245:	85 c0                	test   %eax,%eax
  104247:	0f 8f 9f fe ff ff    	jg     1040ec <_ZN5Dinic3DFSEii+0x530>
  10424d:	e9 1a fd ff ff       	jmp    103f6c <_ZN5Dinic3DFSEii+0x3b0>
  104252:	66 90                	xchg   %ax,%ax
  104254:	8b 45 b4             	mov    -0x4c(%ebp),%eax
  104257:	89 45 a4             	mov    %eax,-0x5c(%ebp)
  10425a:	8b 45 a4             	mov    -0x5c(%ebp),%eax
  10425d:	85 c0                	test   %eax,%eax
  10425f:	0f 8f ab fe ff ff    	jg     104110 <_ZN5Dinic3DFSEii+0x554>
  104265:	e9 86 fc ff ff       	jmp    103ef0 <_ZN5Dinic3DFSEii+0x334>
  10426a:	66 90                	xchg   %ax,%ax
  10426c:	8b 45 a0             	mov    -0x60(%ebp),%eax
  10426f:	89 45 90             	mov    %eax,-0x70(%ebp)
  104272:	8b 75 90             	mov    -0x70(%ebp),%esi
  104275:	85 f6                	test   %esi,%esi
  104277:	0f 8f b7 fe ff ff    	jg     104134 <_ZN5Dinic3DFSEii+0x578>
  10427d:	e9 f2 fb ff ff       	jmp    103e74 <_ZN5Dinic3DFSEii+0x2b8>
  104282:	66 90                	xchg   %ax,%ax
  104284:	8b 45 88             	mov    -0x78(%ebp),%eax
  104287:	89 85 7c ff ff ff    	mov    %eax,-0x84(%ebp)
  10428d:	8b 9d 7c ff ff ff    	mov    -0x84(%ebp),%ebx
  104293:	85 db                	test   %ebx,%ebx
  104295:	0f 8f be fe ff ff    	jg     104159 <_ZN5Dinic3DFSEii+0x59d>
  10429b:	e9 54 fb ff ff       	jmp    103df4 <_ZN5Dinic3DFSEii+0x238>
  1042a0:	8b 85 74 ff ff ff    	mov    -0x8c(%ebp),%eax
  1042a6:	89 85 64 ff ff ff    	mov    %eax,-0x9c(%ebp)
  1042ac:	8b 8d 64 ff ff ff    	mov    -0x9c(%ebp),%ecx
  1042b2:	85 c9                	test   %ecx,%ecx
  1042b4:	0f 8f ca fe ff ff    	jg     104184 <_ZN5Dinic3DFSEii+0x5c8>
  1042ba:	e9 9d fa ff ff       	jmp    103d5c <_ZN5Dinic3DFSEii+0x1a0>
  1042bf:	90                   	nop
  1042c0:	8b 85 60 ff ff ff    	mov    -0xa0(%ebp),%eax
  1042c6:	89 85 50 ff ff ff    	mov    %eax,-0xb0(%ebp)
  1042cc:	8b 95 50 ff ff ff    	mov    -0xb0(%ebp),%edx
  1042d2:	85 d2                	test   %edx,%edx
  1042d4:	0f 8f d8 fe ff ff    	jg     1041b2 <_ZN5Dinic3DFSEii+0x5f6>
  1042da:	e9 d0 f9 ff ff       	jmp    103caf <_ZN5Dinic3DFSEii+0xf3>
  1042df:	90                   	nop
  1042e0:	8b 85 54 ff ff ff    	mov    -0xac(%ebp),%eax
  1042e6:	89 85 48 ff ff ff    	mov    %eax,-0xb8(%ebp)
  1042ec:	8b 85 48 ff ff ff    	mov    -0xb8(%ebp),%eax
  1042f2:	85 c0                	test   %eax,%eax
  1042f4:	0f 8f e9 fe ff ff    	jg     1041e3 <_ZN5Dinic3DFSEii+0x627>
  1042fa:	e9 0d f9 ff ff       	jmp    103c0c <_ZN5Dinic3DFSEii+0x50>
  1042ff:	90                   	nop
  104300:	31 c0                	xor    %eax,%eax
  104302:	81 c4 cc 00 00 00    	add    $0xcc,%esp
  104308:	5b                   	pop    %ebx
  104309:	5e                   	pop    %esi
  10430a:	5f                   	pop    %edi
  10430b:	5d                   	pop    %ebp
  10430c:	c3                   	ret    
  10430d:	8b 45 10             	mov    0x10(%ebp),%eax
  104310:	81 c4 cc 00 00 00    	add    $0xcc,%esp
  104316:	5b                   	pop    %ebx
  104317:	5e                   	pop    %esi
  104318:	5f                   	pop    %edi
  104319:	5d                   	pop    %ebp
  10431a:	c3                   	ret    
  10431b:	90                   	nop

0010431c <bench_fib_prepare>:
  10431c:	55                   	push   %ebp
  10431d:	89 e5                	mov    %esp,%ebp
  10431f:	53                   	push   %ebx
  104320:	83 ec 14             	sub    $0x14,%esp
  104323:	a1 b8 5a 10 00       	mov    0x105ab8,%eax
  104328:	8b 18                	mov    (%eax),%ebx
  10432a:	89 1d 98 5a 10 00    	mov    %ebx,0x105a98
  104330:	0f af db             	imul   %ebx,%ebx
  104333:	c1 e3 02             	shl    $0x2,%ebx
  104336:	89 1c 24             	mov    %ebx,(%esp)
  104339:	e8 96 d0 ff ff       	call   1013d4 <bench_alloc>
  10433e:	a3 94 5a 10 00       	mov    %eax,0x105a94
  104343:	89 1c 24             	mov    %ebx,(%esp)
  104346:	e8 89 d0 ff ff       	call   1013d4 <bench_alloc>
  10434b:	a3 8c 5a 10 00       	mov    %eax,0x105a8c
  104350:	89 1c 24             	mov    %ebx,(%esp)
  104353:	e8 7c d0 ff ff       	call   1013d4 <bench_alloc>
  104358:	a3 90 5a 10 00       	mov    %eax,0x105a90
  10435d:	89 1c 24             	mov    %ebx,(%esp)
  104360:	e8 6f d0 ff ff       	call   1013d4 <bench_alloc>
  104365:	a3 88 5a 10 00       	mov    %eax,0x105a88
  10436a:	83 c4 14             	add    $0x14,%esp
  10436d:	5b                   	pop    %ebx
  10436e:	5d                   	pop    %ebp
  10436f:	c3                   	ret    

00104370 <bench_fib_run>:
  104370:	55                   	push   %ebp
  104371:	89 e5                	mov    %esp,%ebp
  104373:	57                   	push   %edi
  104374:	56                   	push   %esi
  104375:	53                   	push   %ebx
  104376:	83 ec 2c             	sub    $0x2c,%esp
  104379:	a1 98 5a 10 00       	mov    0x105a98,%eax
  10437e:	89 45 f0             	mov    %eax,-0x10(%ebp)
  104381:	85 c0                	test   %eax,%eax
  104383:	0f 8e 0e 02 00 00    	jle    104597 <bench_fib_run+0x227>
  104389:	8b 3d 8c 5a 10 00    	mov    0x105a8c,%edi
  10438f:	89 7d dc             	mov    %edi,-0x24(%ebp)
  104392:	8b 3d 94 5a 10 00    	mov    0x105a94,%edi
  104398:	89 7d d8             	mov    %edi,-0x28(%ebp)
  10439b:	8b 3d 90 5a 10 00    	mov    0x105a90,%edi
  1043a1:	89 7d d0             	mov    %edi,-0x30(%ebp)
  1043a4:	8d 3c 85 00 00 00 00 	lea    0x0(,%eax,4),%edi
  1043ab:	89 7d e0             	mov    %edi,-0x20(%ebp)
  1043ae:	c7 45 e4 00 00 00 00 	movl   $0x0,-0x1c(%ebp)
  1043b5:	c7 45 ec 01 00 00 00 	movl   $0x1,-0x14(%ebp)
  1043bc:	31 ff                	xor    %edi,%edi
  1043be:	48                   	dec    %eax
  1043bf:	89 45 e8             	mov    %eax,-0x18(%ebp)
  1043c2:	8b 45 ec             	mov    -0x14(%ebp),%eax
  1043c5:	89 45 d4             	mov    %eax,-0x2c(%ebp)
  1043c8:	31 c0                	xor    %eax,%eax
  1043ca:	8b 75 d8             	mov    -0x28(%ebp),%esi
  1043cd:	8b 4d e4             	mov    -0x1c(%ebp),%ecx
  1043d0:	01 ce                	add    %ecx,%esi
  1043d2:	8b 55 dc             	mov    -0x24(%ebp),%edx
  1043d5:	8d 1c 0a             	lea    (%edx,%ecx,1),%ebx
  1043d8:	8b 55 d0             	mov    -0x30(%ebp),%edx
  1043db:	01 d1                	add    %edx,%ecx
  1043dd:	eb 1e                	jmp    1043fd <bench_fib_run+0x8d>
  1043df:	31 d2                	xor    %edx,%edx
  1043e1:	3b 45 ec             	cmp    -0x14(%ebp),%eax
  1043e4:	0f 94 c2             	sete   %dl
  1043e7:	89 14 86             	mov    %edx,(%esi,%eax,4)
  1043ea:	89 14 83             	mov    %edx,(%ebx,%eax,4)
  1043ed:	31 d2                	xor    %edx,%edx
  1043ef:	39 c7                	cmp    %eax,%edi
  1043f1:	0f 94 c2             	sete   %dl
  1043f4:	89 14 81             	mov    %edx,(%ecx,%eax,4)
  1043f7:	40                   	inc    %eax
  1043f8:	3b 45 f0             	cmp    -0x10(%ebp),%eax
  1043fb:	74 0c                	je     104409 <bench_fib_run+0x99>
  1043fd:	3b 7d e8             	cmp    -0x18(%ebp),%edi
  104400:	75 dd                	jne    1043df <bench_fib_run+0x6f>
  104402:	ba 01 00 00 00       	mov    $0x1,%edx
  104407:	eb de                	jmp    1043e7 <bench_fib_run+0x77>
  104409:	47                   	inc    %edi
  10440a:	ff 45 ec             	incl   -0x14(%ebp)
  10440d:	8b 45 e0             	mov    -0x20(%ebp),%eax
  104410:	01 45 e4             	add    %eax,-0x1c(%ebp)
  104413:	8b 45 d4             	mov    -0x2c(%ebp),%eax
  104416:	39 45 f0             	cmp    %eax,-0x10(%ebp)
  104419:	7f a7                	jg     1043c2 <bench_fib_run+0x52>
  10441b:	a1 88 5a 10 00       	mov    0x105a88,%eax
  104420:	89 45 d4             	mov    %eax,-0x2c(%ebp)
  104423:	8b 45 f0             	mov    -0x10(%ebp),%eax
  104426:	c1 e0 02             	shl    $0x2,%eax
  104429:	89 45 ec             	mov    %eax,-0x14(%ebp)
  10442c:	c7 45 c8 1f 00 00 00 	movl   $0x1f,-0x38(%ebp)
  104433:	c7 45 cc d3 ff ff 7f 	movl   $0x7fffffd3,-0x34(%ebp)
  10443a:	f6 45 cc 01          	testb  $0x1,-0x34(%ebp)
  10443e:	0f 85 b2 00 00 00    	jne    1044f6 <bench_fib_run+0x186>
  104444:	8b 45 f0             	mov    -0x10(%ebp),%eax
  104447:	85 c0                	test   %eax,%eax
  104449:	0f 8e 93 00 00 00    	jle    1044e2 <bench_fib_run+0x172>
  10444f:	8b 7d d4             	mov    -0x2c(%ebp),%edi
  104452:	8b 45 dc             	mov    -0x24(%ebp),%eax
  104455:	89 45 e4             	mov    %eax,-0x1c(%ebp)
  104458:	c7 45 d8 00 00 00 00 	movl   $0x0,-0x28(%ebp)
  10445f:	8b 45 dc             	mov    -0x24(%ebp),%eax
  104462:	89 45 e0             	mov    %eax,-0x20(%ebp)
  104465:	31 f6                	xor    %esi,%esi
  104467:	90                   	nop
  104468:	c7 04 b7 00 00 00 00 	movl   $0x0,(%edi,%esi,4)
  10446f:	8b 4d e0             	mov    -0x20(%ebp),%ecx
  104472:	31 db                	xor    %ebx,%ebx
  104474:	31 c0                	xor    %eax,%eax
  104476:	89 75 e8             	mov    %esi,-0x18(%ebp)
  104479:	8d 76 00             	lea    0x0(%esi),%esi
  10447c:	8b 11                	mov    (%ecx),%edx
  10447e:	8b 75 e4             	mov    -0x1c(%ebp),%esi
  104481:	0f af 14 86          	imul   (%esi,%eax,4),%edx
  104485:	01 d3                	add    %edx,%ebx
  104487:	8b 75 e8             	mov    -0x18(%ebp),%esi
  10448a:	89 1c b7             	mov    %ebx,(%edi,%esi,4)
  10448d:	40                   	inc    %eax
  10448e:	03 4d ec             	add    -0x14(%ebp),%ecx
  104491:	3b 45 f0             	cmp    -0x10(%ebp),%eax
  104494:	7c e6                	jl     10447c <bench_fib_run+0x10c>
  104496:	8b 75 e8             	mov    -0x18(%ebp),%esi
  104499:	46                   	inc    %esi
  10449a:	83 45 e0 04          	addl   $0x4,-0x20(%ebp)
  10449e:	3b 75 f0             	cmp    -0x10(%ebp),%esi
  1044a1:	7c c5                	jl     104468 <bench_fib_run+0xf8>
  1044a3:	ff 45 d8             	incl   -0x28(%ebp)
  1044a6:	8b 45 ec             	mov    -0x14(%ebp),%eax
  1044a9:	01 45 e4             	add    %eax,-0x1c(%ebp)
  1044ac:	01 c7                	add    %eax,%edi
  1044ae:	8b 45 f0             	mov    -0x10(%ebp),%eax
  1044b1:	39 45 d8             	cmp    %eax,-0x28(%ebp)
  1044b4:	7c a9                	jl     10445f <bench_fib_run+0xef>
  1044b6:	31 db                	xor    %ebx,%ebx
  1044b8:	31 f6                	xor    %esi,%esi
  1044ba:	89 c2                	mov    %eax,%edx
  1044bc:	31 c0                	xor    %eax,%eax
  1044be:	8b 7d d4             	mov    -0x2c(%ebp),%edi
  1044c1:	01 df                	add    %ebx,%edi
  1044c3:	8b 4d dc             	mov    -0x24(%ebp),%ecx
  1044c6:	01 d9                	add    %ebx,%ecx
  1044c8:	89 5d e8             	mov    %ebx,-0x18(%ebp)
  1044cb:	90                   	nop
  1044cc:	8b 1c 87             	mov    (%edi,%eax,4),%ebx
  1044cf:	89 1c 81             	mov    %ebx,(%ecx,%eax,4)
  1044d2:	40                   	inc    %eax
  1044d3:	39 d0                	cmp    %edx,%eax
  1044d5:	7c f5                	jl     1044cc <bench_fib_run+0x15c>
  1044d7:	8b 5d e8             	mov    -0x18(%ebp),%ebx
  1044da:	46                   	inc    %esi
  1044db:	03 5d ec             	add    -0x14(%ebp),%ebx
  1044de:	39 d6                	cmp    %edx,%esi
  1044e0:	7c da                	jl     1044bc <bench_fib_run+0x14c>
  1044e2:	d1 7d cc             	sarl   -0x34(%ebp)
  1044e5:	ff 4d c8             	decl   -0x38(%ebp)
  1044e8:	0f 85 4c ff ff ff    	jne    10443a <bench_fib_run+0xca>
  1044ee:	83 c4 2c             	add    $0x2c,%esp
  1044f1:	5b                   	pop    %ebx
  1044f2:	5e                   	pop    %esi
  1044f3:	5f                   	pop    %edi
  1044f4:	5d                   	pop    %ebp
  1044f5:	c3                   	ret    
  1044f6:	8b 55 f0             	mov    -0x10(%ebp),%edx
  1044f9:	85 d2                	test   %edx,%edx
  1044fb:	7e e5                	jle    1044e2 <bench_fib_run+0x172>
  1044fd:	8b 7d d4             	mov    -0x2c(%ebp),%edi
  104500:	8b 45 d0             	mov    -0x30(%ebp),%eax
  104503:	89 45 e4             	mov    %eax,-0x1c(%ebp)
  104506:	c7 45 d8 00 00 00 00 	movl   $0x0,-0x28(%ebp)
  10450d:	8b 45 dc             	mov    -0x24(%ebp),%eax
  104510:	89 45 e0             	mov    %eax,-0x20(%ebp)
  104513:	31 f6                	xor    %esi,%esi
  104515:	8d 76 00             	lea    0x0(%esi),%esi
  104518:	c7 04 b7 00 00 00 00 	movl   $0x0,(%edi,%esi,4)
  10451f:	8b 4d e0             	mov    -0x20(%ebp),%ecx
  104522:	31 db                	xor    %ebx,%ebx
  104524:	31 c0                	xor    %eax,%eax
  104526:	89 75 e8             	mov    %esi,-0x18(%ebp)
  104529:	8d 76 00             	lea    0x0(%esi),%esi
  10452c:	8b 11                	mov    (%ecx),%edx
  10452e:	8b 75 e4             	mov    -0x1c(%ebp),%esi
  104531:	0f af 14 86          	imul   (%esi,%eax,4),%edx
  104535:	01 d3                	add    %edx,%ebx
  104537:	8b 55 e8             	mov    -0x18(%ebp),%edx
  10453a:	89 1c 97             	mov    %ebx,(%edi,%edx,4)
  10453d:	40                   	inc    %eax
  10453e:	03 4d ec             	add    -0x14(%ebp),%ecx
  104541:	3b 45 f0             	cmp    -0x10(%ebp),%eax
  104544:	75 e6                	jne    10452c <bench_fib_run+0x1bc>
  104546:	8b 75 e8             	mov    -0x18(%ebp),%esi
  104549:	46                   	inc    %esi
  10454a:	83 45 e0 04          	addl   $0x4,-0x20(%ebp)
  10454e:	3b 75 f0             	cmp    -0x10(%ebp),%esi
  104551:	75 c5                	jne    104518 <bench_fib_run+0x1a8>
  104553:	ff 45 d8             	incl   -0x28(%ebp)
  104556:	8b 45 ec             	mov    -0x14(%ebp),%eax
  104559:	01 45 e4             	add    %eax,-0x1c(%ebp)
  10455c:	01 c7                	add    %eax,%edi
  10455e:	8b 45 f0             	mov    -0x10(%ebp),%eax
  104561:	39 45 d8             	cmp    %eax,-0x28(%ebp)
  104564:	75 a7                	jne    10450d <bench_fib_run+0x19d>
  104566:	31 db                	xor    %ebx,%ebx
  104568:	31 f6                	xor    %esi,%esi
  10456a:	89 c2                	mov    %eax,%edx
  10456c:	31 c0                	xor    %eax,%eax
  10456e:	8b 7d d4             	mov    -0x2c(%ebp),%edi
  104571:	01 df                	add    %ebx,%edi
  104573:	8b 4d d0             	mov    -0x30(%ebp),%ecx
  104576:	01 d9                	add    %ebx,%ecx
  104578:	89 5d e8             	mov    %ebx,-0x18(%ebp)
  10457b:	90                   	nop
  10457c:	8b 1c 87             	mov    (%edi,%eax,4),%ebx
  10457f:	89 1c 81             	mov    %ebx,(%ecx,%eax,4)
  104582:	40                   	inc    %eax
  104583:	39 d0                	cmp    %edx,%eax
  104585:	75 f5                	jne    10457c <bench_fib_run+0x20c>
  104587:	8b 5d e8             	mov    -0x18(%ebp),%ebx
  10458a:	46                   	inc    %esi
  10458b:	03 5d ec             	add    -0x14(%ebp),%ebx
  10458e:	39 d6                	cmp    %edx,%esi
  104590:	75 da                	jne    10456c <bench_fib_run+0x1fc>
  104592:	e9 b8 fe ff ff       	jmp    10444f <bench_fib_run+0xdf>
  104597:	a1 8c 5a 10 00       	mov    0x105a8c,%eax
  10459c:	89 45 dc             	mov    %eax,-0x24(%ebp)
  10459f:	a1 90 5a 10 00       	mov    0x105a90,%eax
  1045a4:	89 45 d0             	mov    %eax,-0x30(%ebp)
  1045a7:	e9 6f fe ff ff       	jmp    10441b <bench_fib_run+0xab>

001045ac <bench_fib_validate>:
  1045ac:	55                   	push   %ebp
  1045ad:	89 e5                	mov    %esp,%ebp
  1045af:	8b 15 98 5a 10 00    	mov    0x105a98,%edx
  1045b5:	8d 42 ff             	lea    -0x1(%edx),%eax
  1045b8:	0f af d0             	imul   %eax,%edx
  1045bb:	01 d0                	add    %edx,%eax
  1045bd:	8b 0d 90 5a 10 00    	mov    0x105a90,%ecx
  1045c3:	8b 15 b8 5a 10 00    	mov    0x105ab8,%edx
  1045c9:	8b 04 81             	mov    (%ecx,%eax,4),%eax
  1045cc:	39 42 0c             	cmp    %eax,0xc(%edx)
  1045cf:	0f 94 c0             	sete   %al
  1045d2:	0f b6 c0             	movzbl %al,%eax
  1045d5:	5d                   	pop    %ebp
  1045d6:	c3                   	ret    
  1045d7:	90                   	nop

001045d8 <bench_sieve_prepare>:
  1045d8:	55                   	push   %ebp
  1045d9:	89 e5                	mov    %esp,%ebp
  1045db:	83 ec 18             	sub    $0x18,%esp
  1045de:	a1 b8 5a 10 00       	mov    0x105ab8,%eax
  1045e3:	8b 00                	mov    (%eax),%eax
  1045e5:	a3 a4 5a 10 00       	mov    %eax,0x105aa4
  1045ea:	85 c0                	test   %eax,%eax
  1045ec:	78 3a                	js     104628 <bench_sieve_prepare+0x50>
  1045ee:	c1 f8 03             	sar    $0x3,%eax
  1045f1:	83 e8 80             	sub    $0xffffff80,%eax
  1045f4:	89 04 24             	mov    %eax,(%esp)
  1045f7:	e8 d8 cd ff ff       	call   1013d4 <bench_alloc>
  1045fc:	a3 9c 5a 10 00       	mov    %eax,0x105a9c
  104601:	8b 0d a4 5a 10 00    	mov    0x105aa4,%ecx
  104607:	83 f9 e1             	cmp    $0xffffffe1,%ecx
  10460a:	7c 18                	jl     104624 <bench_sieve_prepare+0x4c>
  10460c:	85 c9                	test   %ecx,%ecx
  10460e:	78 20                	js     104630 <bench_sieve_prepare+0x58>
  104610:	c1 f9 05             	sar    $0x5,%ecx
  104613:	31 d2                	xor    %edx,%edx
  104615:	8d 76 00             	lea    0x0(%esi),%esi
  104618:	c7 04 90 ff ff ff ff 	movl   $0xffffffff,(%eax,%edx,4)
  10461f:	42                   	inc    %edx
  104620:	39 d1                	cmp    %edx,%ecx
  104622:	7d f4                	jge    104618 <bench_sieve_prepare+0x40>
  104624:	c9                   	leave  
  104625:	c3                   	ret    
  104626:	66 90                	xchg   %ax,%ax
  104628:	83 c0 07             	add    $0x7,%eax
  10462b:	eb c1                	jmp    1045ee <bench_sieve_prepare+0x16>
  10462d:	8d 76 00             	lea    0x0(%esi),%esi
  104630:	83 c1 1f             	add    $0x1f,%ecx
  104633:	eb db                	jmp    104610 <bench_sieve_prepare+0x38>
  104635:	8d 76 00             	lea    0x0(%esi),%esi

00104638 <bench_sieve_run>:
  104638:	55                   	push   %ebp
  104639:	89 e5                	mov    %esp,%ebp
  10463b:	57                   	push   %edi
  10463c:	56                   	push   %esi
  10463d:	53                   	push   %ebx
  10463e:	52                   	push   %edx
  10463f:	8b 35 a4 5a 10 00    	mov    0x105aa4,%esi
  104645:	85 f6                	test   %esi,%esi
  104647:	0f 8e bb 00 00 00    	jle    104708 <bench_sieve_run+0xd0>
  10464d:	8b 15 9c 5a 10 00    	mov    0x105a9c,%edx
  104653:	f6 02 02             	testb  $0x2,(%edx)
  104656:	0f 84 a6 00 00 00    	je     104702 <bench_sieve_run+0xca>
  10465c:	b9 01 00 00 00       	mov    $0x1,%ecx
  104661:	eb 13                	jmp    104676 <bench_sieve_run+0x3e>
  104663:	90                   	nop
  104664:	89 c8                	mov    %ecx,%eax
  104666:	c1 f8 05             	sar    $0x5,%eax
  104669:	8b 04 82             	mov    (%edx,%eax,4),%eax
  10466c:	d3 e8                	shr    %cl,%eax
  10466e:	a8 01                	test   $0x1,%al
  104670:	0f 84 8c 00 00 00    	je     104702 <bench_sieve_run+0xca>
  104676:	41                   	inc    %ecx
  104677:	39 f1                	cmp    %esi,%ecx
  104679:	7e e9                	jle    104664 <bench_sieve_run+0x2c>
  10467b:	83 fe 03             	cmp    $0x3,%esi
  10467e:	0f 8e 84 00 00 00    	jle    104708 <bench_sieve_run+0xd0>
  104684:	c7 45 f0 04 00 00 00 	movl   $0x4,-0x10(%ebp)
  10468b:	bb 02 00 00 00       	mov    $0x2,%ebx
  104690:	89 d8                	mov    %ebx,%eax
  104692:	c1 f8 05             	sar    $0x5,%eax
  104695:	8b 04 82             	mov    (%edx,%eax,4),%eax
  104698:	89 d9                	mov    %ebx,%ecx
  10469a:	d3 e8                	shr    %cl,%eax
  10469c:	a8 01                	test   $0x1,%al
  10469e:	74 23                	je     1046c3 <bench_sieve_run+0x8b>
  1046a0:	8b 45 f0             	mov    -0x10(%ebp),%eax
  1046a3:	89 c1                	mov    %eax,%ecx
  1046a5:	39 f0                	cmp    %esi,%eax
  1046a7:	7f 1a                	jg     1046c3 <bench_sieve_run+0x8b>
  1046a9:	8d 76 00             	lea    0x0(%esi),%esi
  1046ac:	89 c8                	mov    %ecx,%eax
  1046ae:	c1 f8 05             	sar    $0x5,%eax
  1046b1:	bf 01 00 00 00       	mov    $0x1,%edi
  1046b6:	d3 e7                	shl    %cl,%edi
  1046b8:	f7 d7                	not    %edi
  1046ba:	21 3c 82             	and    %edi,(%edx,%eax,4)
  1046bd:	01 d9                	add    %ebx,%ecx
  1046bf:	39 f1                	cmp    %esi,%ecx
  1046c1:	7e e9                	jle    1046ac <bench_sieve_run+0x74>
  1046c3:	43                   	inc    %ebx
  1046c4:	83 45 f0 02          	addl   $0x2,-0x10(%ebp)
  1046c8:	89 d8                	mov    %ebx,%eax
  1046ca:	0f af c3             	imul   %ebx,%eax
  1046cd:	39 f0                	cmp    %esi,%eax
  1046cf:	7e bf                	jle    104690 <bench_sieve_run+0x58>
  1046d1:	c7 05 a0 5a 10 00 00 	movl   $0x0,0x105aa0
  1046d8:	00 00 00 
  1046db:	8b 1d a0 5a 10 00    	mov    0x105aa0,%ebx
  1046e1:	46                   	inc    %esi
  1046e2:	b9 02 00 00 00       	mov    $0x2,%ecx
  1046e7:	90                   	nop
  1046e8:	89 c8                	mov    %ecx,%eax
  1046ea:	c1 f8 05             	sar    $0x5,%eax
  1046ed:	8b 04 82             	mov    (%edx,%eax,4),%eax
  1046f0:	d3 e8                	shr    %cl,%eax
  1046f2:	a8 01                	test   $0x1,%al
  1046f4:	74 01                	je     1046f7 <bench_sieve_run+0xbf>
  1046f6:	43                   	inc    %ebx
  1046f7:	41                   	inc    %ecx
  1046f8:	39 f1                	cmp    %esi,%ecx
  1046fa:	75 ec                	jne    1046e8 <bench_sieve_run+0xb0>
  1046fc:	89 1d a0 5a 10 00    	mov    %ebx,0x105aa0
  104702:	58                   	pop    %eax
  104703:	5b                   	pop    %ebx
  104704:	5e                   	pop    %esi
  104705:	5f                   	pop    %edi
  104706:	5d                   	pop    %ebp
  104707:	c3                   	ret    
  104708:	c7 05 a0 5a 10 00 00 	movl   $0x0,0x105aa0
  10470f:	00 00 00 
  104712:	83 fe 01             	cmp    $0x1,%esi
  104715:	7e eb                	jle    104702 <bench_sieve_run+0xca>
  104717:	8b 15 9c 5a 10 00    	mov    0x105a9c,%edx
  10471d:	eb bc                	jmp    1046db <bench_sieve_run+0xa3>
  10471f:	90                   	nop

00104720 <bench_sieve_validate>:
  104720:	55                   	push   %ebp
  104721:	89 e5                	mov    %esp,%ebp
  104723:	a1 b8 5a 10 00       	mov    0x105ab8,%eax
  104728:	8b 40 0c             	mov    0xc(%eax),%eax
  10472b:	39 05 a0 5a 10 00    	cmp    %eax,0x105aa0
  104731:	0f 94 c0             	sete   %al
  104734:	0f b6 c0             	movzbl %al,%eax
  104737:	5d                   	pop    %ebp
  104738:	c3                   	ret    
  104739:	66 90                	xchg   %ax,%ax
  10473b:	90                   	nop

0010473c <myqsort>:
  10473c:	55                   	push   %ebp
  10473d:	89 e5                	mov    %esp,%ebp
  10473f:	57                   	push   %edi
  104740:	56                   	push   %esi
  104741:	53                   	push   %ebx
  104742:	83 ec 2c             	sub    $0x2c,%esp
  104745:	89 c6                	mov    %eax,%esi
  104747:	89 55 dc             	mov    %edx,-0x24(%ebp)
  10474a:	89 4d d8             	mov    %ecx,-0x28(%ebp)
  10474d:	8b 45 d8             	mov    -0x28(%ebp),%eax
  104750:	39 45 dc             	cmp    %eax,-0x24(%ebp)
  104753:	7d 63                	jge    1047b8 <myqsort+0x7c>
  104755:	8d 44 86 fc          	lea    -0x4(%esi,%eax,4),%eax
  104759:	89 45 e0             	mov    %eax,-0x20(%ebp)
  10475c:	8b 7d dc             	mov    -0x24(%ebp),%edi
  10475f:	8d 04 be             	lea    (%esi,%edi,4),%eax
  104762:	89 c3                	mov    %eax,%ebx
  104764:	89 45 d4             	mov    %eax,-0x2c(%ebp)
  104767:	8b 00                	mov    (%eax),%eax
  104769:	89 45 e4             	mov    %eax,-0x1c(%ebp)
  10476c:	8d 47 01             	lea    0x1(%edi),%eax
  10476f:	3b 45 d8             	cmp    -0x28(%ebp),%eax
  104772:	7d 4c                	jge    1047c0 <myqsort+0x84>
  104774:	89 d8                	mov    %ebx,%eax
  104776:	89 fb                	mov    %edi,%ebx
  104778:	8b 50 04             	mov    0x4(%eax),%edx
  10477b:	39 55 e4             	cmp    %edx,-0x1c(%ebp)
  10477e:	7e 0b                	jle    10478b <myqsort+0x4f>
  104780:	43                   	inc    %ebx
  104781:	8d 0c 9e             	lea    (%esi,%ebx,4),%ecx
  104784:	8b 39                	mov    (%ecx),%edi
  104786:	89 11                	mov    %edx,(%ecx)
  104788:	89 78 04             	mov    %edi,0x4(%eax)
  10478b:	83 c0 04             	add    $0x4,%eax
  10478e:	3b 45 e0             	cmp    -0x20(%ebp),%eax
  104791:	75 e5                	jne    104778 <myqsort+0x3c>
  104793:	8d 04 9e             	lea    (%esi,%ebx,4),%eax
  104796:	8b 10                	mov    (%eax),%edx
  104798:	8b 7d d4             	mov    -0x2c(%ebp),%edi
  10479b:	8b 0f                	mov    (%edi),%ecx
  10479d:	89 08                	mov    %ecx,(%eax)
  10479f:	89 17                	mov    %edx,(%edi)
  1047a1:	89 d9                	mov    %ebx,%ecx
  1047a3:	8b 55 dc             	mov    -0x24(%ebp),%edx
  1047a6:	89 f0                	mov    %esi,%eax
  1047a8:	e8 8f ff ff ff       	call   10473c <myqsort>
  1047ad:	8d 43 01             	lea    0x1(%ebx),%eax
  1047b0:	89 45 dc             	mov    %eax,-0x24(%ebp)
  1047b3:	39 45 d8             	cmp    %eax,-0x28(%ebp)
  1047b6:	7f a4                	jg     10475c <myqsort+0x20>
  1047b8:	83 c4 2c             	add    $0x2c,%esp
  1047bb:	5b                   	pop    %ebx
  1047bc:	5e                   	pop    %esi
  1047bd:	5f                   	pop    %edi
  1047be:	5d                   	pop    %ebp
  1047bf:	c3                   	ret    
  1047c0:	8b 45 dc             	mov    -0x24(%ebp),%eax
  1047c3:	89 45 d8             	mov    %eax,-0x28(%ebp)
  1047c6:	eb 85                	jmp    10474d <myqsort+0x11>

001047c8 <bench_qsort_prepare>:
  1047c8:	55                   	push   %ebp
  1047c9:	89 e5                	mov    %esp,%ebp
  1047cb:	57                   	push   %edi
  1047cc:	56                   	push   %esi
  1047cd:	53                   	push   %ebx
  1047ce:	83 ec 1c             	sub    $0x1c,%esp
  1047d1:	c7 04 24 01 00 00 00 	movl   $0x1,(%esp)
  1047d8:	e8 cf cc ff ff       	call   1014ac <bench_srand>
  1047dd:	a1 b8 5a 10 00       	mov    0x105ab8,%eax
  1047e2:	8b 00                	mov    (%eax),%eax
  1047e4:	a3 ac 5a 10 00       	mov    %eax,0x105aac
  1047e9:	c1 e0 02             	shl    $0x2,%eax
  1047ec:	89 04 24             	mov    %eax,(%esp)
  1047ef:	e8 e0 cb ff ff       	call   1013d4 <bench_alloc>
  1047f4:	a3 a8 5a 10 00       	mov    %eax,0x105aa8
  1047f9:	8b 15 ac 5a 10 00    	mov    0x105aac,%edx
  1047ff:	85 d2                	test   %edx,%edx
  104801:	7e 34                	jle    104837 <bench_qsort_prepare+0x6f>
  104803:	89 c6                	mov    %eax,%esi
  104805:	31 db                	xor    %ebx,%ebx
  104807:	31 ff                	xor    %edi,%edi
  104809:	eb 07                	jmp    104812 <bench_qsort_prepare+0x4a>
  10480b:	90                   	nop
  10480c:	8b 35 a8 5a 10 00    	mov    0x105aa8,%esi
  104812:	01 de                	add    %ebx,%esi
  104814:	e8 a7 cc ff ff       	call   1014c0 <bench_rand>
  104819:	89 45 e4             	mov    %eax,-0x1c(%ebp)
  10481c:	e8 9f cc ff ff       	call   1014c0 <bench_rand>
  104821:	8b 55 e4             	mov    -0x1c(%ebp),%edx
  104824:	c1 e2 10             	shl    $0x10,%edx
  104827:	09 c2                	or     %eax,%edx
  104829:	89 16                	mov    %edx,(%esi)
  10482b:	47                   	inc    %edi
  10482c:	83 c3 04             	add    $0x4,%ebx
  10482f:	39 3d ac 5a 10 00    	cmp    %edi,0x105aac
  104835:	7f d5                	jg     10480c <bench_qsort_prepare+0x44>
  104837:	83 c4 1c             	add    $0x1c,%esp
  10483a:	5b                   	pop    %ebx
  10483b:	5e                   	pop    %esi
  10483c:	5f                   	pop    %edi
  10483d:	5d                   	pop    %ebp
  10483e:	c3                   	ret    
  10483f:	90                   	nop

00104840 <bench_qsort_run>:
  104840:	55                   	push   %ebp
  104841:	89 e5                	mov    %esp,%ebp
  104843:	8b 0d ac 5a 10 00    	mov    0x105aac,%ecx
  104849:	31 d2                	xor    %edx,%edx
  10484b:	a1 a8 5a 10 00       	mov    0x105aa8,%eax
  104850:	5d                   	pop    %ebp
  104851:	e9 e6 fe ff ff       	jmp    10473c <myqsort>
  104856:	66 90                	xchg   %ax,%ax

00104858 <bench_qsort_validate>:
  104858:	55                   	push   %ebp
  104859:	89 e5                	mov    %esp,%ebp
  10485b:	83 ec 18             	sub    $0x18,%esp
  10485e:	a1 a8 5a 10 00       	mov    0x105aa8,%eax
  104863:	8b 15 ac 5a 10 00    	mov    0x105aac,%edx
  104869:	8d 14 90             	lea    (%eax,%edx,4),%edx
  10486c:	89 54 24 04          	mov    %edx,0x4(%esp)
  104870:	89 04 24             	mov    %eax,(%esp)
  104873:	e8 78 cc ff ff       	call   1014f0 <checksum>
  104878:	8b 15 b8 5a 10 00    	mov    0x105ab8,%edx
  10487e:	3b 42 0c             	cmp    0xc(%edx),%eax
  104881:	0f 94 c0             	sete   %al
  104884:	0f b6 c0             	movzbl %al,%eax
  104887:	c9                   	leave  
  104888:	c3                   	ret    
  104889:	66 90                	xchg   %ax,%ax
  10488b:	90                   	nop

0010488c <vprintdec>:
  10488c:	55                   	push   %ebp
  10488d:	89 e5                	mov    %esp,%ebp
  10488f:	57                   	push   %edi
  104890:	56                   	push   %esi
  104891:	53                   	push   %ebx
  104892:	83 ec 1c             	sub    $0x1c,%esp
  104895:	8b 45 08             	mov    0x8(%ebp),%eax
  104898:	8b 7d 14             	mov    0x14(%ebp),%edi
  10489b:	89 7d e0             	mov    %edi,-0x20(%ebp)
  10489e:	8b 4d 18             	mov    0x18(%ebp),%ecx
  1048a1:	8b 5d 1c             	mov    0x1c(%ebp),%ebx
  1048a4:	89 5d e4             	mov    %ebx,-0x1c(%ebp)
  1048a7:	85 c0                	test   %eax,%eax
  1048a9:	0f 85 85 00 00 00    	jne    104934 <vprintdec+0xa8>
  1048af:	80 f9 2d             	cmp    $0x2d,%cl
  1048b2:	0f 84 54 01 00 00    	je     104a0c <vprintdec+0x180>
  1048b8:	88 ca                	mov    %cl,%dl
  1048ba:	89 f8                	mov    %edi,%eax
  1048bc:	3c 2d                	cmp    $0x2d,%al
  1048be:	8b 45 10             	mov    0x10(%ebp),%eax
  1048c1:	74 01                	je     1048c4 <vprintdec+0x38>
  1048c3:	40                   	inc    %eax
  1048c4:	0f be fa             	movsbl %dl,%edi
  1048c7:	8b 5d e4             	mov    -0x1c(%ebp),%ebx
  1048ca:	48                   	dec    %eax
  1048cb:	8d 70 01             	lea    0x1(%eax),%esi
  1048ce:	4e                   	dec    %esi
  1048cf:	7e 1a                	jle    1048eb <vprintdec+0x5f>
  1048d1:	8b 33                	mov    (%ebx),%esi
  1048d3:	80 fa 2b             	cmp    $0x2b,%dl
  1048d6:	74 4c                	je     104924 <vprintdec+0x98>
  1048d8:	85 f6                	test   %esi,%esi
  1048da:	0f 84 d4 00 00 00    	je     1049b4 <vprintdec+0x128>
  1048e0:	88 16                	mov    %dl,(%esi)
  1048e2:	ff 03                	incl   (%ebx)
  1048e4:	48                   	dec    %eax
  1048e5:	8d 70 01             	lea    0x1(%eax),%esi
  1048e8:	4e                   	dec    %esi
  1048e9:	7f e6                	jg     1048d1 <vprintdec+0x45>
  1048eb:	89 5d e4             	mov    %ebx,-0x1c(%ebp)
  1048ee:	80 f9 2b             	cmp    $0x2b,%cl
  1048f1:	0f 84 f9 00 00 00    	je     1049f0 <vprintdec+0x164>
  1048f7:	80 7d e0 2d          	cmpb   $0x2d,-0x20(%ebp)
  1048fb:	0f 84 1f 01 00 00    	je     104a20 <vprintdec+0x194>
  104901:	85 c0                	test   %eax,%eax
  104903:	7e 14                	jle    104919 <vprintdec+0x8d>
  104905:	8b 7d e4             	mov    -0x1c(%ebp),%edi
  104908:	8b 17                	mov    (%edi),%edx
  10490a:	85 d2                	test   %edx,%edx
  10490c:	0f 84 83 01 00 00    	je     104a95 <vprintdec+0x209>
  104912:	88 0a                	mov    %cl,(%edx)
  104914:	8b 4d e4             	mov    -0x1c(%ebp),%ecx
  104917:	ff 01                	incl   (%ecx)
  104919:	8d 65 f4             	lea    -0xc(%ebp),%esp
  10491c:	5b                   	pop    %ebx
  10491d:	5e                   	pop    %esi
  10491e:	5f                   	pop    %edi
  10491f:	5d                   	pop    %ebp
  104920:	c3                   	ret    
  104921:	8d 76 00             	lea    0x0(%esi),%esi
  104924:	85 f6                	test   %esi,%esi
  104926:	0f 84 10 01 00 00    	je     104a3c <vprintdec+0x1b0>
  10492c:	c6 06 20             	movb   $0x20,(%esi)
  10492f:	ff 03                	incl   (%ebx)
  104931:	eb 97                	jmp    1048ca <vprintdec+0x3e>
  104933:	90                   	nop
  104934:	53                   	push   %ebx
  104935:	8b 7d 20             	mov    0x20(%ebp),%edi
  104938:	8d 57 01             	lea    0x1(%edi),%edx
  10493b:	52                   	push   %edx
  10493c:	8b 5d e4             	mov    -0x1c(%ebp),%ebx
  10493f:	53                   	push   %ebx
  104940:	0f be d1             	movsbl %cl,%edx
  104943:	89 4d dc             	mov    %ecx,-0x24(%ebp)
  104946:	52                   	push   %edx
  104947:	0f be 7d e0          	movsbl -0x20(%ebp),%edi
  10494b:	57                   	push   %edi
  10494c:	8b 7d 10             	mov    0x10(%ebp),%edi
  10494f:	8d 57 ff             	lea    -0x1(%edi),%edx
  104952:	52                   	push   %edx
  104953:	ff 75 0c             	pushl  0xc(%ebp)
  104956:	31 d2                	xor    %edx,%edx
  104958:	f7 75 0c             	divl   0xc(%ebp)
  10495b:	89 d6                	mov    %edx,%esi
  10495d:	50                   	push   %eax
  10495e:	e8 29 ff ff ff       	call   10488c <vprintdec>
  104963:	83 c4 20             	add    $0x20,%esp
  104966:	83 fe 09             	cmp    $0x9,%esi
  104969:	8b 4d dc             	mov    -0x24(%ebp),%ecx
  10496c:	77 6a                	ja     1049d8 <vprintdec+0x14c>
  10496e:	8d 56 30             	lea    0x30(%esi),%edx
  104971:	8b 7d e4             	mov    -0x1c(%ebp),%edi
  104974:	8b 37                	mov    (%edi),%esi
  104976:	85 f6                	test   %esi,%esi
  104978:	0f 84 35 01 00 00    	je     104ab3 <vprintdec+0x227>
  10497e:	88 16                	mov    %dl,(%esi)
  104980:	8b 7d e4             	mov    -0x1c(%ebp),%edi
  104983:	ff 07                	incl   (%edi)
  104985:	80 f9 2d             	cmp    $0x2d,%cl
  104988:	75 8f                	jne    104919 <vprintdec+0x8d>
  10498a:	8b 55 20             	mov    0x20(%ebp),%edx
  10498d:	85 d2                	test   %edx,%edx
  10498f:	75 88                	jne    104919 <vprintdec+0x8d>
  104991:	89 c6                	mov    %eax,%esi
  104993:	89 c7                	mov    %eax,%edi
  104995:	8b 5d e4             	mov    -0x1c(%ebp),%ebx
  104998:	85 f6                	test   %esi,%esi
  10499a:	0f 8e d0 00 00 00    	jle    104a70 <vprintdec+0x1e4>
  1049a0:	8b 13                	mov    (%ebx),%edx
  1049a2:	85 d2                	test   %edx,%edx
  1049a4:	0f 84 d8 00 00 00    	je     104a82 <vprintdec+0x1f6>
  1049aa:	c6 02 20             	movb   $0x20,(%edx)
  1049ad:	ff 03                	incl   (%ebx)
  1049af:	4e                   	dec    %esi
  1049b0:	eb e6                	jmp    104998 <vprintdec+0x10c>
  1049b2:	66 90                	xchg   %ax,%ax
  1049b4:	89 4d d8             	mov    %ecx,-0x28(%ebp)
  1049b7:	88 55 dc             	mov    %dl,-0x24(%ebp)
  1049ba:	89 45 e4             	mov    %eax,-0x1c(%ebp)
  1049bd:	83 ec 0c             	sub    $0xc,%esp
  1049c0:	57                   	push   %edi
  1049c1:	e8 4a b6 ff ff       	call   100010 <_putc>
  1049c6:	83 c4 10             	add    $0x10,%esp
  1049c9:	8b 45 e4             	mov    -0x1c(%ebp),%eax
  1049cc:	8a 55 dc             	mov    -0x24(%ebp),%dl
  1049cf:	8b 4d d8             	mov    -0x28(%ebp),%ecx
  1049d2:	e9 f3 fe ff ff       	jmp    1048ca <vprintdec+0x3e>
  1049d7:	90                   	nop
  1049d8:	83 c6 57             	add    $0x57,%esi
  1049db:	8b 13                	mov    (%ebx),%edx
  1049dd:	85 d2                	test   %edx,%edx
  1049df:	0f 84 09 01 00 00    	je     104aee <vprintdec+0x262>
  1049e5:	89 f3                	mov    %esi,%ebx
  1049e7:	88 1a                	mov    %bl,(%edx)
  1049e9:	8b 7d e4             	mov    -0x1c(%ebp),%edi
  1049ec:	ff 07                	incl   (%edi)
  1049ee:	eb 95                	jmp    104985 <vprintdec+0xf9>
  1049f0:	8b 13                	mov    (%ebx),%edx
  1049f2:	85 d2                	test   %edx,%edx
  1049f4:	0f 84 d9 00 00 00    	je     104ad3 <vprintdec+0x247>
  1049fa:	8a 4d e0             	mov    -0x20(%ebp),%cl
  1049fd:	88 0a                	mov    %cl,(%edx)
  1049ff:	8b 4d e4             	mov    -0x1c(%ebp),%ecx
  104a02:	ff 01                	incl   (%ecx)
  104a04:	8d 65 f4             	lea    -0xc(%ebp),%esp
  104a07:	5b                   	pop    %ebx
  104a08:	5e                   	pop    %esi
  104a09:	5f                   	pop    %edi
  104a0a:	5d                   	pop    %ebp
  104a0b:	c3                   	ret    
  104a0c:	80 7d e0 2d          	cmpb   $0x2d,-0x20(%ebp)
  104a10:	74 3e                	je     104a50 <vprintdec+0x1c4>
  104a12:	8b 45 10             	mov    0x10(%ebp),%eax
  104a15:	8d 65 f4             	lea    -0xc(%ebp),%esp
  104a18:	5b                   	pop    %ebx
  104a19:	5e                   	pop    %esi
  104a1a:	5f                   	pop    %edi
  104a1b:	5d                   	pop    %ebp
  104a1c:	c3                   	ret    
  104a1d:	8d 76 00             	lea    0x0(%esi),%esi
  104a20:	8b 4d e4             	mov    -0x1c(%ebp),%ecx
  104a23:	8b 11                	mov    (%ecx),%edx
  104a25:	85 d2                	test   %edx,%edx
  104a27:	0f 84 e0 00 00 00    	je     104b0d <vprintdec+0x281>
  104a2d:	c6 02 2d             	movb   $0x2d,(%edx)
  104a30:	8b 4d e4             	mov    -0x1c(%ebp),%ecx
  104a33:	ff 01                	incl   (%ecx)
  104a35:	e9 df fe ff ff       	jmp    104919 <vprintdec+0x8d>
  104a3a:	66 90                	xchg   %ax,%ax
  104a3c:	89 4d d8             	mov    %ecx,-0x28(%ebp)
  104a3f:	88 55 dc             	mov    %dl,-0x24(%ebp)
  104a42:	89 45 e4             	mov    %eax,-0x1c(%ebp)
  104a45:	83 ec 0c             	sub    $0xc,%esp
  104a48:	6a 20                	push   $0x20
  104a4a:	e9 72 ff ff ff       	jmp    1049c1 <vprintdec+0x135>
  104a4f:	90                   	nop
  104a50:	8b 45 e4             	mov    -0x1c(%ebp),%eax
  104a53:	8b 00                	mov    (%eax),%eax
  104a55:	85 c0                	test   %eax,%eax
  104a57:	0f 84 c8 00 00 00    	je     104b25 <vprintdec+0x299>
  104a5d:	c6 00 2d             	movb   $0x2d,(%eax)
  104a60:	8b 45 e4             	mov    -0x1c(%ebp),%eax
  104a63:	ff 00                	incl   (%eax)
  104a65:	8b 45 10             	mov    0x10(%ebp),%eax
  104a68:	48                   	dec    %eax
  104a69:	e9 ab fe ff ff       	jmp    104919 <vprintdec+0x8d>
  104a6e:	66 90                	xchg   %ax,%ax
  104a70:	89 f8                	mov    %edi,%eax
  104a72:	8d 57 ff             	lea    -0x1(%edi),%edx
  104a75:	85 ff                	test   %edi,%edi
  104a77:	78 36                	js     104aaf <vprintdec+0x223>
  104a79:	29 c2                	sub    %eax,%edx
  104a7b:	89 d0                	mov    %edx,%eax
  104a7d:	e9 97 fe ff ff       	jmp    104919 <vprintdec+0x8d>
  104a82:	83 ec 0c             	sub    $0xc,%esp
  104a85:	6a 20                	push   $0x20
  104a87:	e8 84 b5 ff ff       	call   100010 <_putc>
  104a8c:	83 c4 10             	add    $0x10,%esp
  104a8f:	4e                   	dec    %esi
  104a90:	e9 03 ff ff ff       	jmp    104998 <vprintdec+0x10c>
  104a95:	89 45 e4             	mov    %eax,-0x1c(%ebp)
  104a98:	83 ec 0c             	sub    $0xc,%esp
  104a9b:	0f be c9             	movsbl %cl,%ecx
  104a9e:	51                   	push   %ecx
  104a9f:	e8 6c b5 ff ff       	call   100010 <_putc>
  104aa4:	83 c4 10             	add    $0x10,%esp
  104aa7:	8b 45 e4             	mov    -0x1c(%ebp),%eax
  104aaa:	e9 6a fe ff ff       	jmp    104919 <vprintdec+0x8d>
  104aaf:	31 c0                	xor    %eax,%eax
  104ab1:	eb c6                	jmp    104a79 <vprintdec+0x1ed>
  104ab3:	89 4d dc             	mov    %ecx,-0x24(%ebp)
  104ab6:	89 45 e0             	mov    %eax,-0x20(%ebp)
  104ab9:	83 ec 0c             	sub    $0xc,%esp
  104abc:	0f b6 d2             	movzbl %dl,%edx
  104abf:	52                   	push   %edx
  104ac0:	e8 4b b5 ff ff       	call   100010 <_putc>
  104ac5:	83 c4 10             	add    $0x10,%esp
  104ac8:	8b 45 e0             	mov    -0x20(%ebp),%eax
  104acb:	8b 4d dc             	mov    -0x24(%ebp),%ecx
  104ace:	e9 b2 fe ff ff       	jmp    104985 <vprintdec+0xf9>
  104ad3:	89 45 e4             	mov    %eax,-0x1c(%ebp)
  104ad6:	83 ec 0c             	sub    $0xc,%esp
  104ad9:	0f be 7d e0          	movsbl -0x20(%ebp),%edi
  104add:	57                   	push   %edi
  104ade:	e8 2d b5 ff ff       	call   100010 <_putc>
  104ae3:	83 c4 10             	add    $0x10,%esp
  104ae6:	8b 45 e4             	mov    -0x1c(%ebp),%eax
  104ae9:	e9 2b fe ff ff       	jmp    104919 <vprintdec+0x8d>
  104aee:	89 45 e0             	mov    %eax,-0x20(%ebp)
  104af1:	83 ec 0c             	sub    $0xc,%esp
  104af4:	89 f0                	mov    %esi,%eax
  104af6:	0f be f0             	movsbl %al,%esi
  104af9:	56                   	push   %esi
  104afa:	e8 11 b5 ff ff       	call   100010 <_putc>
  104aff:	83 c4 10             	add    $0x10,%esp
  104b02:	8b 45 e0             	mov    -0x20(%ebp),%eax
  104b05:	8b 4d dc             	mov    -0x24(%ebp),%ecx
  104b08:	e9 78 fe ff ff       	jmp    104985 <vprintdec+0xf9>
  104b0d:	89 45 e4             	mov    %eax,-0x1c(%ebp)
  104b10:	83 ec 0c             	sub    $0xc,%esp
  104b13:	6a 2d                	push   $0x2d
  104b15:	e8 f6 b4 ff ff       	call   100010 <_putc>
  104b1a:	83 c4 10             	add    $0x10,%esp
  104b1d:	8b 45 e4             	mov    -0x1c(%ebp),%eax
  104b20:	e9 f4 fd ff ff       	jmp    104919 <vprintdec+0x8d>
  104b25:	83 ec 0c             	sub    $0xc,%esp
  104b28:	6a 2d                	push   $0x2d
  104b2a:	e8 e1 b4 ff ff       	call   100010 <_putc>
  104b2f:	83 c4 10             	add    $0x10,%esp
  104b32:	e9 2e ff ff ff       	jmp    104a65 <vprintdec+0x1d9>
  104b37:	90                   	nop

00104b38 <printdec>:
  104b38:	55                   	push   %ebp
  104b39:	89 e5                	mov    %esp,%ebp
  104b3b:	57                   	push   %edi
  104b3c:	56                   	push   %esi
  104b3d:	53                   	push   %ebx
  104b3e:	83 ec 1c             	sub    $0x1c,%esp
  104b41:	8b 7d 0c             	mov    0xc(%ebp),%edi
  104b44:	8b 4d 10             	mov    0x10(%ebp),%ecx
  104b47:	8b 55 14             	mov    0x14(%ebp),%edx
  104b4a:	8b 45 18             	mov    0x18(%ebp),%eax
  104b4d:	89 c3                	mov    %eax,%ebx
  104b4f:	8b 45 1c             	mov    0x1c(%ebp),%eax
  104b52:	89 5d e0             	mov    %ebx,-0x20(%ebp)
  104b55:	88 5d e4             	mov    %bl,-0x1c(%ebp)
  104b58:	31 db                	xor    %ebx,%ebx
  104b5a:	80 fa 2d             	cmp    $0x2d,%dl
  104b5d:	0f 94 c3             	sete   %bl
  104b60:	89 de                	mov    %ebx,%esi
  104b62:	8b 5d 08             	mov    0x8(%ebp),%ebx
  104b65:	85 db                	test   %ebx,%ebx
  104b67:	75 5f                	jne    104bc8 <printdec+0x90>
  104b69:	8b 10                	mov    (%eax),%edx
  104b6b:	85 c9                	test   %ecx,%ecx
  104b6d:	0f 8e c5 00 00 00    	jle    104c38 <printdec+0x100>
  104b73:	80 7d e0 2d          	cmpb   $0x2d,-0x20(%ebp)
  104b77:	74 28                	je     104ba1 <printdec+0x69>
  104b79:	0f be 5d e4          	movsbl -0x1c(%ebp),%ebx
  104b7d:	89 cf                	mov    %ecx,%edi
  104b7f:	4f                   	dec    %edi
  104b80:	74 1d                	je     104b9f <printdec+0x67>
  104b82:	80 7d e4 2b          	cmpb   $0x2b,-0x1c(%ebp)
  104b86:	74 7c                	je     104c04 <printdec+0xcc>
  104b88:	85 d2                	test   %edx,%edx
  104b8a:	0f 84 b8 00 00 00    	je     104c48 <printdec+0x110>
  104b90:	8a 4d e4             	mov    -0x1c(%ebp),%cl
  104b93:	88 0a                	mov    %cl,(%edx)
  104b95:	8b 08                	mov    (%eax),%ecx
  104b97:	8d 51 01             	lea    0x1(%ecx),%edx
  104b9a:	89 10                	mov    %edx,(%eax)
  104b9c:	4f                   	dec    %edi
  104b9d:	75 e3                	jne    104b82 <printdec+0x4a>
  104b9f:	89 f9                	mov    %edi,%ecx
  104ba1:	85 d2                	test   %edx,%edx
  104ba3:	0f 84 e1 00 00 00    	je     104c8a <printdec+0x152>
  104ba9:	c6 02 30             	movb   $0x30,(%edx)
  104bac:	ff 00                	incl   (%eax)
  104bae:	80 7d e0 2d          	cmpb   $0x2d,-0x20(%ebp)
  104bb2:	74 64                	je     104c18 <printdec+0xe0>
  104bb4:	46                   	inc    %esi
  104bb5:	85 c9                	test   %ecx,%ecx
  104bb7:	7e 04                	jle    104bbd <printdec+0x85>
  104bb9:	39 ce                	cmp    %ecx,%esi
  104bbb:	7f 3b                	jg     104bf8 <printdec+0xc0>
  104bbd:	89 f0                	mov    %esi,%eax
  104bbf:	8d 65 f4             	lea    -0xc(%ebp),%esp
  104bc2:	5b                   	pop    %ebx
  104bc3:	5e                   	pop    %esi
  104bc4:	5f                   	pop    %edi
  104bc5:	5d                   	pop    %ebp
  104bc6:	c3                   	ret    
  104bc7:	90                   	nop
  104bc8:	53                   	push   %ebx
  104bc9:	6a 00                	push   $0x0
  104bcb:	50                   	push   %eax
  104bcc:	0f be 45 e0          	movsbl -0x20(%ebp),%eax
  104bd0:	50                   	push   %eax
  104bd1:	0f be d2             	movsbl %dl,%edx
  104bd4:	52                   	push   %edx
  104bd5:	51                   	push   %ecx
  104bd6:	89 4d e4             	mov    %ecx,-0x1c(%ebp)
  104bd9:	57                   	push   %edi
  104bda:	ff 75 08             	pushl  0x8(%ebp)
  104bdd:	e8 aa fc ff ff       	call   10488c <vprintdec>
  104be2:	83 c4 20             	add    $0x20,%esp
  104be5:	8b 45 08             	mov    0x8(%ebp),%eax
  104be8:	8b 4d e4             	mov    -0x1c(%ebp),%ecx
  104beb:	90                   	nop
  104bec:	31 d2                	xor    %edx,%edx
  104bee:	f7 f7                	div    %edi
  104bf0:	46                   	inc    %esi
  104bf1:	85 c0                	test   %eax,%eax
  104bf3:	75 f7                	jne    104bec <printdec+0xb4>
  104bf5:	eb be                	jmp    104bb5 <printdec+0x7d>
  104bf7:	90                   	nop
  104bf8:	89 ce                	mov    %ecx,%esi
  104bfa:	89 f0                	mov    %esi,%eax
  104bfc:	8d 65 f4             	lea    -0xc(%ebp),%esp
  104bff:	5b                   	pop    %ebx
  104c00:	5e                   	pop    %esi
  104c01:	5f                   	pop    %edi
  104c02:	5d                   	pop    %ebp
  104c03:	c3                   	ret    
  104c04:	85 d2                	test   %edx,%edx
  104c06:	74 68                	je     104c70 <printdec+0x138>
  104c08:	c6 02 20             	movb   $0x20,(%edx)
  104c0b:	8b 08                	mov    (%eax),%ecx
  104c0d:	8d 51 01             	lea    0x1(%ecx),%edx
  104c10:	89 10                	mov    %edx,(%eax)
  104c12:	e9 68 ff ff ff       	jmp    104b7f <printdec+0x47>
  104c17:	90                   	nop
  104c18:	89 cb                	mov    %ecx,%ebx
  104c1a:	89 c7                	mov    %eax,%edi
  104c1c:	eb 0d                	jmp    104c2b <printdec+0xf3>
  104c1e:	66 90                	xchg   %ax,%ax
  104c20:	8b 17                	mov    (%edi),%edx
  104c22:	85 d2                	test   %edx,%edx
  104c24:	74 3b                	je     104c61 <printdec+0x129>
  104c26:	c6 02 20             	movb   $0x20,(%edx)
  104c29:	ff 07                	incl   (%edi)
  104c2b:	4b                   	dec    %ebx
  104c2c:	85 db                	test   %ebx,%ebx
  104c2e:	7f f0                	jg     104c20 <printdec+0xe8>
  104c30:	89 d9                	mov    %ebx,%ecx
  104c32:	46                   	inc    %esi
  104c33:	eb 80                	jmp    104bb5 <printdec+0x7d>
  104c35:	8d 76 00             	lea    0x0(%esi),%esi
  104c38:	85 d2                	test   %edx,%edx
  104c3a:	74 6c                	je     104ca8 <printdec+0x170>
  104c3c:	c6 02 30             	movb   $0x30,(%edx)
  104c3f:	ff 00                	incl   (%eax)
  104c41:	46                   	inc    %esi
  104c42:	e9 6e ff ff ff       	jmp    104bb5 <printdec+0x7d>
  104c47:	90                   	nop
  104c48:	89 45 dc             	mov    %eax,-0x24(%ebp)
  104c4b:	83 ec 0c             	sub    $0xc,%esp
  104c4e:	53                   	push   %ebx
  104c4f:	e8 bc b3 ff ff       	call   100010 <_putc>
  104c54:	8b 45 dc             	mov    -0x24(%ebp),%eax
  104c57:	8b 10                	mov    (%eax),%edx
  104c59:	83 c4 10             	add    $0x10,%esp
  104c5c:	e9 1e ff ff ff       	jmp    104b7f <printdec+0x47>
  104c61:	83 ec 0c             	sub    $0xc,%esp
  104c64:	6a 20                	push   $0x20
  104c66:	e8 a5 b3 ff ff       	call   100010 <_putc>
  104c6b:	83 c4 10             	add    $0x10,%esp
  104c6e:	eb bb                	jmp    104c2b <printdec+0xf3>
  104c70:	89 45 dc             	mov    %eax,-0x24(%ebp)
  104c73:	83 ec 0c             	sub    $0xc,%esp
  104c76:	6a 20                	push   $0x20
  104c78:	e8 93 b3 ff ff       	call   100010 <_putc>
  104c7d:	8b 45 dc             	mov    -0x24(%ebp),%eax
  104c80:	8b 10                	mov    (%eax),%edx
  104c82:	83 c4 10             	add    $0x10,%esp
  104c85:	e9 f5 fe ff ff       	jmp    104b7f <printdec+0x47>
  104c8a:	89 45 dc             	mov    %eax,-0x24(%ebp)
  104c8d:	89 4d e4             	mov    %ecx,-0x1c(%ebp)
  104c90:	83 ec 0c             	sub    $0xc,%esp
  104c93:	6a 30                	push   $0x30
  104c95:	e8 76 b3 ff ff       	call   100010 <_putc>
  104c9a:	83 c4 10             	add    $0x10,%esp
  104c9d:	8b 4d e4             	mov    -0x1c(%ebp),%ecx
  104ca0:	8b 45 dc             	mov    -0x24(%ebp),%eax
  104ca3:	e9 06 ff ff ff       	jmp    104bae <printdec+0x76>
  104ca8:	89 4d e4             	mov    %ecx,-0x1c(%ebp)
  104cab:	83 ec 0c             	sub    $0xc,%esp
  104cae:	6a 30                	push   $0x30
  104cb0:	e8 5b b3 ff ff       	call   100010 <_putc>
  104cb5:	83 c4 10             	add    $0x10,%esp
  104cb8:	8b 4d e4             	mov    -0x1c(%ebp),%ecx
  104cbb:	46                   	inc    %esi
  104cbc:	e9 f4 fe ff ff       	jmp    104bb5 <printdec+0x7d>
  104cc1:	66 90                	xchg   %ax,%ax
  104cc3:	90                   	nop

00104cc4 <printstr>:
  104cc4:	55                   	push   %ebp
  104cc5:	89 e5                	mov    %esp,%ebp
  104cc7:	56                   	push   %esi
  104cc8:	53                   	push   %ebx
  104cc9:	8b 5d 08             	mov    0x8(%ebp),%ebx
  104ccc:	8b 75 0c             	mov    0xc(%ebp),%esi
  104ccf:	8b 06                	mov    (%esi),%eax
  104cd1:	eb 0d                	jmp    104ce0 <printstr+0x1c>
  104cd3:	90                   	nop
  104cd4:	43                   	inc    %ebx
  104cd5:	85 c0                	test   %eax,%eax
  104cd7:	74 17                	je     104cf0 <printstr+0x2c>
  104cd9:	88 10                	mov    %dl,(%eax)
  104cdb:	8b 06                	mov    (%esi),%eax
  104cdd:	40                   	inc    %eax
  104cde:	89 06                	mov    %eax,(%esi)
  104ce0:	0f be 13             	movsbl (%ebx),%edx
  104ce3:	84 d2                	test   %dl,%dl
  104ce5:	75 ed                	jne    104cd4 <printstr+0x10>
  104ce7:	8d 65 f8             	lea    -0x8(%ebp),%esp
  104cea:	5b                   	pop    %ebx
  104ceb:	5e                   	pop    %esi
  104cec:	5d                   	pop    %ebp
  104ced:	c3                   	ret    
  104cee:	66 90                	xchg   %ax,%ax
  104cf0:	83 ec 0c             	sub    $0xc,%esp
  104cf3:	52                   	push   %edx
  104cf4:	e8 17 b3 ff ff       	call   100010 <_putc>
  104cf9:	8b 06                	mov    (%esi),%eax
  104cfb:	83 c4 10             	add    $0x10,%esp
  104cfe:	eb e0                	jmp    104ce0 <printstr+0x1c>

00104d00 <vprintk>:
  104d00:	55                   	push   %ebp
  104d01:	89 e5                	mov    %esp,%ebp
  104d03:	57                   	push   %edi
  104d04:	56                   	push   %esi
  104d05:	53                   	push   %ebx
  104d06:	83 ec 1c             	sub    $0x1c,%esp
  104d09:	8b 75 0c             	mov    0xc(%ebp),%esi
  104d0c:	31 ff                	xor    %edi,%edi
  104d0e:	0f be 06             	movsbl (%esi),%eax
  104d11:	84 c0                	test   %al,%al
  104d13:	74 1d                	je     104d32 <vprintk+0x32>
  104d15:	3c 25                	cmp    $0x25,%al
  104d17:	74 2f                	je     104d48 <vprintk+0x48>
  104d19:	46                   	inc    %esi
  104d1a:	8b 55 08             	mov    0x8(%ebp),%edx
  104d1d:	85 d2                	test   %edx,%edx
  104d1f:	0f 84 97 01 00 00    	je     104ebc <vprintk+0x1bc>
  104d25:	88 02                	mov    %al,(%edx)
  104d27:	ff 45 08             	incl   0x8(%ebp)
  104d2a:	47                   	inc    %edi
  104d2b:	0f be 06             	movsbl (%esi),%eax
  104d2e:	84 c0                	test   %al,%al
  104d30:	75 e3                	jne    104d15 <vprintk+0x15>
  104d32:	8b 45 08             	mov    0x8(%ebp),%eax
  104d35:	85 c0                	test   %eax,%eax
  104d37:	74 04                	je     104d3d <vprintk+0x3d>
  104d39:	c6 00 00             	movb   $0x0,(%eax)
  104d3c:	47                   	inc    %edi
  104d3d:	89 f8                	mov    %edi,%eax
  104d3f:	8d 65 f4             	lea    -0xc(%ebp),%esp
  104d42:	5b                   	pop    %ebx
  104d43:	5e                   	pop    %esi
  104d44:	5f                   	pop    %edi
  104d45:	5d                   	pop    %ebp
  104d46:	c3                   	ret    
  104d47:	90                   	nop
  104d48:	0f be 46 01          	movsbl 0x1(%esi),%eax
  104d4c:	bb ff ff ff ff       	mov    $0xffffffff,%ebx
  104d51:	c6 45 e4 20          	movb   $0x20,-0x1c(%ebp)
  104d55:	8d 4e 01             	lea    0x1(%esi),%ecx
  104d58:	8d 50 e0             	lea    -0x20(%eax),%edx
  104d5b:	80 fa 58             	cmp    $0x58,%dl
  104d5e:	77 72                	ja     104dd2 <vprintk+0xd2>
  104d60:	0f b6 d2             	movzbl %dl,%edx
  104d63:	ff 24 95 e0 55 10 00 	jmp    *0x1055e0(,%edx,4)
  104d6a:	66 90                	xchg   %ax,%ax
  104d6c:	8a 56 02             	mov    0x2(%esi),%dl
  104d6f:	89 ce                	mov    %ecx,%esi
  104d71:	88 45 e4             	mov    %al,-0x1c(%ebp)
  104d74:	0f be c2             	movsbl %dl,%eax
  104d77:	eb dc                	jmp    104d55 <vprintk+0x55>
  104d79:	8d 76 00             	lea    0x0(%esi),%esi
  104d7c:	8b 45 08             	mov    0x8(%ebp),%eax
  104d7f:	85 c0                	test   %eax,%eax
  104d81:	0f 84 84 01 00 00    	je     104f0b <vprintk+0x20b>
  104d87:	c6 00 30             	movb   $0x30,(%eax)
  104d8a:	8b 45 08             	mov    0x8(%ebp),%eax
  104d8d:	40                   	inc    %eax
  104d8e:	89 45 08             	mov    %eax,0x8(%ebp)
  104d91:	85 c0                	test   %eax,%eax
  104d93:	0f 84 87 01 00 00    	je     104f20 <vprintk+0x220>
  104d99:	c6 00 78             	movb   $0x78,(%eax)
  104d9c:	ff 45 08             	incl   0x8(%ebp)
  104d9f:	8b 45 10             	mov    0x10(%ebp),%eax
  104da2:	8b 10                	mov    (%eax),%edx
  104da4:	83 c0 04             	add    $0x4,%eax
  104da7:	89 45 10             	mov    %eax,0x10(%ebp)
  104daa:	b9 2b 00 00 00       	mov    $0x2b,%ecx
  104daf:	c7 45 e0 10 00 00 00 	movl   $0x10,-0x20(%ebp)
  104db6:	83 ec 08             	sub    $0x8,%esp
  104db9:	8d 45 08             	lea    0x8(%ebp),%eax
  104dbc:	50                   	push   %eax
  104dbd:	0f be 45 e4          	movsbl -0x1c(%ebp),%eax
  104dc1:	50                   	push   %eax
  104dc2:	51                   	push   %ecx
  104dc3:	53                   	push   %ebx
  104dc4:	ff 75 e0             	pushl  -0x20(%ebp)
  104dc7:	52                   	push   %edx
  104dc8:	e8 6b fd ff ff       	call   104b38 <printdec>
  104dcd:	01 c7                	add    %eax,%edi
  104dcf:	83 c4 20             	add    $0x20,%esp
  104dd2:	83 c6 02             	add    $0x2,%esi
  104dd5:	e9 34 ff ff ff       	jmp    104d0e <vprintk+0xe>
  104dda:	66 90                	xchg   %ax,%ax
  104ddc:	8b 45 10             	mov    0x10(%ebp),%eax
  104ddf:	83 c0 04             	add    $0x4,%eax
  104de2:	8b 4d 10             	mov    0x10(%ebp),%ecx
  104de5:	8b 11                	mov    (%ecx),%edx
  104de7:	85 d2                	test   %edx,%edx
  104de9:	0f 88 df 00 00 00    	js     104ece <vprintk+0x1ce>
  104def:	89 45 10             	mov    %eax,0x10(%ebp)
  104df2:	b9 2b 00 00 00       	mov    $0x2b,%ecx
  104df7:	c7 45 e0 0a 00 00 00 	movl   $0xa,-0x20(%ebp)
  104dfe:	eb b6                	jmp    104db6 <vprintk+0xb6>
  104e00:	8b 45 10             	mov    0x10(%ebp),%eax
  104e03:	8d 58 04             	lea    0x4(%eax),%ebx
  104e06:	8b 10                	mov    (%eax),%edx
  104e08:	8b 45 08             	mov    0x8(%ebp),%eax
  104e0b:	85 c0                	test   %eax,%eax
  104e0d:	0f 84 e4 00 00 00    	je     104ef7 <vprintk+0x1f7>
  104e13:	88 10                	mov    %dl,(%eax)
  104e15:	ff 45 08             	incl   0x8(%ebp)
  104e18:	47                   	inc    %edi
  104e19:	89 5d 10             	mov    %ebx,0x10(%ebp)
  104e1c:	eb b4                	jmp    104dd2 <vprintk+0xd2>
  104e1e:	66 90                	xchg   %ax,%ax
  104e20:	83 c6 02             	add    $0x2,%esi
  104e23:	31 db                	xor    %ebx,%ebx
  104e25:	eb 03                	jmp    104e2a <vprintk+0x12a>
  104e27:	90                   	nop
  104e28:	89 d6                	mov    %edx,%esi
  104e2a:	8d 14 9b             	lea    (%ebx,%ebx,4),%edx
  104e2d:	01 d2                	add    %edx,%edx
  104e2f:	8d 5c 02 d0          	lea    -0x30(%edx,%eax,1),%ebx
  104e33:	8d 56 01             	lea    0x1(%esi),%edx
  104e36:	0f be 42 ff          	movsbl -0x1(%edx),%eax
  104e3a:	8d 48 d0             	lea    -0x30(%eax),%ecx
  104e3d:	80 f9 09             	cmp    $0x9,%cl
  104e40:	76 e6                	jbe    104e28 <vprintk+0x128>
  104e42:	4e                   	dec    %esi
  104e43:	e9 0d ff ff ff       	jmp    104d55 <vprintk+0x55>
  104e48:	8b 45 10             	mov    0x10(%ebp),%eax
  104e4b:	83 c0 04             	add    $0x4,%eax
  104e4e:	89 45 e4             	mov    %eax,-0x1c(%ebp)
  104e51:	8b 4d 10             	mov    0x10(%ebp),%ecx
  104e54:	8b 19                	mov    (%ecx),%ebx
  104e56:	83 ec 08             	sub    $0x8,%esp
  104e59:	8d 45 08             	lea    0x8(%ebp),%eax
  104e5c:	50                   	push   %eax
  104e5d:	53                   	push   %ebx
  104e5e:	e8 61 fe ff ff       	call   104cc4 <printstr>
  104e63:	89 1c 24             	mov    %ebx,(%esp)
  104e66:	e8 e1 00 00 00       	call   104f4c <strlen>
  104e6b:	01 c7                	add    %eax,%edi
  104e6d:	83 c4 10             	add    $0x10,%esp
  104e70:	8b 45 e4             	mov    -0x1c(%ebp),%eax
  104e73:	89 45 10             	mov    %eax,0x10(%ebp)
  104e76:	e9 57 ff ff ff       	jmp    104dd2 <vprintk+0xd2>
  104e7b:	90                   	nop
  104e7c:	8b 45 10             	mov    0x10(%ebp),%eax
  104e7f:	8b 18                	mov    (%eax),%ebx
  104e81:	0f be 46 02          	movsbl 0x2(%esi),%eax
  104e85:	8b 75 10             	mov    0x10(%ebp),%esi
  104e88:	83 c6 04             	add    $0x4,%esi
  104e8b:	89 75 10             	mov    %esi,0x10(%ebp)
  104e8e:	89 ce                	mov    %ecx,%esi
  104e90:	e9 c0 fe ff ff       	jmp    104d55 <vprintk+0x55>
  104e95:	8d 76 00             	lea    0x0(%esi),%esi
  104e98:	8b 45 08             	mov    0x8(%ebp),%eax
  104e9b:	85 c0                	test   %eax,%eax
  104e9d:	74 45                	je     104ee4 <vprintk+0x1e4>
  104e9f:	c6 00 25             	movb   $0x25,(%eax)
  104ea2:	ff 45 08             	incl   0x8(%ebp)
  104ea5:	47                   	inc    %edi
  104ea6:	e9 27 ff ff ff       	jmp    104dd2 <vprintk+0xd2>
  104eab:	90                   	nop
  104eac:	8b 45 10             	mov    0x10(%ebp),%eax
  104eaf:	8b 10                	mov    (%eax),%edx
  104eb1:	83 c0 04             	add    $0x4,%eax
  104eb4:	e9 36 ff ff ff       	jmp    104def <vprintk+0xef>
  104eb9:	8d 76 00             	lea    0x0(%esi),%esi
  104ebc:	83 ec 0c             	sub    $0xc,%esp
  104ebf:	50                   	push   %eax
  104ec0:	e8 4b b1 ff ff       	call   100010 <_putc>
  104ec5:	83 c4 10             	add    $0x10,%esp
  104ec8:	47                   	inc    %edi
  104ec9:	e9 5d fe ff ff       	jmp    104d2b <vprintk+0x2b>
  104ece:	f7 da                	neg    %edx
  104ed0:	89 45 10             	mov    %eax,0x10(%ebp)
  104ed3:	b9 2d 00 00 00       	mov    $0x2d,%ecx
  104ed8:	c7 45 e0 0a 00 00 00 	movl   $0xa,-0x20(%ebp)
  104edf:	e9 d2 fe ff ff       	jmp    104db6 <vprintk+0xb6>
  104ee4:	83 ec 0c             	sub    $0xc,%esp
  104ee7:	6a 25                	push   $0x25
  104ee9:	e8 22 b1 ff ff       	call   100010 <_putc>
  104eee:	83 c4 10             	add    $0x10,%esp
  104ef1:	47                   	inc    %edi
  104ef2:	e9 db fe ff ff       	jmp    104dd2 <vprintk+0xd2>
  104ef7:	83 ec 0c             	sub    $0xc,%esp
  104efa:	0f be d2             	movsbl %dl,%edx
  104efd:	52                   	push   %edx
  104efe:	e8 0d b1 ff ff       	call   100010 <_putc>
  104f03:	83 c4 10             	add    $0x10,%esp
  104f06:	e9 0d ff ff ff       	jmp    104e18 <vprintk+0x118>
  104f0b:	83 ec 0c             	sub    $0xc,%esp
  104f0e:	6a 30                	push   $0x30
  104f10:	e8 fb b0 ff ff       	call   100010 <_putc>
  104f15:	8b 45 08             	mov    0x8(%ebp),%eax
  104f18:	83 c4 10             	add    $0x10,%esp
  104f1b:	e9 71 fe ff ff       	jmp    104d91 <vprintk+0x91>
  104f20:	83 ec 0c             	sub    $0xc,%esp
  104f23:	6a 78                	push   $0x78
  104f25:	e8 e6 b0 ff ff       	call   100010 <_putc>
  104f2a:	83 c4 10             	add    $0x10,%esp
  104f2d:	e9 6d fe ff ff       	jmp    104d9f <vprintk+0x9f>
  104f32:	66 90                	xchg   %ax,%ax

00104f34 <printf>:
  104f34:	55                   	push   %ebp
  104f35:	89 e5                	mov    %esp,%ebp
  104f37:	83 ec 0c             	sub    $0xc,%esp
  104f3a:	8d 45 0c             	lea    0xc(%ebp),%eax
  104f3d:	50                   	push   %eax
  104f3e:	ff 75 08             	pushl  0x8(%ebp)
  104f41:	6a 00                	push   $0x0
  104f43:	e8 b8 fd ff ff       	call   104d00 <vprintk>
  104f48:	c9                   	leave  
  104f49:	c3                   	ret    
  104f4a:	66 90                	xchg   %ax,%ax

00104f4c <strlen>:
  104f4c:	55                   	push   %ebp
  104f4d:	89 e5                	mov    %esp,%ebp
  104f4f:	8b 55 08             	mov    0x8(%ebp),%edx
  104f52:	31 c0                	xor    %eax,%eax
  104f54:	80 3a 00             	cmpb   $0x0,(%edx)
  104f57:	74 0a                	je     104f63 <strlen+0x17>
  104f59:	8d 76 00             	lea    0x0(%esi),%esi
  104f5c:	40                   	inc    %eax
  104f5d:	80 3c 02 00          	cmpb   $0x0,(%edx,%eax,1)
  104f61:	75 f9                	jne    104f5c <strlen+0x10>
  104f63:	5d                   	pop    %ebp
  104f64:	c3                   	ret    
  104f65:	66 90                	xchg   %ax,%ax
  104f67:	90                   	nop

00104f68 <_ioe_init>:
  104f68:	55                   	push   %ebp
  104f69:	89 e5                	mov    %esp,%ebp
  104f6b:	ba 48 00 00 00       	mov    $0x48,%edx
  104f70:	ed                   	in     (%dx),%eax
  104f71:	a3 b0 5a 10 00       	mov    %eax,0x105ab0
  104f76:	5d                   	pop    %ebp
  104f77:	c3                   	ret    

00104f78 <_uptime>:
  104f78:	55                   	push   %ebp
  104f79:	89 e5                	mov    %esp,%ebp
  104f7b:	ba 48 00 00 00       	mov    $0x48,%edx
  104f80:	ed                   	in     (%dx),%eax
  104f81:	2b 05 b0 5a 10 00    	sub    0x105ab0,%eax
  104f87:	5d                   	pop    %ebp
  104f88:	c3                   	ret    
