
/home/user/ics2017/ics2017/nexus-am/tests/cputest/build/bubble-sort-x86-nemu：     文件格式 elf32-i386


Disassembly of section .text:

00100000 <_start>:
  100000:	bd 00 00 00 00       	mov    $0x0,%ebp
  100005:	bc 00 7c 00 00       	mov    $0x7c00,%esp
  10000a:	e8 0d 00 00 00       	call   10001c <_trm_init>
  10000f:	90                   	nop

00100010 <_halt>:
  100010:	55                   	push   %ebp
  100011:	89 e5                	mov    %esp,%ebp
  100013:	8b 45 08             	mov    0x8(%ebp),%eax
  100016:	d6                   	(bad)  
  100017:	eb fe                	jmp    100017 <_halt+0x7>
  100019:	66 90                	xchg   %ax,%ax
  10001b:	90                   	nop

0010001c <_trm_init>:
  10001c:	55                   	push   %ebp
  10001d:	89 e5                	mov    %esp,%ebp
  10001f:	56                   	push   %esi
  100020:	53                   	push   %ebx
  100021:	31 f6                	xor    %esi,%esi
  100023:	bb f9 03 00 00       	mov    $0x3f9,%ebx
  100028:	89 f0                	mov    %esi,%eax
  10002a:	89 da                	mov    %ebx,%edx
  10002c:	ee                   	out    %al,(%dx)
  10002d:	b9 fb 03 00 00       	mov    $0x3fb,%ecx
  100032:	b0 80                	mov    $0x80,%al
  100034:	89 ca                	mov    %ecx,%edx
  100036:	ee                   	out    %al,(%dx)
  100037:	b2 f8                	mov    $0xf8,%dl
  100039:	b0 01                	mov    $0x1,%al
  10003b:	ee                   	out    %al,(%dx)
  10003c:	89 f0                	mov    %esi,%eax
  10003e:	89 da                	mov    %ebx,%edx
  100040:	ee                   	out    %al,(%dx)
  100041:	b0 03                	mov    $0x3,%al
  100043:	89 ca                	mov    %ecx,%edx
  100045:	ee                   	out    %al,(%dx)
  100046:	b2 fa                	mov    $0xfa,%dl
  100048:	b0 c7                	mov    $0xc7,%al
  10004a:	ee                   	out    %al,(%dx)
  10004b:	b2 fc                	mov    $0xfc,%dl
  10004d:	b0 0b                	mov    $0xb,%al
  10004f:	ee                   	out    %al,(%dx)
  100050:	e8 63 00 00 00       	call   1000b8 <main>
  100055:	d6                   	(bad)  
  100056:	eb fe                	jmp    100056 <_trm_init+0x3a>

00100058 <nemu_assert>:
  100058:	55                   	push   %ebp
  100059:	89 e5                	mov    %esp,%ebp
  10005b:	8b 45 08             	mov    0x8(%ebp),%eax
  10005e:	85 c0                	test   %eax,%eax
  100060:	74 02                	je     100064 <nemu_assert+0xc>
  100062:	5d                   	pop    %ebp
  100063:	c3                   	ret    
  100064:	c7 45 08 01 00 00 00 	movl   $0x1,0x8(%ebp)
  10006b:	5d                   	pop    %ebp
  10006c:	e9 9f ff ff ff       	jmp    100010 <_halt>
  100071:	8d 76 00             	lea    0x0(%esi),%esi

00100074 <bubble_sort>:
  100074:	55                   	push   %ebp
  100075:	89 e5                	mov    %esp,%ebp
  100077:	53                   	push   %ebx
  100078:	bb 13 00 00 00       	mov    $0x13,%ebx
  10007d:	8d 76 00             	lea    0x0(%esi),%esi
  100080:	31 c0                	xor    %eax,%eax
  100082:	66 90                	xchg   %ax,%ax
  100084:	39 d8                	cmp    %ebx,%eax
  100086:	7d 25                	jge    1000ad <bubble_sort+0x39>
  100088:	8b 14 85 40 01 10 00 	mov    0x100140(,%eax,4),%edx
  10008f:	40                   	inc    %eax
  100090:	8b 0c 85 40 01 10 00 	mov    0x100140(,%eax,4),%ecx
  100097:	39 ca                	cmp    %ecx,%edx
  100099:	7e e9                	jle    100084 <bubble_sort+0x10>
  10009b:	89 0c 85 3c 01 10 00 	mov    %ecx,0x10013c(,%eax,4)
  1000a2:	89 14 85 40 01 10 00 	mov    %edx,0x100140(,%eax,4)
  1000a9:	39 d8                	cmp    %ebx,%eax
  1000ab:	7c db                	jl     100088 <bubble_sort+0x14>
  1000ad:	4b                   	dec    %ebx
  1000ae:	83 fb ff             	cmp    $0xffffffff,%ebx
  1000b1:	75 cd                	jne    100080 <bubble_sort+0xc>
  1000b3:	5b                   	pop    %ebx
  1000b4:	5d                   	pop    %ebp
  1000b5:	c3                   	ret    
  1000b6:	66 90                	xchg   %ax,%ax

001000b8 <main>:
  1000b8:	55                   	push   %ebp
  1000b9:	89 e5                	mov    %esp,%ebp
  1000bb:	53                   	push   %ebx
  1000bc:	83 e4 f0             	and    $0xfffffff0,%esp
  1000bf:	83 ec 10             	sub    $0x10,%esp
  1000c2:	e8 ad ff ff ff       	call   100074 <bubble_sort>
  1000c7:	31 db                	xor    %ebx,%ebx
  1000c9:	8d 76 00             	lea    0x0(%esi),%esi
  1000cc:	31 c0                	xor    %eax,%eax
  1000ce:	39 1c 9d 40 01 10 00 	cmp    %ebx,0x100140(,%ebx,4)
  1000d5:	0f 94 c0             	sete   %al
  1000d8:	89 04 24             	mov    %eax,(%esp)
  1000db:	e8 78 ff ff ff       	call   100058 <nemu_assert>
  1000e0:	43                   	inc    %ebx
  1000e1:	83 fb 14             	cmp    $0x14,%ebx
  1000e4:	75 e6                	jne    1000cc <main+0x14>
  1000e6:	c7 04 24 01 00 00 00 	movl   $0x1,(%esp)
  1000ed:	e8 66 ff ff ff       	call   100058 <nemu_assert>
  1000f2:	e8 7d ff ff ff       	call   100074 <bubble_sort>
  1000f7:	30 db                	xor    %bl,%bl
  1000f9:	8d 76 00             	lea    0x0(%esi),%esi
  1000fc:	31 c0                	xor    %eax,%eax
  1000fe:	39 1c 9d 40 01 10 00 	cmp    %ebx,0x100140(,%ebx,4)
  100105:	0f 94 c0             	sete   %al
  100108:	89 04 24             	mov    %eax,(%esp)
  10010b:	e8 48 ff ff ff       	call   100058 <nemu_assert>
  100110:	43                   	inc    %ebx
  100111:	83 fb 14             	cmp    $0x14,%ebx
  100114:	75 e6                	jne    1000fc <main+0x44>
  100116:	c7 04 24 01 00 00 00 	movl   $0x1,(%esp)
  10011d:	e8 36 ff ff ff       	call   100058 <nemu_assert>
  100122:	31 c0                	xor    %eax,%eax
  100124:	8b 5d fc             	mov    -0x4(%ebp),%ebx
  100127:	c9                   	leave  
  100128:	c3                   	ret    
