
/home/user/ics2017/ics2017/nexus-am/tests/cputest/build/leap-year-x86-nemu：     文件格式 elf32-i386


Disassembly of section .text:

00100000 <_start>:
  100000:	bd 00 00 00 00       	mov    $0x0,%ebp
  100005:	bc 00 7c 00 00       	mov    $0x7c00,%esp
  10000a:	e8 0d 00 00 00       	call   10001c <_trm_init>
  10000f:	90                   	nop

00100010 <_halt>:
  100010:	55                   	push   %ebp
  100011:	89 e5                	mov    %esp,%ebp
  100013:	8b 45 08             	mov    0x8(%ebp),%eax
  100016:	d6                   	(bad)  
  100017:	eb fe                	jmp    100017 <_halt+0x7>
  100019:	66 90                	xchg   %ax,%ax
  10001b:	90                   	nop

0010001c <_trm_init>:
  10001c:	55                   	push   %ebp
  10001d:	89 e5                	mov    %esp,%ebp
  10001f:	56                   	push   %esi
  100020:	53                   	push   %ebx
  100021:	31 f6                	xor    %esi,%esi
  100023:	bb f9 03 00 00       	mov    $0x3f9,%ebx
  100028:	89 f0                	mov    %esi,%eax
  10002a:	89 da                	mov    %ebx,%edx
  10002c:	ee                   	out    %al,(%dx)
  10002d:	b9 fb 03 00 00       	mov    $0x3fb,%ecx
  100032:	b0 80                	mov    $0x80,%al
  100034:	89 ca                	mov    %ecx,%edx
  100036:	ee                   	out    %al,(%dx)
  100037:	b2 f8                	mov    $0xf8,%dl
  100039:	b0 01                	mov    $0x1,%al
  10003b:	ee                   	out    %al,(%dx)
  10003c:	89 f0                	mov    %esi,%eax
  10003e:	89 da                	mov    %ebx,%edx
  100040:	ee                   	out    %al,(%dx)
  100041:	b0 03                	mov    $0x3,%al
  100043:	89 ca                	mov    %ecx,%edx
  100045:	ee                   	out    %al,(%dx)
  100046:	b2 fa                	mov    $0xfa,%dl
  100048:	b0 c7                	mov    $0xc7,%al
  10004a:	ee                   	out    %al,(%dx)
  10004b:	b2 fc                	mov    $0xfc,%dl
  10004d:	b0 0b                	mov    $0xb,%al
  10004f:	ee                   	out    %al,(%dx)
  100050:	e8 53 00 00 00       	call   1000a8 <main>
  100055:	d6                   	(bad)  
  100056:	eb fe                	jmp    100056 <_trm_init+0x3a>

00100058 <nemu_assert>:
  100058:	55                   	push   %ebp
  100059:	89 e5                	mov    %esp,%ebp
  10005b:	8b 45 08             	mov    0x8(%ebp),%eax
  10005e:	85 c0                	test   %eax,%eax
  100060:	74 02                	je     100064 <nemu_assert+0xc>
  100062:	5d                   	pop    %ebp
  100063:	c3                   	ret    
  100064:	c7 45 08 01 00 00 00 	movl   $0x1,0x8(%ebp)
  10006b:	5d                   	pop    %ebp
  10006c:	e9 9f ff ff ff       	jmp    100010 <_halt>
  100071:	8d 76 00             	lea    0x0(%esi),%esi

00100074 <is_leap_year>:
  100074:	55                   	push   %ebp
  100075:	89 e5                	mov    %esp,%ebp
  100077:	f6 45 08 03          	testb  $0x3,0x8(%ebp)
  10007b:	75 0f                	jne    10008c <is_leap_year+0x18>
  10007d:	b9 64 00 00 00       	mov    $0x64,%ecx
  100082:	8b 45 08             	mov    0x8(%ebp),%eax
  100085:	99                   	cltd   
  100086:	f7 f9                	idiv   %ecx
  100088:	85 d2                	test   %edx,%edx
  10008a:	75 14                	jne    1000a0 <is_leap_year+0x2c>
  10008c:	b9 90 01 00 00       	mov    $0x190,%ecx
  100091:	8b 45 08             	mov    0x8(%ebp),%eax
  100094:	99                   	cltd   
  100095:	f7 f9                	idiv   %ecx
  100097:	31 c0                	xor    %eax,%eax
  100099:	85 d2                	test   %edx,%edx
  10009b:	0f 94 c0             	sete   %al
  10009e:	5d                   	pop    %ebp
  10009f:	c3                   	ret    
  1000a0:	b8 01 00 00 00       	mov    $0x1,%eax
  1000a5:	5d                   	pop    %ebp
  1000a6:	c3                   	ret    
  1000a7:	90                   	nop

001000a8 <main>:
  1000a8:	55                   	push   %ebp
  1000a9:	89 e5                	mov    %esp,%ebp
  1000ab:	57                   	push   %edi
  1000ac:	56                   	push   %esi
  1000ad:	53                   	push   %ebx
  1000ae:	83 e4 f0             	and    $0xfffffff0,%esp
  1000b1:	83 ec 10             	sub    $0x10,%esp
  1000b4:	bb 62 07 00 00       	mov    $0x762,%ebx
  1000b9:	be 90 01 00 00       	mov    $0x190,%esi
  1000be:	bf 64 00 00 00       	mov    $0x64,%edi
  1000c3:	eb 2f                	jmp    1000f4 <main+0x4c>
  1000c5:	8d 76 00             	lea    0x0(%esi),%esi
  1000c8:	89 d8                	mov    %ebx,%eax
  1000ca:	99                   	cltd   
  1000cb:	f7 ff                	idiv   %edi
  1000cd:	85 d2                	test   %edx,%edx
  1000cf:	74 28                	je     1000f9 <main+0x51>
  1000d1:	b8 01 00 00 00       	mov    $0x1,%eax
  1000d6:	39 04 9d 98 e3 0f 00 	cmp    %eax,0xfe398(,%ebx,4)
  1000dd:	0f 94 c0             	sete   %al
  1000e0:	0f b6 c0             	movzbl %al,%eax
  1000e3:	89 04 24             	mov    %eax,(%esp)
  1000e6:	e8 6d ff ff ff       	call   100058 <nemu_assert>
  1000eb:	43                   	inc    %ebx
  1000ec:	81 fb df 07 00 00    	cmp    $0x7df,%ebx
  1000f2:	74 14                	je     100108 <main+0x60>
  1000f4:	f6 c3 03             	test   $0x3,%bl
  1000f7:	74 cf                	je     1000c8 <main+0x20>
  1000f9:	89 d8                	mov    %ebx,%eax
  1000fb:	99                   	cltd   
  1000fc:	f7 fe                	idiv   %esi
  1000fe:	31 c0                	xor    %eax,%eax
  100100:	85 d2                	test   %edx,%edx
  100102:	0f 94 c0             	sete   %al
  100105:	eb cf                	jmp    1000d6 <main+0x2e>
  100107:	90                   	nop
  100108:	31 c0                	xor    %eax,%eax
  10010a:	8d 65 f4             	lea    -0xc(%ebp),%esp
  10010d:	5b                   	pop    %ebx
  10010e:	5e                   	pop    %esi
  10010f:	5f                   	pop    %edi
  100110:	5d                   	pop    %ebp
  100111:	c3                   	ret    
