
/home/user/ics2017/ics2017/nexus-am/tests/cputest/build/movsx-x86-nemu：     文件格式 elf32-i386


Disassembly of section .text:

00100000 <_start>:
  100000:	bd 00 00 00 00       	mov    $0x0,%ebp
  100005:	bc 00 7c 00 00       	mov    $0x7c00,%esp
  10000a:	e8 0d 00 00 00       	call   10001c <_trm_init>
  10000f:	90                   	nop

00100010 <_halt>:
  100010:	55                   	push   %ebp
  100011:	89 e5                	mov    %esp,%ebp
  100013:	8b 45 08             	mov    0x8(%ebp),%eax
  100016:	d6                   	(bad)  
  100017:	eb fe                	jmp    100017 <_halt+0x7>
  100019:	66 90                	xchg   %ax,%ax
  10001b:	90                   	nop

0010001c <_trm_init>:
  10001c:	55                   	push   %ebp
  10001d:	89 e5                	mov    %esp,%ebp
  10001f:	56                   	push   %esi
  100020:	53                   	push   %ebx
  100021:	31 f6                	xor    %esi,%esi
  100023:	bb f9 03 00 00       	mov    $0x3f9,%ebx
  100028:	89 f0                	mov    %esi,%eax
  10002a:	89 da                	mov    %ebx,%edx
  10002c:	ee                   	out    %al,(%dx)
  10002d:	b9 fb 03 00 00       	mov    $0x3fb,%ecx
  100032:	b0 80                	mov    $0x80,%al
  100034:	89 ca                	mov    %ecx,%edx
  100036:	ee                   	out    %al,(%dx)
  100037:	b2 f8                	mov    $0xf8,%dl
  100039:	b0 01                	mov    $0x1,%al
  10003b:	ee                   	out    %al,(%dx)
  10003c:	89 f0                	mov    %esi,%eax
  10003e:	89 da                	mov    %ebx,%edx
  100040:	ee                   	out    %al,(%dx)
  100041:	b0 03                	mov    $0x3,%al
  100043:	89 ca                	mov    %ecx,%edx
  100045:	ee                   	out    %al,(%dx)
  100046:	b2 fa                	mov    $0xfa,%dl
  100048:	b0 c7                	mov    $0xc7,%al
  10004a:	ee                   	out    %al,(%dx)
  10004b:	b2 fc                	mov    $0xfc,%dl
  10004d:	b0 0b                	mov    $0xb,%al
  10004f:	ee                   	out    %al,(%dx)
  100050:	e8 1f 00 00 00       	call   100074 <main>
  100055:	d6                   	(bad)  
  100056:	eb fe                	jmp    100056 <_trm_init+0x3a>

00100058 <nemu_assert>:
  100058:	55                   	push   %ebp
  100059:	89 e5                	mov    %esp,%ebp
  10005b:	8b 45 08             	mov    0x8(%ebp),%eax
  10005e:	85 c0                	test   %eax,%eax
  100060:	74 02                	je     100064 <nemu_assert+0xc>
  100062:	5d                   	pop    %ebp
  100063:	c3                   	ret    
  100064:	c7 45 08 01 00 00 00 	movl   $0x1,0x8(%ebp)
  10006b:	5d                   	pop    %ebp
  10006c:	e9 9f ff ff ff       	jmp    100010 <_halt>
  100071:	66 90                	xchg   %ax,%ax
  100073:	90                   	nop

00100074 <main>:
  100074:	55                   	push   %ebp
  100075:	89 e5                	mov    %esp,%ebp
  100077:	83 e4 f0             	and    $0xfffffff0,%esp
  10007a:	83 ec 10             	sub    $0x10,%esp
  10007d:	c7 05 00 02 10 00 00 	movl   $0x0,0x100200
  100084:	00 00 00 
  100087:	c7 05 04 02 10 00 01 	movl   $0x1,0x100204
  10008e:	00 00 00 
  100091:	c7 05 08 02 10 00 02 	movl   $0x2,0x100208
  100098:	00 00 00 
  10009b:	c7 05 0c 02 10 00 03 	movl   $0x3,0x10020c
  1000a2:	00 00 00 
  1000a5:	c7 05 10 02 10 00 04 	movl   $0x4,0x100210
  1000ac:	00 00 00 
  1000af:	c7 05 e0 01 10 00 03 	movl   $0x3,0x1001e0
  1000b6:	00 00 00 
  1000b9:	c7 05 14 02 10 00 03 	movl   $0x3,0x100214
  1000c0:	00 00 00 
  1000c3:	c6 05 28 02 10 00 61 	movb   $0x61,0x100228
  1000ca:	c7 04 24 01 00 00 00 	movl   $0x1,(%esp)
  1000d1:	e8 82 ff ff ff       	call   100058 <nemu_assert>
  1000d6:	a0 28 02 10 00       	mov    0x100228,%al
  1000db:	a2 29 02 10 00       	mov    %al,0x100229
  1000e0:	3c 61                	cmp    $0x61,%al
  1000e2:	0f 94 c0             	sete   %al
  1000e5:	0f b6 c0             	movzbl %al,%eax
  1000e8:	89 04 24             	mov    %eax,(%esp)
  1000eb:	e8 68 ff ff ff       	call   100058 <nemu_assert>
  1000f0:	0f be 05 28 02 10 00 	movsbl 0x100228,%eax
  1000f7:	a3 00 02 10 00       	mov    %eax,0x100200
  1000fc:	83 f8 61             	cmp    $0x61,%eax
  1000ff:	0f 94 c0             	sete   %al
  100102:	0f b6 c0             	movzbl %al,%eax
  100105:	89 04 24             	mov    %eax,(%esp)
  100108:	e8 4b ff ff ff       	call   100058 <nemu_assert>
  10010d:	c6 05 29 02 10 00 80 	movb   $0x80,0x100229
  100114:	c7 05 00 02 10 00 80 	movl   $0xffffff80,0x100200
  10011b:	ff ff ff 
  10011e:	31 c0                	xor    %eax,%eax
  100120:	83 3d 04 02 10 00 01 	cmpl   $0x1,0x100204
  100127:	0f 94 c0             	sete   %al
  10012a:	89 04 24             	mov    %eax,(%esp)
  10012d:	e8 26 ff ff ff       	call   100058 <nemu_assert>
  100132:	31 c0                	xor    %eax,%eax
  100134:	83 3d 08 02 10 00 02 	cmpl   $0x2,0x100208
  10013b:	0f 94 c0             	sete   %al
  10013e:	89 04 24             	mov    %eax,(%esp)
  100141:	e8 12 ff ff ff       	call   100058 <nemu_assert>
  100146:	31 c0                	xor    %eax,%eax
  100148:	83 3d 0c 02 10 00 03 	cmpl   $0x3,0x10020c
  10014f:	0f 94 c0             	sete   %al
  100152:	89 04 24             	mov    %eax,(%esp)
  100155:	e8 fe fe ff ff       	call   100058 <nemu_assert>
  10015a:	31 c0                	xor    %eax,%eax
  10015c:	83 3d 10 02 10 00 04 	cmpl   $0x4,0x100210
  100163:	0f 94 c0             	sete   %al
  100166:	89 04 24             	mov    %eax,(%esp)
  100169:	e8 ea fe ff ff       	call   100058 <nemu_assert>
  10016e:	31 c0                	xor    %eax,%eax
  100170:	83 3d e0 01 10 00 03 	cmpl   $0x3,0x1001e0
  100177:	0f 94 c0             	sete   %al
  10017a:	89 04 24             	mov    %eax,(%esp)
  10017d:	e8 d6 fe ff ff       	call   100058 <nemu_assert>
  100182:	31 c0                	xor    %eax,%eax
  100184:	83 3d 14 02 10 00 03 	cmpl   $0x3,0x100214
  10018b:	0f 94 c0             	sete   %al
  10018e:	89 04 24             	mov    %eax,(%esp)
  100191:	e8 c2 fe ff ff       	call   100058 <nemu_assert>
  100196:	31 c0                	xor    %eax,%eax
  100198:	80 3d 29 02 10 00 80 	cmpb   $0x80,0x100229
  10019f:	0f 94 c0             	sete   %al
  1001a2:	89 04 24             	mov    %eax,(%esp)
  1001a5:	e8 ae fe ff ff       	call   100058 <nemu_assert>
  1001aa:	31 c0                	xor    %eax,%eax
  1001ac:	83 3d 00 02 10 00 80 	cmpl   $0xffffff80,0x100200
  1001b3:	0f 94 c0             	sete   %al
  1001b6:	89 04 24             	mov    %eax,(%esp)
  1001b9:	e8 9a fe ff ff       	call   100058 <nemu_assert>
  1001be:	31 c0                	xor    %eax,%eax
  1001c0:	c9                   	leave  
  1001c1:	c3                   	ret    
