
/home/user/ics2017/ics2017/nexus-am/tests/cputest/build/quick-sort-x86-nemu：     文件格式 elf32-i386


Disassembly of section .text:

00100000 <_start>:
  100000:	bd 00 00 00 00       	mov    $0x0,%ebp
  100005:	bc 00 7c 00 00       	mov    $0x7c00,%esp
  10000a:	e8 0d 00 00 00       	call   10001c <_trm_init>
  10000f:	90                   	nop

00100010 <_halt>:
  100010:	55                   	push   %ebp
  100011:	89 e5                	mov    %esp,%ebp
  100013:	8b 45 08             	mov    0x8(%ebp),%eax
  100016:	d6                   	(bad)  
  100017:	eb fe                	jmp    100017 <_halt+0x7>
  100019:	66 90                	xchg   %ax,%ax
  10001b:	90                   	nop

0010001c <_trm_init>:
  10001c:	55                   	push   %ebp
  10001d:	89 e5                	mov    %esp,%ebp
  10001f:	56                   	push   %esi
  100020:	53                   	push   %ebx
  100021:	31 f6                	xor    %esi,%esi
  100023:	bb f9 03 00 00       	mov    $0x3f9,%ebx
  100028:	89 f0                	mov    %esi,%eax
  10002a:	89 da                	mov    %ebx,%edx
  10002c:	ee                   	out    %al,(%dx)
  10002d:	b9 fb 03 00 00       	mov    $0x3fb,%ecx
  100032:	b0 80                	mov    $0x80,%al
  100034:	89 ca                	mov    %ecx,%edx
  100036:	ee                   	out    %al,(%dx)
  100037:	b2 f8                	mov    $0xf8,%dl
  100039:	b0 01                	mov    $0x1,%al
  10003b:	ee                   	out    %al,(%dx)
  10003c:	89 f0                	mov    %esi,%eax
  10003e:	89 da                	mov    %ebx,%edx
  100040:	ee                   	out    %al,(%dx)
  100041:	b0 03                	mov    $0x3,%al
  100043:	89 ca                	mov    %ecx,%edx
  100045:	ee                   	out    %al,(%dx)
  100046:	b2 fa                	mov    $0xfa,%dl
  100048:	b0 c7                	mov    $0xc7,%al
  10004a:	ee                   	out    %al,(%dx)
  10004b:	b2 fc                	mov    $0xfc,%dl
  10004d:	b0 0b                	mov    $0xb,%al
  10004f:	ee                   	out    %al,(%dx)
  100050:	e8 eb 00 00 00       	call   100140 <main>
  100055:	d6                   	(bad)  
  100056:	eb fe                	jmp    100056 <_trm_init+0x3a>

00100058 <nemu_assert>:
  100058:	55                   	push   %ebp
  100059:	89 e5                	mov    %esp,%ebp
  10005b:	8b 45 08             	mov    0x8(%ebp),%eax
  10005e:	85 c0                	test   %eax,%eax
  100060:	74 02                	je     100064 <nemu_assert+0xc>
  100062:	5d                   	pop    %ebp
  100063:	c3                   	ret    
  100064:	c7 45 08 01 00 00 00 	movl   $0x1,0x8(%ebp)
  10006b:	5d                   	pop    %ebp
  10006c:	e9 9f ff ff ff       	jmp    100010 <_halt>
  100071:	8d 76 00             	lea    0x0(%esi),%esi

00100074 <partition>:
  100074:	55                   	push   %ebp
  100075:	89 e5                	mov    %esp,%ebp
  100077:	57                   	push   %edi
  100078:	56                   	push   %esi
  100079:	53                   	push   %ebx
  10007a:	83 ec 08             	sub    $0x8,%esp
  10007d:	8b 5d 08             	mov    0x8(%ebp),%ebx
  100080:	8b 45 0c             	mov    0xc(%ebp),%eax
  100083:	8b 55 10             	mov    0x10(%ebp),%edx
  100086:	8d 3c 83             	lea    (%ebx,%eax,4),%edi
  100089:	8b 37                	mov    (%edi),%esi
  10008b:	39 d0                	cmp    %edx,%eax
  10008d:	7d 1f                	jge    1000ae <partition+0x3a>
  10008f:	90                   	nop
  100090:	8b 0c 93             	mov    (%ebx,%edx,4),%ecx
  100093:	39 ce                	cmp    %ecx,%esi
  100095:	7d 21                	jge    1000b8 <partition+0x44>
  100097:	4a                   	dec    %edx
  100098:	39 c2                	cmp    %eax,%edx
  10009a:	7f f4                	jg     100090 <partition+0x1c>
  10009c:	8d 3c 83             	lea    (%ebx,%eax,4),%edi
  10009f:	8d 1c 93             	lea    (%ebx,%edx,4),%ebx
  1000a2:	89 5d f0             	mov    %ebx,-0x10(%ebp)
  1000a5:	8b 0b                	mov    (%ebx),%ecx
  1000a7:	89 0f                	mov    %ecx,(%edi)
  1000a9:	8b 5d f0             	mov    -0x10(%ebp),%ebx
  1000ac:	89 0b                	mov    %ecx,(%ebx)
  1000ae:	89 37                	mov    %esi,(%edi)
  1000b0:	83 c4 08             	add    $0x8,%esp
  1000b3:	5b                   	pop    %ebx
  1000b4:	5e                   	pop    %esi
  1000b5:	5f                   	pop    %edi
  1000b6:	5d                   	pop    %ebp
  1000b7:	c3                   	ret    
  1000b8:	8d 3c 83             	lea    (%ebx,%eax,4),%edi
  1000bb:	89 7d ec             	mov    %edi,-0x14(%ebp)
  1000be:	8d 3c 93             	lea    (%ebx,%edx,4),%edi
  1000c1:	89 7d f0             	mov    %edi,-0x10(%ebp)
  1000c4:	8b 7d ec             	mov    -0x14(%ebp),%edi
  1000c7:	89 0f                	mov    %ecx,(%edi)
  1000c9:	39 c2                	cmp    %eax,%edx
  1000cb:	7f 0a                	jg     1000d7 <partition+0x63>
  1000cd:	eb 1c                	jmp    1000eb <partition+0x77>
  1000cf:	90                   	nop
  1000d0:	8b 0c 83             	mov    (%ebx,%eax,4),%ecx
  1000d3:	39 ce                	cmp    %ecx,%esi
  1000d5:	7c 0d                	jl     1000e4 <partition+0x70>
  1000d7:	40                   	inc    %eax
  1000d8:	39 d0                	cmp    %edx,%eax
  1000da:	75 f4                	jne    1000d0 <partition+0x5c>
  1000dc:	8d 3c 83             	lea    (%ebx,%eax,4),%edi
  1000df:	8b 0f                	mov    (%edi),%ecx
  1000e1:	eb c6                	jmp    1000a9 <partition+0x35>
  1000e3:	90                   	nop
  1000e4:	8b 7d f0             	mov    -0x10(%ebp),%edi
  1000e7:	89 0f                	mov    %ecx,(%edi)
  1000e9:	eb a8                	jmp    100093 <partition+0x1f>
  1000eb:	8b 7d ec             	mov    -0x14(%ebp),%edi
  1000ee:	eb b9                	jmp    1000a9 <partition+0x35>

001000f0 <quick_sort>:
  1000f0:	55                   	push   %ebp
  1000f1:	89 e5                	mov    %esp,%ebp
  1000f3:	57                   	push   %edi
  1000f4:	56                   	push   %esi
  1000f5:	53                   	push   %ebx
  1000f6:	83 ec 1c             	sub    $0x1c,%esp
  1000f9:	8b 7d 08             	mov    0x8(%ebp),%edi
  1000fc:	8b 5d 0c             	mov    0xc(%ebp),%ebx
  1000ff:	8b 75 10             	mov    0x10(%ebp),%esi
  100102:	39 f3                	cmp    %esi,%ebx
  100104:	7d 32                	jge    100138 <quick_sort+0x48>
  100106:	66 90                	xchg   %ax,%ax
  100108:	89 74 24 08          	mov    %esi,0x8(%esp)
  10010c:	89 5c 24 04          	mov    %ebx,0x4(%esp)
  100110:	89 3c 24             	mov    %edi,(%esp)
  100113:	e8 5c ff ff ff       	call   100074 <partition>
  100118:	8d 50 ff             	lea    -0x1(%eax),%edx
  10011b:	89 45 e4             	mov    %eax,-0x1c(%ebp)
  10011e:	89 54 24 08          	mov    %edx,0x8(%esp)
  100122:	89 5c 24 04          	mov    %ebx,0x4(%esp)
  100126:	89 3c 24             	mov    %edi,(%esp)
  100129:	e8 c2 ff ff ff       	call   1000f0 <quick_sort>
  10012e:	8b 45 e4             	mov    -0x1c(%ebp),%eax
  100131:	8d 58 01             	lea    0x1(%eax),%ebx
  100134:	39 f3                	cmp    %esi,%ebx
  100136:	7c d0                	jl     100108 <quick_sort+0x18>
  100138:	83 c4 1c             	add    $0x1c,%esp
  10013b:	5b                   	pop    %ebx
  10013c:	5e                   	pop    %esi
  10013d:	5f                   	pop    %edi
  10013e:	5d                   	pop    %ebp
  10013f:	c3                   	ret    

00100140 <main>:
  100140:	55                   	push   %ebp
  100141:	89 e5                	mov    %esp,%ebp
  100143:	53                   	push   %ebx
  100144:	83 e4 f0             	and    $0xfffffff0,%esp
  100147:	83 ec 10             	sub    $0x10,%esp
  10014a:	c7 44 24 08 13 00 00 	movl   $0x13,0x8(%esp)
  100151:	00 
  100152:	c7 44 24 04 00 00 00 	movl   $0x0,0x4(%esp)
  100159:	00 
  10015a:	c7 04 24 e0 01 10 00 	movl   $0x1001e0,(%esp)
  100161:	e8 8a ff ff ff       	call   1000f0 <quick_sort>
  100166:	31 db                	xor    %ebx,%ebx
  100168:	31 c0                	xor    %eax,%eax
  10016a:	39 1c 9d e0 01 10 00 	cmp    %ebx,0x1001e0(,%ebx,4)
  100171:	0f 94 c0             	sete   %al
  100174:	89 04 24             	mov    %eax,(%esp)
  100177:	e8 dc fe ff ff       	call   100058 <nemu_assert>
  10017c:	43                   	inc    %ebx
  10017d:	83 fb 14             	cmp    $0x14,%ebx
  100180:	75 e6                	jne    100168 <main+0x28>
  100182:	c7 04 24 01 00 00 00 	movl   $0x1,(%esp)
  100189:	e8 ca fe ff ff       	call   100058 <nemu_assert>
  10018e:	c7 44 24 08 13 00 00 	movl   $0x13,0x8(%esp)
  100195:	00 
  100196:	c7 44 24 04 00 00 00 	movl   $0x0,0x4(%esp)
  10019d:	00 
  10019e:	c7 04 24 e0 01 10 00 	movl   $0x1001e0,(%esp)
  1001a5:	e8 46 ff ff ff       	call   1000f0 <quick_sort>
  1001aa:	30 db                	xor    %bl,%bl
  1001ac:	31 c0                	xor    %eax,%eax
  1001ae:	39 1c 9d e0 01 10 00 	cmp    %ebx,0x1001e0(,%ebx,4)
  1001b5:	0f 94 c0             	sete   %al
  1001b8:	89 04 24             	mov    %eax,(%esp)
  1001bb:	e8 98 fe ff ff       	call   100058 <nemu_assert>
  1001c0:	43                   	inc    %ebx
  1001c1:	83 fb 14             	cmp    $0x14,%ebx
  1001c4:	75 e6                	jne    1001ac <main+0x6c>
  1001c6:	c7 04 24 01 00 00 00 	movl   $0x1,(%esp)
  1001cd:	e8 86 fe ff ff       	call   100058 <nemu_assert>
  1001d2:	31 c0                	xor    %eax,%eax
  1001d4:	8b 5d fc             	mov    -0x4(%ebp),%ebx
  1001d7:	c9                   	leave  
  1001d8:	c3                   	ret    
