
/home/user/ics2017/ics2017/nexus-am/tests/cputest/build/recursion-x86-nemu：     文件格式 elf32-i386


Disassembly of section .text:

00100000 <_start>:
  100000:	bd 00 00 00 00       	mov    $0x0,%ebp
  100005:	bc 00 7c 00 00       	mov    $0x7c00,%esp
  10000a:	e8 0d 00 00 00       	call   10001c <_trm_init>
  10000f:	90                   	nop

00100010 <_halt>:
  100010:	55                   	push   %ebp
  100011:	89 e5                	mov    %esp,%ebp
  100013:	8b 45 08             	mov    0x8(%ebp),%eax
  100016:	d6                   	(bad)  
  100017:	eb fe                	jmp    100017 <_halt+0x7>
  100019:	66 90                	xchg   %ax,%ax
  10001b:	90                   	nop

0010001c <_trm_init>:
  10001c:	55                   	push   %ebp
  10001d:	89 e5                	mov    %esp,%ebp
  10001f:	56                   	push   %esi
  100020:	53                   	push   %ebx
  100021:	31 f6                	xor    %esi,%esi
  100023:	bb f9 03 00 00       	mov    $0x3f9,%ebx
  100028:	89 f0                	mov    %esi,%eax
  10002a:	89 da                	mov    %ebx,%edx
  10002c:	ee                   	out    %al,(%dx)
  10002d:	b9 fb 03 00 00       	mov    $0x3fb,%ecx
  100032:	b0 80                	mov    $0x80,%al
  100034:	89 ca                	mov    %ecx,%edx
  100036:	ee                   	out    %al,(%dx)
  100037:	b2 f8                	mov    $0xf8,%dl
  100039:	b0 01                	mov    $0x1,%al
  10003b:	ee                   	out    %al,(%dx)
  10003c:	89 f0                	mov    %esi,%eax
  10003e:	89 da                	mov    %ebx,%edx
  100040:	ee                   	out    %al,(%dx)
  100041:	b0 03                	mov    $0x3,%al
  100043:	89 ca                	mov    %ecx,%edx
  100045:	ee                   	out    %al,(%dx)
  100046:	b2 fa                	mov    $0xfa,%dl
  100048:	b0 c7                	mov    $0xc7,%al
  10004a:	ee                   	out    %al,(%dx)
  10004b:	b2 fc                	mov    $0xfc,%dl
  10004d:	b0 0b                	mov    $0xb,%al
  10004f:	ee                   	out    %al,(%dx)
  100050:	e8 4b 01 00 00       	call   1001a0 <main>
  100055:	d6                   	(bad)  
  100056:	eb fe                	jmp    100056 <_trm_init+0x3a>

00100058 <f0>:
  100058:	55                   	push   %ebp
  100059:	89 e5                	mov    %esp,%ebp
  10005b:	8b 4d 08             	mov    0x8(%ebp),%ecx
  10005e:	8b 45 0c             	mov    0xc(%ebp),%eax
  100061:	39 05 24 02 10 00    	cmp    %eax,0x100224
  100067:	7d 05                	jge    10006e <f0+0x16>
  100069:	a3 24 02 10 00       	mov    %eax,0x100224
  10006e:	ff 05 28 02 10 00    	incl   0x100228
  100074:	85 c9                	test   %ecx,%ecx
  100076:	7e 20                	jle    100098 <f0+0x40>
  100078:	40                   	inc    %eax
  100079:	89 45 0c             	mov    %eax,0xc(%ebp)
  10007c:	b8 56 55 55 55       	mov    $0x55555556,%eax
  100081:	f7 e9                	imul   %ecx
  100083:	c1 f9 1f             	sar    $0x1f,%ecx
  100086:	89 d0                	mov    %edx,%eax
  100088:	29 c8                	sub    %ecx,%eax
  10008a:	89 45 08             	mov    %eax,0x8(%ebp)
  10008d:	a1 20 02 10 00       	mov    0x100220,%eax
  100092:	5d                   	pop    %ebp
  100093:	ff e0                	jmp    *%eax
  100095:	8d 76 00             	lea    0x0(%esi),%esi
  100098:	b8 01 00 00 00       	mov    $0x1,%eax
  10009d:	5d                   	pop    %ebp
  10009e:	c3                   	ret    
  10009f:	90                   	nop

001000a0 <f1>:
  1000a0:	55                   	push   %ebp
  1000a1:	89 e5                	mov    %esp,%ebp
  1000a3:	8b 55 08             	mov    0x8(%ebp),%edx
  1000a6:	8b 45 0c             	mov    0xc(%ebp),%eax
  1000a9:	39 05 24 02 10 00    	cmp    %eax,0x100224
  1000af:	7d 05                	jge    1000b6 <f1+0x16>
  1000b1:	a3 24 02 10 00       	mov    %eax,0x100224
  1000b6:	ff 05 28 02 10 00    	incl   0x100228
  1000bc:	85 d2                	test   %edx,%edx
  1000be:	7e 10                	jle    1000d0 <f1+0x30>
  1000c0:	40                   	inc    %eax
  1000c1:	89 45 0c             	mov    %eax,0xc(%ebp)
  1000c4:	4a                   	dec    %edx
  1000c5:	89 55 08             	mov    %edx,0x8(%ebp)
  1000c8:	a1 14 02 10 00       	mov    0x100214,%eax
  1000cd:	5d                   	pop    %ebp
  1000ce:	ff e0                	jmp    *%eax
  1000d0:	b8 01 00 00 00       	mov    $0x1,%eax
  1000d5:	5d                   	pop    %ebp
  1000d6:	c3                   	ret    
  1000d7:	90                   	nop

001000d8 <f2>:
  1000d8:	55                   	push   %ebp
  1000d9:	89 e5                	mov    %esp,%ebp
  1000db:	83 ec 18             	sub    $0x18,%esp
  1000de:	8b 55 08             	mov    0x8(%ebp),%edx
  1000e1:	8b 45 0c             	mov    0xc(%ebp),%eax
  1000e4:	39 05 24 02 10 00    	cmp    %eax,0x100224
  1000ea:	7d 05                	jge    1000f1 <f2+0x19>
  1000ec:	a3 24 02 10 00       	mov    %eax,0x100224
  1000f1:	ff 05 28 02 10 00    	incl   0x100228
  1000f7:	85 d2                	test   %edx,%edx
  1000f9:	7e 15                	jle    100110 <f2+0x38>
  1000fb:	40                   	inc    %eax
  1000fc:	89 44 24 04          	mov    %eax,0x4(%esp)
  100100:	89 14 24             	mov    %edx,(%esp)
  100103:	ff 15 18 02 10 00    	call   *0x100218
  100109:	83 c0 09             	add    $0x9,%eax
  10010c:	c9                   	leave  
  10010d:	c3                   	ret    
  10010e:	66 90                	xchg   %ax,%ax
  100110:	b8 01 00 00 00       	mov    $0x1,%eax
  100115:	c9                   	leave  
  100116:	c3                   	ret    
  100117:	90                   	nop

00100118 <f3>:
  100118:	55                   	push   %ebp
  100119:	89 e5                	mov    %esp,%ebp
  10011b:	57                   	push   %edi
  10011c:	56                   	push   %esi
  10011d:	53                   	push   %ebx
  10011e:	83 ec 1c             	sub    $0x1c,%esp
  100121:	8b 55 08             	mov    0x8(%ebp),%edx
  100124:	8b 45 0c             	mov    0xc(%ebp),%eax
  100127:	39 05 24 02 10 00    	cmp    %eax,0x100224
  10012d:	7d 05                	jge    100134 <f3+0x1c>
  10012f:	a3 24 02 10 00       	mov    %eax,0x100224
  100134:	ff 05 28 02 10 00    	incl   0x100228
  10013a:	85 d2                	test   %edx,%edx
  10013c:	7e 36                	jle    100174 <f3+0x5c>
  10013e:	8d 78 01             	lea    0x1(%eax),%edi
  100141:	89 d6                	mov    %edx,%esi
  100143:	d1 fe                	sar    %esi
  100145:	89 7c 24 04          	mov    %edi,0x4(%esp)
  100149:	89 34 24             	mov    %esi,(%esp)
  10014c:	ff 15 1c 02 10 00    	call   *0x10021c
  100152:	89 c3                	mov    %eax,%ebx
  100154:	89 7c 24 04          	mov    %edi,0x4(%esp)
  100158:	89 34 24             	mov    %esi,(%esp)
  10015b:	ff 15 1c 02 10 00    	call   *0x10021c
  100161:	8d 14 1b             	lea    (%ebx,%ebx,1),%edx
  100164:	01 d3                	add    %edx,%ebx
  100166:	01 c0                	add    %eax,%eax
  100168:	01 d8                	add    %ebx,%eax
  10016a:	83 c4 1c             	add    $0x1c,%esp
  10016d:	5b                   	pop    %ebx
  10016e:	5e                   	pop    %esi
  10016f:	5f                   	pop    %edi
  100170:	5d                   	pop    %ebp
  100171:	c3                   	ret    
  100172:	66 90                	xchg   %ax,%ax
  100174:	b8 01 00 00 00       	mov    $0x1,%eax
  100179:	83 c4 1c             	add    $0x1c,%esp
  10017c:	5b                   	pop    %ebx
  10017d:	5e                   	pop    %esi
  10017e:	5f                   	pop    %edi
  10017f:	5d                   	pop    %ebp
  100180:	c3                   	ret    
  100181:	8d 76 00             	lea    0x0(%esi),%esi

00100184 <nemu_assert>:
  100184:	55                   	push   %ebp
  100185:	89 e5                	mov    %esp,%ebp
  100187:	8b 45 08             	mov    0x8(%ebp),%eax
  10018a:	85 c0                	test   %eax,%eax
  10018c:	74 02                	je     100190 <nemu_assert+0xc>
  10018e:	5d                   	pop    %ebp
  10018f:	c3                   	ret    
  100190:	c7 45 08 01 00 00 00 	movl   $0x1,0x8(%ebp)
  100197:	5d                   	pop    %ebp
  100198:	e9 73 fe ff ff       	jmp    100010 <_halt>
  10019d:	66 90                	xchg   %ax,%ax
  10019f:	90                   	nop

001001a0 <main>:
  1001a0:	55                   	push   %ebp
  1001a1:	89 e5                	mov    %esp,%ebp
  1001a3:	83 e4 f0             	and    $0xfffffff0,%esp
  1001a6:	83 ec 10             	sub    $0x10,%esp
  1001a9:	c7 44 24 04 00 00 00 	movl   $0x0,0x4(%esp)
  1001b0:	00 
  1001b1:	c7 04 24 23 38 00 00 	movl   $0x3823,(%esp)
  1001b8:	ff 15 14 02 10 00    	call   *0x100214
  1001be:	39 05 08 02 10 00    	cmp    %eax,0x100208
  1001c4:	0f 94 c0             	sete   %al
  1001c7:	0f b6 c0             	movzbl %al,%eax
  1001ca:	89 04 24             	mov    %eax,(%esp)
  1001cd:	e8 b2 ff ff ff       	call   100184 <nemu_assert>
  1001d2:	a1 28 02 10 00       	mov    0x100228,%eax
  1001d7:	39 05 0c 02 10 00    	cmp    %eax,0x10020c
  1001dd:	0f 94 c0             	sete   %al
  1001e0:	0f b6 c0             	movzbl %al,%eax
  1001e3:	89 04 24             	mov    %eax,(%esp)
  1001e6:	e8 99 ff ff ff       	call   100184 <nemu_assert>
  1001eb:	a1 24 02 10 00       	mov    0x100224,%eax
  1001f0:	39 05 10 02 10 00    	cmp    %eax,0x100210
  1001f6:	0f 94 c0             	sete   %al
  1001f9:	0f b6 c0             	movzbl %al,%eax
  1001fc:	89 04 24             	mov    %eax,(%esp)
  1001ff:	e8 80 ff ff ff       	call   100184 <nemu_assert>
  100204:	31 c0                	xor    %eax,%eax
  100206:	c9                   	leave  
  100207:	c3                   	ret    
