
/home/user/ics2017/ics2017/nexus-am/tests/cputest/build/shift-x86-nemu：     文件格式 elf32-i386


Disassembly of section .text:

00100000 <_start>:
  100000:	bd 00 00 00 00       	mov    $0x0,%ebp
  100005:	bc 00 7c 00 00       	mov    $0x7c00,%esp
  10000a:	e8 0d 00 00 00       	call   10001c <_trm_init>
  10000f:	90                   	nop

00100010 <_halt>:
  100010:	55                   	push   %ebp
  100011:	89 e5                	mov    %esp,%ebp
  100013:	8b 45 08             	mov    0x8(%ebp),%eax
  100016:	d6                   	(bad)  
  100017:	eb fe                	jmp    100017 <_halt+0x7>
  100019:	66 90                	xchg   %ax,%ax
  10001b:	90                   	nop

0010001c <_trm_init>:
  10001c:	55                   	push   %ebp
  10001d:	89 e5                	mov    %esp,%ebp
  10001f:	56                   	push   %esi
  100020:	53                   	push   %ebx
  100021:	31 f6                	xor    %esi,%esi
  100023:	bb f9 03 00 00       	mov    $0x3f9,%ebx
  100028:	89 f0                	mov    %esi,%eax
  10002a:	89 da                	mov    %ebx,%edx
  10002c:	ee                   	out    %al,(%dx)
  10002d:	b9 fb 03 00 00       	mov    $0x3fb,%ecx
  100032:	b0 80                	mov    $0x80,%al
  100034:	89 ca                	mov    %ecx,%edx
  100036:	ee                   	out    %al,(%dx)
  100037:	b2 f8                	mov    $0xf8,%dl
  100039:	b0 01                	mov    $0x1,%al
  10003b:	ee                   	out    %al,(%dx)
  10003c:	89 f0                	mov    %esi,%eax
  10003e:	89 da                	mov    %ebx,%edx
  100040:	ee                   	out    %al,(%dx)
  100041:	b0 03                	mov    $0x3,%al
  100043:	89 ca                	mov    %ecx,%edx
  100045:	ee                   	out    %al,(%dx)
  100046:	b2 fa                	mov    $0xfa,%dl
  100048:	b0 c7                	mov    $0xc7,%al
  10004a:	ee                   	out    %al,(%dx)
  10004b:	b2 fc                	mov    $0xfc,%dl
  10004d:	b0 0b                	mov    $0xb,%al
  10004f:	ee                   	out    %al,(%dx)
  100050:	e8 1f 00 00 00       	call   100074 <main>
  100055:	d6                   	(bad)  
  100056:	eb fe                	jmp    100056 <_trm_init+0x3a>

00100058 <nemu_assert>:
  100058:	55                   	push   %ebp
  100059:	89 e5                	mov    %esp,%ebp
  10005b:	8b 45 08             	mov    0x8(%ebp),%eax
  10005e:	85 c0                	test   %eax,%eax
  100060:	74 02                	je     100064 <nemu_assert+0xc>
  100062:	5d                   	pop    %ebp
  100063:	c3                   	ret    
  100064:	c7 45 08 01 00 00 00 	movl   $0x1,0x8(%ebp)
  10006b:	5d                   	pop    %ebp
  10006c:	e9 9f ff ff ff       	jmp    100010 <_halt>
  100071:	66 90                	xchg   %ax,%ax
  100073:	90                   	nop

00100074 <main>:
  100074:	55                   	push   %ebp
  100075:	89 e5                	mov    %esp,%ebp
  100077:	53                   	push   %ebx
  100078:	83 e4 f0             	and    $0xfffffff0,%esp
  10007b:	83 ec 10             	sub    $0x10,%esp
  10007e:	31 db                	xor    %ebx,%ebx
  100080:	8b 04 9d 60 01 10 00 	mov    0x100160(,%ebx,4),%eax
  100087:	c1 e8 07             	shr    $0x7,%eax
  10008a:	3b 04 9d 40 01 10 00 	cmp    0x100140(,%ebx,4),%eax
  100091:	0f 94 c0             	sete   %al
  100094:	0f b6 c0             	movzbl %al,%eax
  100097:	89 04 24             	mov    %eax,(%esp)
  10009a:	e8 b9 ff ff ff       	call   100058 <nemu_assert>
  10009f:	43                   	inc    %ebx
  1000a0:	83 fb 08             	cmp    $0x8,%ebx
  1000a3:	75 db                	jne    100080 <main+0xc>
  1000a5:	b3 04                	mov    $0x4,%bl
  1000a7:	90                   	nop
  1000a8:	8b 04 9d 50 01 10 00 	mov    0x100150(,%ebx,4),%eax
  1000af:	88 d9                	mov    %bl,%cl
  1000b1:	d3 f8                	sar    %cl,%eax
  1000b3:	3b 04 9d f0 00 10 00 	cmp    0x1000f0(,%ebx,4),%eax
  1000ba:	0f 94 c0             	sete   %al
  1000bd:	0f b6 c0             	movzbl %al,%eax
  1000c0:	89 04 24             	mov    %eax,(%esp)
  1000c3:	e8 90 ff ff ff       	call   100058 <nemu_assert>
  1000c8:	43                   	inc    %ebx
  1000c9:	83 fb 0c             	cmp    $0xc,%ebx
  1000cc:	75 da                	jne    1000a8 <main+0x34>
  1000ce:	b3 04                	mov    $0x4,%bl
  1000d0:	8b 04 9d 50 01 10 00 	mov    0x100150(,%ebx,4),%eax
  1000d7:	88 d9                	mov    %bl,%cl
  1000d9:	d3 e8                	shr    %cl,%eax
  1000db:	3b 04 9d 10 01 10 00 	cmp    0x100110(,%ebx,4),%eax
  1000e2:	0f 94 c0             	sete   %al
  1000e5:	0f b6 c0             	movzbl %al,%eax
  1000e8:	89 04 24             	mov    %eax,(%esp)
  1000eb:	e8 68 ff ff ff       	call   100058 <nemu_assert>
  1000f0:	43                   	inc    %ebx
  1000f1:	83 fb 0c             	cmp    $0xc,%ebx
  1000f4:	75 da                	jne    1000d0 <main+0x5c>
  1000f6:	31 c0                	xor    %eax,%eax
  1000f8:	8b 5d fc             	mov    -0x4(%ebp),%ebx
  1000fb:	c9                   	leave  
  1000fc:	c3                   	ret    
