
/home/user/ics2017/ics2017/nexus-am/apps/coremark/build/coremark-x86-nemu：     文件格式 elf32-i386


Disassembly of section .text:

00100000 <_start>:
  100000:	bd 00 00 00 00       	mov    $0x0,%ebp
  100005:	bc 00 7c 00 00       	mov    $0x7c00,%esp
  10000a:	e8 1d 00 00 00       	call   10002c <_trm_init>
  10000f:	90                   	nop

00100010 <_putc>:
  100010:	55                   	push   %ebp
  100011:	89 e5                	mov    %esp,%ebp
  100013:	8b 4d 08             	mov    0x8(%ebp),%ecx
  100016:	ba fd 03 00 00       	mov    $0x3fd,%edx
  10001b:	90                   	nop
  10001c:	ec                   	in     (%dx),%al
  10001d:	a8 20                	test   $0x20,%al
  10001f:	74 fb                	je     10001c <_putc+0xc>
  100021:	ba f8 03 00 00       	mov    $0x3f8,%edx
  100026:	88 c8                	mov    %cl,%al
  100028:	ee                   	out    %al,(%dx)
  100029:	5d                   	pop    %ebp
  10002a:	c3                   	ret    
  10002b:	90                   	nop

0010002c <_trm_init>:
  10002c:	55                   	push   %ebp
  10002d:	89 e5                	mov    %esp,%ebp
  10002f:	56                   	push   %esi
  100030:	53                   	push   %ebx
  100031:	31 f6                	xor    %esi,%esi
  100033:	bb f9 03 00 00       	mov    $0x3f9,%ebx
  100038:	89 f0                	mov    %esi,%eax
  10003a:	89 da                	mov    %ebx,%edx
  10003c:	ee                   	out    %al,(%dx)
  10003d:	b9 fb 03 00 00       	mov    $0x3fb,%ecx
  100042:	b0 80                	mov    $0x80,%al
  100044:	89 ca                	mov    %ecx,%edx
  100046:	ee                   	out    %al,(%dx)
  100047:	b2 f8                	mov    $0xf8,%dl
  100049:	b0 01                	mov    $0x1,%al
  10004b:	ee                   	out    %al,(%dx)
  10004c:	89 f0                	mov    %esi,%eax
  10004e:	89 da                	mov    %ebx,%edx
  100050:	ee                   	out    %al,(%dx)
  100051:	b0 03                	mov    $0x3,%al
  100053:	89 ca                	mov    %ecx,%edx
  100055:	ee                   	out    %al,(%dx)
  100056:	b2 fa                	mov    $0xfa,%dl
  100058:	b0 c7                	mov    $0xc7,%al
  10005a:	ee                   	out    %al,(%dx)
  10005b:	b2 fc                	mov    $0xfc,%dl
  10005d:	b0 0b                	mov    $0xb,%al
  10005f:	ee                   	out    %al,(%dx)
  100060:	e8 17 13 00 00       	call   10137c <main>
  100065:	d6                   	(bad)  
  100066:	eb fe                	jmp    100066 <_trm_init+0x3a>

00100068 <get_seed_32>:
  100068:	55                   	push   %ebp
  100069:	89 e5                	mov    %esp,%ebp
  10006b:	8b 45 08             	mov    0x8(%ebp),%eax
  10006e:	83 f8 05             	cmp    $0x5,%eax
  100071:	77 31                	ja     1000a4 <get_seed_32+0x3c>
  100073:	ff 24 85 5c 21 10 00 	jmp    *0x10215c(,%eax,4)
  10007a:	66 90                	xchg   %ax,%ax
  10007c:	a1 c0 27 10 00       	mov    0x1027c0,%eax
  100081:	5d                   	pop    %ebp
  100082:	c3                   	ret    
  100083:	90                   	nop
  100084:	a1 c8 27 10 00       	mov    0x1027c8,%eax
  100089:	5d                   	pop    %ebp
  10008a:	c3                   	ret    
  10008b:	90                   	nop
  10008c:	a1 c4 27 10 00       	mov    0x1027c4,%eax
  100091:	5d                   	pop    %ebp
  100092:	c3                   	ret    
  100093:	90                   	nop
  100094:	a1 ac 27 10 00       	mov    0x1027ac,%eax
  100099:	5d                   	pop    %ebp
  10009a:	c3                   	ret    
  10009b:	90                   	nop
  10009c:	a1 a8 27 10 00       	mov    0x1027a8,%eax
  1000a1:	5d                   	pop    %ebp
  1000a2:	c3                   	ret    
  1000a3:	90                   	nop
  1000a4:	31 c0                	xor    %eax,%eax
  1000a6:	5d                   	pop    %ebp
  1000a7:	c3                   	ret    

001000a8 <crcu8>:
  1000a8:	55                   	push   %ebp
  1000a9:	89 e5                	mov    %esp,%ebp
  1000ab:	53                   	push   %ebx
  1000ac:	8a 4d 08             	mov    0x8(%ebp),%cl
  1000af:	8b 45 0c             	mov    0xc(%ebp),%eax
  1000b2:	b2 08                	mov    $0x8,%dl
  1000b4:	eb 09                	jmp    1000bf <crcu8+0x17>
  1000b6:	66 90                	xchg   %ax,%ax
  1000b8:	66 d1 e8             	shr    %ax
  1000bb:	fe ca                	dec    %dl
  1000bd:	74 1c                	je     1000db <crcu8+0x33>
  1000bf:	88 cb                	mov    %cl,%bl
  1000c1:	31 c3                	xor    %eax,%ebx
  1000c3:	d0 e9                	shr    %cl
  1000c5:	83 e3 01             	and    $0x1,%ebx
  1000c8:	74 ee                	je     1000b8 <crcu8+0x10>
  1000ca:	35 02 40 00 00       	xor    $0x4002,%eax
  1000cf:	66 d1 e8             	shr    %ax
  1000d2:	0d 00 80 ff ff       	or     $0xffff8000,%eax
  1000d7:	fe ca                	dec    %dl
  1000d9:	75 e4                	jne    1000bf <crcu8+0x17>
  1000db:	5b                   	pop    %ebx
  1000dc:	5d                   	pop    %ebp
  1000dd:	c3                   	ret    
  1000de:	66 90                	xchg   %ax,%ax

001000e0 <crcu16>:
  1000e0:	55                   	push   %ebp
  1000e1:	89 e5                	mov    %esp,%ebp
  1000e3:	56                   	push   %esi
  1000e4:	53                   	push   %ebx
  1000e5:	8b 4d 08             	mov    0x8(%ebp),%ecx
  1000e8:	8b 45 0c             	mov    0xc(%ebp),%eax
  1000eb:	88 cb                	mov    %cl,%bl
  1000ed:	b2 08                	mov    $0x8,%dl
  1000ef:	eb 0a                	jmp    1000fb <crcu16+0x1b>
  1000f1:	8d 76 00             	lea    0x0(%esi),%esi
  1000f4:	66 d1 e8             	shr    %ax
  1000f7:	fe ca                	dec    %dl
  1000f9:	74 1c                	je     100117 <crcu16+0x37>
  1000fb:	89 de                	mov    %ebx,%esi
  1000fd:	31 c6                	xor    %eax,%esi
  1000ff:	d0 eb                	shr    %bl
  100101:	83 e6 01             	and    $0x1,%esi
  100104:	74 ee                	je     1000f4 <crcu16+0x14>
  100106:	35 02 40 00 00       	xor    $0x4002,%eax
  10010b:	66 d1 e8             	shr    %ax
  10010e:	0d 00 80 ff ff       	or     $0xffff8000,%eax
  100113:	fe ca                	dec    %dl
  100115:	75 e4                	jne    1000fb <crcu16+0x1b>
  100117:	66 c1 e9 08          	shr    $0x8,%cx
  10011b:	b2 08                	mov    $0x8,%dl
  10011d:	eb 08                	jmp    100127 <crcu16+0x47>
  10011f:	90                   	nop
  100120:	66 d1 e8             	shr    %ax
  100123:	fe ca                	dec    %dl
  100125:	74 1c                	je     100143 <crcu16+0x63>
  100127:	88 cb                	mov    %cl,%bl
  100129:	31 c3                	xor    %eax,%ebx
  10012b:	d0 e9                	shr    %cl
  10012d:	83 e3 01             	and    $0x1,%ebx
  100130:	74 ee                	je     100120 <crcu16+0x40>
  100132:	35 02 40 00 00       	xor    $0x4002,%eax
  100137:	66 d1 e8             	shr    %ax
  10013a:	0d 00 80 ff ff       	or     $0xffff8000,%eax
  10013f:	fe ca                	dec    %dl
  100141:	75 e4                	jne    100127 <crcu16+0x47>
  100143:	5b                   	pop    %ebx
  100144:	5e                   	pop    %esi
  100145:	5d                   	pop    %ebp
  100146:	c3                   	ret    
  100147:	90                   	nop

00100148 <crcu32>:
  100148:	55                   	push   %ebp
  100149:	89 e5                	mov    %esp,%ebp
  10014b:	53                   	push   %ebx
  10014c:	83 ec 08             	sub    $0x8,%esp
  10014f:	8b 5d 08             	mov    0x8(%ebp),%ebx
  100152:	0f b7 45 0c          	movzwl 0xc(%ebp),%eax
  100156:	89 44 24 04          	mov    %eax,0x4(%esp)
  10015a:	0f b7 c3             	movzwl %bx,%eax
  10015d:	89 04 24             	mov    %eax,(%esp)
  100160:	e8 7b ff ff ff       	call   1000e0 <crcu16>
  100165:	0f b7 c0             	movzwl %ax,%eax
  100168:	89 45 0c             	mov    %eax,0xc(%ebp)
  10016b:	c1 eb 10             	shr    $0x10,%ebx
  10016e:	89 5d 08             	mov    %ebx,0x8(%ebp)
  100171:	83 c4 08             	add    $0x8,%esp
  100174:	5b                   	pop    %ebx
  100175:	5d                   	pop    %ebp
  100176:	e9 65 ff ff ff       	jmp    1000e0 <crcu16>
  10017b:	90                   	nop

0010017c <crc16>:
  10017c:	55                   	push   %ebp
  10017d:	89 e5                	mov    %esp,%ebp
  10017f:	0f b7 45 0c          	movzwl 0xc(%ebp),%eax
  100183:	89 45 0c             	mov    %eax,0xc(%ebp)
  100186:	0f b7 45 08          	movzwl 0x8(%ebp),%eax
  10018a:	89 45 08             	mov    %eax,0x8(%ebp)
  10018d:	5d                   	pop    %ebp
  10018e:	e9 4d ff ff ff       	jmp    1000e0 <crcu16>
  100193:	90                   	nop

00100194 <check_data_types>:
  100194:	55                   	push   %ebp
  100195:	89 e5                	mov    %esp,%ebp
  100197:	31 c0                	xor    %eax,%eax
  100199:	5d                   	pop    %ebp
  10019a:	c3                   	ret    
  10019b:	90                   	nop

0010019c <cmp_idx>:
  10019c:	55                   	push   %ebp
  10019d:	89 e5                	mov    %esp,%ebp
  10019f:	53                   	push   %ebx
  1001a0:	8b 45 08             	mov    0x8(%ebp),%eax
  1001a3:	8b 55 0c             	mov    0xc(%ebp),%edx
  1001a6:	8b 4d 10             	mov    0x10(%ebp),%ecx
  1001a9:	85 c9                	test   %ecx,%ecx
  1001ab:	74 0f                	je     1001bc <cmp_idx+0x20>
  1001ad:	0f bf 40 02          	movswl 0x2(%eax),%eax
  1001b1:	0f bf 52 02          	movswl 0x2(%edx),%edx
  1001b5:	29 d0                	sub    %edx,%eax
  1001b7:	5b                   	pop    %ebx
  1001b8:	5d                   	pop    %ebp
  1001b9:	c3                   	ret    
  1001ba:	66 90                	xchg   %ax,%ax
  1001bc:	66 8b 18             	mov    (%eax),%bx
  1001bf:	89 d9                	mov    %ebx,%ecx
  1001c1:	66 c1 e9 08          	shr    $0x8,%cx
  1001c5:	30 db                	xor    %bl,%bl
  1001c7:	09 d9                	or     %ebx,%ecx
  1001c9:	66 89 08             	mov    %cx,(%eax)
  1001cc:	66 8b 1a             	mov    (%edx),%bx
  1001cf:	89 d9                	mov    %ebx,%ecx
  1001d1:	66 c1 e9 08          	shr    $0x8,%cx
  1001d5:	30 db                	xor    %bl,%bl
  1001d7:	09 d9                	or     %ebx,%ecx
  1001d9:	66 89 0a             	mov    %cx,(%edx)
  1001dc:	0f bf 40 02          	movswl 0x2(%eax),%eax
  1001e0:	0f bf 52 02          	movswl 0x2(%edx),%edx
  1001e4:	29 d0                	sub    %edx,%eax
  1001e6:	5b                   	pop    %ebx
  1001e7:	5d                   	pop    %ebp
  1001e8:	c3                   	ret    
  1001e9:	8d 76 00             	lea    0x0(%esi),%esi

001001ec <calc_func>:
  1001ec:	55                   	push   %ebp
  1001ed:	89 e5                	mov    %esp,%ebp
  1001ef:	57                   	push   %edi
  1001f0:	56                   	push   %esi
  1001f1:	53                   	push   %ebx
  1001f2:	83 ec 2c             	sub    $0x2c,%esp
  1001f5:	8b 75 0c             	mov    0xc(%ebp),%esi
  1001f8:	8b 45 08             	mov    0x8(%ebp),%eax
  1001fb:	66 8b 18             	mov    (%eax),%bx
  1001fe:	89 d8                	mov    %ebx,%eax
  100200:	f6 c3 80             	test   $0x80,%bl
  100203:	0f 85 c3 00 00 00    	jne    1002cc <calc_func+0xe0>
  100209:	66 c1 f8 03          	sar    $0x3,%ax
  10020d:	83 e0 0f             	and    $0xf,%eax
  100210:	89 c2                	mov    %eax,%edx
  100212:	c1 e2 04             	shl    $0x4,%edx
  100215:	09 c2                	or     %eax,%edx
  100217:	89 d8                	mov    %ebx,%eax
  100219:	83 e0 07             	and    $0x7,%eax
  10021c:	74 66                	je     100284 <calc_func+0x98>
  10021e:	66 48                	dec    %ax
  100220:	0f 85 b2 00 00 00    	jne    1002d8 <calc_func+0xec>
  100226:	0f b7 46 38          	movzwl 0x38(%esi),%eax
  10022a:	89 44 24 08          	mov    %eax,0x8(%esp)
  10022e:	0f bf d2             	movswl %dx,%edx
  100231:	89 54 24 04          	mov    %edx,0x4(%esp)
  100235:	8d 46 28             	lea    0x28(%esi),%eax
  100238:	89 04 24             	mov    %eax,(%esp)
  10023b:	e8 08 0c 00 00       	call   100e48 <core_bench_matrix>
  100240:	89 c7                	mov    %eax,%edi
  100242:	66 83 7e 3c 00       	cmpw   $0x0,0x3c(%esi)
  100247:	0f 84 9b 00 00 00    	je     1002e8 <calc_func+0xfc>
  10024d:	8d 76 00             	lea    0x0(%esi),%esi
  100250:	0f b7 46 38          	movzwl 0x38(%esi),%eax
  100254:	89 44 24 04          	mov    %eax,0x4(%esp)
  100258:	0f b7 c7             	movzwl %di,%eax
  10025b:	89 04 24             	mov    %eax,(%esp)
  10025e:	e8 7d fe ff ff       	call   1000e0 <crcu16>
  100263:	66 89 46 38          	mov    %ax,0x38(%esi)
  100267:	89 f8                	mov    %edi,%eax
  100269:	83 e0 7f             	and    $0x7f,%eax
  10026c:	30 db                	xor    %bl,%bl
  10026e:	89 da                	mov    %ebx,%edx
  100270:	80 ca 80             	or     $0x80,%dl
  100273:	09 c2                	or     %eax,%edx
  100275:	8b 4d 08             	mov    0x8(%ebp),%ecx
  100278:	66 89 11             	mov    %dx,(%ecx)
  10027b:	83 c4 2c             	add    $0x2c,%esp
  10027e:	5b                   	pop    %ebx
  10027f:	5e                   	pop    %esi
  100280:	5f                   	pop    %edi
  100281:	5d                   	pop    %ebp
  100282:	c3                   	ret    
  100283:	90                   	nop
  100284:	66 83 fa 21          	cmp    $0x21,%dx
  100288:	7e 56                	jle    1002e0 <calc_func+0xf4>
  10028a:	0f bf d2             	movswl %dx,%edx
  10028d:	0f b7 46 38          	movzwl 0x38(%esi),%eax
  100291:	89 44 24 14          	mov    %eax,0x14(%esp)
  100295:	89 54 24 10          	mov    %edx,0x10(%esp)
  100299:	0f bf 46 02          	movswl 0x2(%esi),%eax
  10029d:	89 44 24 0c          	mov    %eax,0xc(%esp)
  1002a1:	0f bf 06             	movswl (%esi),%eax
  1002a4:	89 44 24 08          	mov    %eax,0x8(%esp)
  1002a8:	8b 46 14             	mov    0x14(%esi),%eax
  1002ab:	89 44 24 04          	mov    %eax,0x4(%esp)
  1002af:	8b 46 18             	mov    0x18(%esi),%eax
  1002b2:	89 04 24             	mov    %eax,(%esp)
  1002b5:	e8 ea 0e 00 00       	call   1011a4 <core_bench_state>
  1002ba:	89 c7                	mov    %eax,%edi
  1002bc:	66 83 7e 3e 00       	cmpw   $0x0,0x3e(%esi)
  1002c1:	75 8d                	jne    100250 <calc_func+0x64>
  1002c3:	66 89 46 3e          	mov    %ax,0x3e(%esi)
  1002c7:	eb 87                	jmp    100250 <calc_func+0x64>
  1002c9:	8d 76 00             	lea    0x0(%esi),%esi
  1002cc:	83 e0 7f             	and    $0x7f,%eax
  1002cf:	83 c4 2c             	add    $0x2c,%esp
  1002d2:	5b                   	pop    %ebx
  1002d3:	5e                   	pop    %esi
  1002d4:	5f                   	pop    %edi
  1002d5:	5d                   	pop    %ebp
  1002d6:	c3                   	ret    
  1002d7:	90                   	nop
  1002d8:	89 df                	mov    %ebx,%edi
  1002da:	e9 71 ff ff ff       	jmp    100250 <calc_func+0x64>
  1002df:	90                   	nop
  1002e0:	ba 22 00 00 00       	mov    $0x22,%edx
  1002e5:	eb a6                	jmp    10028d <calc_func+0xa1>
  1002e7:	90                   	nop
  1002e8:	66 89 46 3c          	mov    %ax,0x3c(%esi)
  1002ec:	e9 5f ff ff ff       	jmp    100250 <calc_func+0x64>
  1002f1:	8d 76 00             	lea    0x0(%esi),%esi

001002f4 <cmp_complex>:
  1002f4:	55                   	push   %ebp
  1002f5:	89 e5                	mov    %esp,%ebp
  1002f7:	56                   	push   %esi
  1002f8:	53                   	push   %ebx
  1002f9:	83 ec 10             	sub    $0x10,%esp
  1002fc:	8b 5d 10             	mov    0x10(%ebp),%ebx
  1002ff:	89 5c 24 04          	mov    %ebx,0x4(%esp)
  100303:	8b 45 08             	mov    0x8(%ebp),%eax
  100306:	89 04 24             	mov    %eax,(%esp)
  100309:	e8 de fe ff ff       	call   1001ec <calc_func>
  10030e:	89 c6                	mov    %eax,%esi
  100310:	89 5c 24 04          	mov    %ebx,0x4(%esp)
  100314:	8b 45 0c             	mov    0xc(%ebp),%eax
  100317:	89 04 24             	mov    %eax,(%esp)
  10031a:	e8 cd fe ff ff       	call   1001ec <calc_func>
  10031f:	0f bf d6             	movswl %si,%edx
  100322:	98                   	cwtl   
  100323:	29 c2                	sub    %eax,%edx
  100325:	89 d0                	mov    %edx,%eax
  100327:	83 c4 10             	add    $0x10,%esp
  10032a:	5b                   	pop    %ebx
  10032b:	5e                   	pop    %esi
  10032c:	5d                   	pop    %ebp
  10032d:	c3                   	ret    
  10032e:	66 90                	xchg   %ax,%ax

00100330 <copy_info>:
  100330:	55                   	push   %ebp
  100331:	89 e5                	mov    %esp,%ebp
  100333:	8b 45 08             	mov    0x8(%ebp),%eax
  100336:	8b 55 0c             	mov    0xc(%ebp),%edx
  100339:	66 8b 0a             	mov    (%edx),%cx
  10033c:	66 89 08             	mov    %cx,(%eax)
  10033f:	66 8b 52 02          	mov    0x2(%edx),%dx
  100343:	66 89 50 02          	mov    %dx,0x2(%eax)
  100347:	5d                   	pop    %ebp
  100348:	c3                   	ret    
  100349:	8d 76 00             	lea    0x0(%esi),%esi

0010034c <core_list_insert_new>:
  10034c:	55                   	push   %ebp
  10034d:	89 e5                	mov    %esp,%ebp
  10034f:	57                   	push   %edi
  100350:	56                   	push   %esi
  100351:	53                   	push   %ebx
  100352:	8b 75 08             	mov    0x8(%ebp),%esi
  100355:	8b 5d 0c             	mov    0xc(%ebp),%ebx
  100358:	8b 55 14             	mov    0x14(%ebp),%edx
  10035b:	8b 45 10             	mov    0x10(%ebp),%eax
  10035e:	8b 00                	mov    (%eax),%eax
  100360:	8d 48 08             	lea    0x8(%eax),%ecx
  100363:	3b 4d 18             	cmp    0x18(%ebp),%ecx
  100366:	73 34                	jae    10039c <core_list_insert_new+0x50>
  100368:	8b 3a                	mov    (%edx),%edi
  10036a:	83 c7 04             	add    $0x4,%edi
  10036d:	39 7d 1c             	cmp    %edi,0x1c(%ebp)
  100370:	76 2a                	jbe    10039c <core_list_insert_new+0x50>
  100372:	8b 7d 10             	mov    0x10(%ebp),%edi
  100375:	89 0f                	mov    %ecx,(%edi)
  100377:	8b 0e                	mov    (%esi),%ecx
  100379:	89 08                	mov    %ecx,(%eax)
  10037b:	89 06                	mov    %eax,(%esi)
  10037d:	8b 0a                	mov    (%edx),%ecx
  10037f:	89 48 04             	mov    %ecx,0x4(%eax)
  100382:	83 02 04             	addl   $0x4,(%edx)
  100385:	8b 50 04             	mov    0x4(%eax),%edx
  100388:	66 8b 0b             	mov    (%ebx),%cx
  10038b:	66 89 0a             	mov    %cx,(%edx)
  10038e:	66 8b 4b 02          	mov    0x2(%ebx),%cx
  100392:	66 89 4a 02          	mov    %cx,0x2(%edx)
  100396:	5b                   	pop    %ebx
  100397:	5e                   	pop    %esi
  100398:	5f                   	pop    %edi
  100399:	5d                   	pop    %ebp
  10039a:	c3                   	ret    
  10039b:	90                   	nop
  10039c:	31 c0                	xor    %eax,%eax
  10039e:	5b                   	pop    %ebx
  10039f:	5e                   	pop    %esi
  1003a0:	5f                   	pop    %edi
  1003a1:	5d                   	pop    %ebp
  1003a2:	c3                   	ret    
  1003a3:	90                   	nop

001003a4 <core_list_remove>:
  1003a4:	55                   	push   %ebp
  1003a5:	89 e5                	mov    %esp,%ebp
  1003a7:	53                   	push   %ebx
  1003a8:	8b 55 08             	mov    0x8(%ebp),%edx
  1003ab:	8b 02                	mov    (%edx),%eax
  1003ad:	8b 4a 04             	mov    0x4(%edx),%ecx
  1003b0:	8b 58 04             	mov    0x4(%eax),%ebx
  1003b3:	89 5a 04             	mov    %ebx,0x4(%edx)
  1003b6:	89 48 04             	mov    %ecx,0x4(%eax)
  1003b9:	8b 08                	mov    (%eax),%ecx
  1003bb:	89 0a                	mov    %ecx,(%edx)
  1003bd:	c7 00 00 00 00 00    	movl   $0x0,(%eax)
  1003c3:	5b                   	pop    %ebx
  1003c4:	5d                   	pop    %ebp
  1003c5:	c3                   	ret    
  1003c6:	66 90                	xchg   %ax,%ax

001003c8 <core_list_undo_remove>:
  1003c8:	55                   	push   %ebp
  1003c9:	89 e5                	mov    %esp,%ebp
  1003cb:	53                   	push   %ebx
  1003cc:	8b 45 08             	mov    0x8(%ebp),%eax
  1003cf:	8b 55 0c             	mov    0xc(%ebp),%edx
  1003d2:	8b 48 04             	mov    0x4(%eax),%ecx
  1003d5:	8b 5a 04             	mov    0x4(%edx),%ebx
  1003d8:	89 58 04             	mov    %ebx,0x4(%eax)
  1003db:	89 4a 04             	mov    %ecx,0x4(%edx)
  1003de:	8b 0a                	mov    (%edx),%ecx
  1003e0:	89 08                	mov    %ecx,(%eax)
  1003e2:	89 02                	mov    %eax,(%edx)
  1003e4:	5b                   	pop    %ebx
  1003e5:	5d                   	pop    %ebp
  1003e6:	c3                   	ret    
  1003e7:	90                   	nop

001003e8 <core_list_find>:
  1003e8:	55                   	push   %ebp
  1003e9:	89 e5                	mov    %esp,%ebp
  1003eb:	8b 45 08             	mov    0x8(%ebp),%eax
  1003ee:	8b 55 0c             	mov    0xc(%ebp),%edx
  1003f1:	66 8b 4a 02          	mov    0x2(%edx),%cx
  1003f5:	66 85 c9             	test   %cx,%cx
  1003f8:	79 0d                	jns    100407 <core_list_find+0x1f>
  1003fa:	eb 11                	jmp    10040d <core_list_find+0x25>
  1003fc:	8b 50 04             	mov    0x4(%eax),%edx
  1003ff:	66 3b 4a 02          	cmp    0x2(%edx),%cx
  100403:	74 06                	je     10040b <core_list_find+0x23>
  100405:	8b 00                	mov    (%eax),%eax
  100407:	85 c0                	test   %eax,%eax
  100409:	75 f1                	jne    1003fc <core_list_find+0x14>
  10040b:	5d                   	pop    %ebp
  10040c:	c3                   	ret    
  10040d:	85 c0                	test   %eax,%eax
  10040f:	74 fa                	je     10040b <core_list_find+0x23>
  100411:	66 8b 0a             	mov    (%edx),%cx
  100414:	eb 08                	jmp    10041e <core_list_find+0x36>
  100416:	66 90                	xchg   %ax,%ax
  100418:	8b 00                	mov    (%eax),%eax
  10041a:	85 c0                	test   %eax,%eax
  10041c:	74 ed                	je     10040b <core_list_find+0x23>
  10041e:	8b 50 04             	mov    0x4(%eax),%edx
  100421:	0f b6 12             	movzbl (%edx),%edx
  100424:	66 39 ca             	cmp    %cx,%dx
  100427:	75 ef                	jne    100418 <core_list_find+0x30>
  100429:	5d                   	pop    %ebp
  10042a:	c3                   	ret    
  10042b:	90                   	nop

0010042c <core_list_reverse>:
  10042c:	55                   	push   %ebp
  10042d:	89 e5                	mov    %esp,%ebp
  10042f:	8b 45 08             	mov    0x8(%ebp),%eax
  100432:	85 c0                	test   %eax,%eax
  100434:	74 12                	je     100448 <core_list_reverse+0x1c>
  100436:	31 c9                	xor    %ecx,%ecx
  100438:	eb 06                	jmp    100440 <core_list_reverse+0x14>
  10043a:	66 90                	xchg   %ax,%ax
  10043c:	89 c1                	mov    %eax,%ecx
  10043e:	89 d0                	mov    %edx,%eax
  100440:	8b 10                	mov    (%eax),%edx
  100442:	89 08                	mov    %ecx,(%eax)
  100444:	85 d2                	test   %edx,%edx
  100446:	75 f4                	jne    10043c <core_list_reverse+0x10>
  100448:	5d                   	pop    %ebp
  100449:	c3                   	ret    
  10044a:	66 90                	xchg   %ax,%ax

0010044c <core_list_mergesort>:
  10044c:	55                   	push   %ebp
  10044d:	89 e5                	mov    %esp,%ebp
  10044f:	57                   	push   %edi
  100450:	56                   	push   %esi
  100451:	53                   	push   %ebx
  100452:	83 ec 2c             	sub    $0x2c,%esp
  100455:	8b 7d 08             	mov    0x8(%ebp),%edi
  100458:	c7 45 d8 01 00 00 00 	movl   $0x1,-0x28(%ebp)
  10045f:	89 f9                	mov    %edi,%ecx
  100461:	85 c9                	test   %ecx,%ecx
  100463:	0f 84 c3 00 00 00    	je     10052c <core_list_mergesort+0xe0>
  100469:	c7 45 d4 00 00 00 00 	movl   $0x0,-0x2c(%ebp)
  100470:	31 f6                	xor    %esi,%esi
  100472:	c7 45 dc 00 00 00 00 	movl   $0x0,-0x24(%ebp)
  100479:	8d 76 00             	lea    0x0(%esi),%esi
  10047c:	ff 45 d4             	incl   -0x2c(%ebp)
  10047f:	89 cb                	mov    %ecx,%ebx
  100481:	31 ff                	xor    %edi,%edi
  100483:	8b 45 d8             	mov    -0x28(%ebp),%eax
  100486:	66 90                	xchg   %ax,%ax
  100488:	47                   	inc    %edi
  100489:	8b 1b                	mov    (%ebx),%ebx
  10048b:	85 db                	test   %ebx,%ebx
  10048d:	74 04                	je     100493 <core_list_mergesort+0x47>
  10048f:	39 f8                	cmp    %edi,%eax
  100491:	7f f5                	jg     100488 <core_list_mergesort+0x3c>
  100493:	8b 55 d8             	mov    -0x28(%ebp),%edx
  100496:	89 d0                	mov    %edx,%eax
  100498:	89 fa                	mov    %edi,%edx
  10049a:	89 c7                	mov    %eax,%edi
  10049c:	85 d2                	test   %edx,%edx
  10049e:	74 40                	je     1004e0 <core_list_mergesort+0x94>
  1004a0:	85 ff                	test   %edi,%edi
  1004a2:	74 5c                	je     100500 <core_list_mergesort+0xb4>
  1004a4:	85 db                	test   %ebx,%ebx
  1004a6:	74 58                	je     100500 <core_list_mergesort+0xb4>
  1004a8:	89 55 e0             	mov    %edx,-0x20(%ebp)
  1004ab:	8b 45 10             	mov    0x10(%ebp),%eax
  1004ae:	89 44 24 08          	mov    %eax,0x8(%esp)
  1004b2:	8b 43 04             	mov    0x4(%ebx),%eax
  1004b5:	89 44 24 04          	mov    %eax,0x4(%esp)
  1004b9:	8b 41 04             	mov    0x4(%ecx),%eax
  1004bc:	89 4d e4             	mov    %ecx,-0x1c(%ebp)
  1004bf:	89 04 24             	mov    %eax,(%esp)
  1004c2:	ff 55 0c             	call   *0xc(%ebp)
  1004c5:	85 c0                	test   %eax,%eax
  1004c7:	8b 4d e4             	mov    -0x1c(%ebp),%ecx
  1004ca:	8b 55 e0             	mov    -0x20(%ebp),%edx
  1004cd:	7e 31                	jle    100500 <core_list_mergesort+0xb4>
  1004cf:	4f                   	dec    %edi
  1004d0:	89 d8                	mov    %ebx,%eax
  1004d2:	8b 1b                	mov    (%ebx),%ebx
  1004d4:	85 f6                	test   %esi,%esi
  1004d6:	74 31                	je     100509 <core_list_mergesort+0xbd>
  1004d8:	89 06                	mov    %eax,(%esi)
  1004da:	89 c6                	mov    %eax,%esi
  1004dc:	85 d2                	test   %edx,%edx
  1004de:	75 c0                	jne    1004a0 <core_list_mergesort+0x54>
  1004e0:	85 ff                	test   %edi,%edi
  1004e2:	74 2c                	je     100510 <core_list_mergesort+0xc4>
  1004e4:	85 db                	test   %ebx,%ebx
  1004e6:	75 e7                	jne    1004cf <core_list_mergesort+0x83>
  1004e8:	c7 06 00 00 00 00    	movl   $0x0,(%esi)
  1004ee:	83 7d d4 01          	cmpl   $0x1,-0x2c(%ebp)
  1004f2:	75 27                	jne    10051b <core_list_mergesort+0xcf>
  1004f4:	8b 45 dc             	mov    -0x24(%ebp),%eax
  1004f7:	83 c4 2c             	add    $0x2c,%esp
  1004fa:	5b                   	pop    %ebx
  1004fb:	5e                   	pop    %esi
  1004fc:	5f                   	pop    %edi
  1004fd:	5d                   	pop    %ebp
  1004fe:	c3                   	ret    
  1004ff:	90                   	nop
  100500:	4a                   	dec    %edx
  100501:	89 c8                	mov    %ecx,%eax
  100503:	8b 09                	mov    (%ecx),%ecx
  100505:	85 f6                	test   %esi,%esi
  100507:	75 cf                	jne    1004d8 <core_list_mergesort+0x8c>
  100509:	89 45 dc             	mov    %eax,-0x24(%ebp)
  10050c:	89 c6                	mov    %eax,%esi
  10050e:	eb cc                	jmp    1004dc <core_list_mergesort+0x90>
  100510:	85 db                	test   %ebx,%ebx
  100512:	74 d4                	je     1004e8 <core_list_mergesort+0x9c>
  100514:	89 d9                	mov    %ebx,%ecx
  100516:	e9 61 ff ff ff       	jmp    10047c <core_list_mergesort+0x30>
  10051b:	8b 45 d8             	mov    -0x28(%ebp),%eax
  10051e:	01 45 d8             	add    %eax,-0x28(%ebp)
  100521:	8b 4d dc             	mov    -0x24(%ebp),%ecx
  100524:	85 c9                	test   %ecx,%ecx
  100526:	0f 85 3d ff ff ff    	jne    100469 <core_list_mergesort+0x1d>
  10052c:	c7 05 00 00 00 00 00 	movl   $0x0,0x0
  100533:	00 00 00 
  100536:	c7 45 dc 00 00 00 00 	movl   $0x0,-0x24(%ebp)
  10053d:	8b 45 dc             	mov    -0x24(%ebp),%eax
  100540:	83 c4 2c             	add    $0x2c,%esp
  100543:	5b                   	pop    %ebx
  100544:	5e                   	pop    %esi
  100545:	5f                   	pop    %edi
  100546:	5d                   	pop    %ebp
  100547:	c3                   	ret    

00100548 <core_bench_list>:
  100548:	55                   	push   %ebp
  100549:	89 e5                	mov    %esp,%ebp
  10054b:	57                   	push   %edi
  10054c:	56                   	push   %esi
  10054d:	53                   	push   %ebx
  10054e:	83 ec 3c             	sub    $0x3c,%esp
  100551:	8b 45 0c             	mov    0xc(%ebp),%eax
  100554:	89 45 c4             	mov    %eax,-0x3c(%ebp)
  100557:	8b 7d 08             	mov    0x8(%ebp),%edi
  10055a:	8b 5f 24             	mov    0x24(%edi),%ebx
  10055d:	8b 7f 04             	mov    0x4(%edi),%edi
  100560:	66 89 7d d0          	mov    %di,-0x30(%ebp)
  100564:	c7 45 e4 00 00 00 00 	movl   $0x0,-0x1c(%ebp)
  10056b:	66 89 45 e6          	mov    %ax,-0x1a(%ebp)
  10056f:	66 85 ff             	test   %di,%di
  100572:	0f 8e a9 01 00 00    	jle    100721 <core_bench_list+0x1d9>
  100578:	89 c7                	mov    %eax,%edi
  10057a:	31 f6                	xor    %esi,%esi
  10057c:	66 c7 45 c8 00 00    	movw   $0x0,-0x38(%ebp)
  100582:	66 c7 45 cc 00 00    	movw   $0x0,-0x34(%ebp)
  100588:	66 c7 45 ca 00 00    	movw   $0x0,-0x36(%ebp)
  10058e:	8d 45 e4             	lea    -0x1c(%ebp),%eax
  100591:	89 45 d4             	mov    %eax,-0x2c(%ebp)
  100594:	89 f0                	mov    %esi,%eax
  100596:	25 ff 00 00 00       	and    $0xff,%eax
  10059b:	66 89 45 e4          	mov    %ax,-0x1c(%ebp)
  10059f:	8b 45 d4             	mov    -0x2c(%ebp),%eax
  1005a2:	89 44 24 04          	mov    %eax,0x4(%esp)
  1005a6:	89 1c 24             	mov    %ebx,(%esp)
  1005a9:	e8 3a fe ff ff       	call   1003e8 <core_list_find>
  1005ae:	85 db                	test   %ebx,%ebx
  1005b0:	74 12                	je     1005c4 <core_bench_list+0x7c>
  1005b2:	31 c9                	xor    %ecx,%ecx
  1005b4:	eb 06                	jmp    1005bc <core_bench_list+0x74>
  1005b6:	66 90                	xchg   %ax,%ax
  1005b8:	89 d9                	mov    %ebx,%ecx
  1005ba:	89 d3                	mov    %edx,%ebx
  1005bc:	8b 13                	mov    (%ebx),%edx
  1005be:	89 0b                	mov    %ecx,(%ebx)
  1005c0:	85 d2                	test   %edx,%edx
  1005c2:	75 f4                	jne    1005b8 <core_bench_list+0x70>
  1005c4:	85 c0                	test   %eax,%eax
  1005c6:	74 44                	je     10060c <core_bench_list+0xc4>
  1005c8:	66 ff 45 cc          	incw   -0x34(%ebp)
  1005cc:	8b 50 04             	mov    0x4(%eax),%edx
  1005cf:	66 8b 12             	mov    (%edx),%dx
  1005d2:	f6 c2 01             	test   $0x1,%dl
  1005d5:	74 0b                	je     1005e2 <core_bench_list+0x9a>
  1005d7:	66 c1 fa 09          	sar    $0x9,%dx
  1005db:	83 e2 01             	and    $0x1,%edx
  1005de:	66 01 55 ca          	add    %dx,-0x36(%ebp)
  1005e2:	8b 10                	mov    (%eax),%edx
  1005e4:	85 d2                	test   %edx,%edx
  1005e6:	74 0a                	je     1005f2 <core_bench_list+0xaa>
  1005e8:	8b 0a                	mov    (%edx),%ecx
  1005ea:	89 08                	mov    %ecx,(%eax)
  1005ec:	8b 03                	mov    (%ebx),%eax
  1005ee:	89 02                	mov    %eax,(%edx)
  1005f0:	89 13                	mov    %edx,(%ebx)
  1005f2:	66 85 ff             	test   %di,%di
  1005f5:	78 05                	js     1005fc <core_bench_list+0xb4>
  1005f7:	47                   	inc    %edi
  1005f8:	66 89 7d e6          	mov    %di,-0x1a(%ebp)
  1005fc:	46                   	inc    %esi
  1005fd:	66 39 75 d0          	cmp    %si,-0x30(%ebp)
  100601:	74 22                	je     100625 <core_bench_list+0xdd>
  100603:	66 8b 7d e6          	mov    -0x1a(%ebp),%di
  100607:	eb 8b                	jmp    100594 <core_bench_list+0x4c>
  100609:	8d 76 00             	lea    0x0(%esi),%esi
  10060c:	66 ff 45 c8          	incw   -0x38(%ebp)
  100610:	8b 03                	mov    (%ebx),%eax
  100612:	8b 40 04             	mov    0x4(%eax),%eax
  100615:	66 8b 00             	mov    (%eax),%ax
  100618:	66 c1 f8 08          	sar    $0x8,%ax
  10061c:	83 e0 01             	and    $0x1,%eax
  10061f:	66 01 45 ca          	add    %ax,-0x36(%ebp)
  100623:	eb cd                	jmp    1005f2 <core_bench_list+0xaa>
  100625:	8b 45 cc             	mov    -0x34(%ebp),%eax
  100628:	66 8b 7d ca          	mov    -0x36(%ebp),%di
  10062c:	8d 3c 87             	lea    (%edi,%eax,4),%edi
  10062f:	2b 7d c8             	sub    -0x38(%ebp),%edi
  100632:	66 83 7d c4 00       	cmpw   $0x0,-0x3c(%ebp)
  100637:	7e 19                	jle    100652 <core_bench_list+0x10a>
  100639:	8b 45 08             	mov    0x8(%ebp),%eax
  10063c:	89 44 24 08          	mov    %eax,0x8(%esp)
  100640:	c7 44 24 04 f4 02 10 	movl   $0x1002f4,0x4(%esp)
  100647:	00 
  100648:	89 1c 24             	mov    %ebx,(%esp)
  10064b:	e8 fc fd ff ff       	call   10044c <core_list_mergesort>
  100650:	89 c3                	mov    %eax,%ebx
  100652:	8b 03                	mov    (%ebx),%eax
  100654:	8b 30                	mov    (%eax),%esi
  100656:	89 75 d0             	mov    %esi,-0x30(%ebp)
  100659:	8b 50 04             	mov    0x4(%eax),%edx
  10065c:	8b 4e 04             	mov    0x4(%esi),%ecx
  10065f:	89 48 04             	mov    %ecx,0x4(%eax)
  100662:	89 56 04             	mov    %edx,0x4(%esi)
  100665:	89 55 cc             	mov    %edx,-0x34(%ebp)
  100668:	8b 0e                	mov    (%esi),%ecx
  10066a:	89 08                	mov    %ecx,(%eax)
  10066c:	c7 06 00 00 00 00    	movl   $0x0,(%esi)
  100672:	8b 45 d4             	mov    -0x2c(%ebp),%eax
  100675:	89 44 24 04          	mov    %eax,0x4(%esp)
  100679:	89 1c 24             	mov    %ebx,(%esp)
  10067c:	e8 67 fd ff ff       	call   1003e8 <core_list_find>
  100681:	89 c6                	mov    %eax,%esi
  100683:	85 c0                	test   %eax,%eax
  100685:	8b 55 cc             	mov    -0x34(%ebp),%edx
  100688:	0f 84 85 00 00 00    	je     100713 <core_bench_list+0x1cb>
  10068e:	89 f8                	mov    %edi,%eax
  100690:	0f b7 c0             	movzwl %ax,%eax
  100693:	89 44 24 04          	mov    %eax,0x4(%esp)
  100697:	8b 43 04             	mov    0x4(%ebx),%eax
  10069a:	0f bf 00             	movswl (%eax),%eax
  10069d:	89 04 24             	mov    %eax,(%esp)
  1006a0:	e8 d7 fa ff ff       	call   10017c <crc16>
  1006a5:	8b 36                	mov    (%esi),%esi
  1006a7:	85 f6                	test   %esi,%esi
  1006a9:	75 e5                	jne    100690 <core_bench_list+0x148>
  1006ab:	89 c7                	mov    %eax,%edi
  1006ad:	8b 03                	mov    (%ebx),%eax
  1006af:	8b 75 d0             	mov    -0x30(%ebp),%esi
  1006b2:	8b 56 04             	mov    0x4(%esi),%edx
  1006b5:	8b 48 04             	mov    0x4(%eax),%ecx
  1006b8:	8b 75 d0             	mov    -0x30(%ebp),%esi
  1006bb:	89 4e 04             	mov    %ecx,0x4(%esi)
  1006be:	89 50 04             	mov    %edx,0x4(%eax)
  1006c1:	8b 10                	mov    (%eax),%edx
  1006c3:	89 16                	mov    %edx,(%esi)
  1006c5:	89 30                	mov    %esi,(%eax)
  1006c7:	c7 44 24 08 00 00 00 	movl   $0x0,0x8(%esp)
  1006ce:	00 
  1006cf:	c7 44 24 04 9c 01 10 	movl   $0x10019c,0x4(%esp)
  1006d6:	00 
  1006d7:	89 1c 24             	mov    %ebx,(%esp)
  1006da:	e8 6d fd ff ff       	call   10044c <core_list_mergesort>
  1006df:	89 c6                	mov    %eax,%esi
  1006e1:	8b 18                	mov    (%eax),%ebx
  1006e3:	85 db                	test   %ebx,%ebx
  1006e5:	74 22                	je     100709 <core_bench_list+0x1c1>
  1006e7:	89 f8                	mov    %edi,%eax
  1006e9:	8d 76 00             	lea    0x0(%esi),%esi
  1006ec:	0f b7 c0             	movzwl %ax,%eax
  1006ef:	89 44 24 04          	mov    %eax,0x4(%esp)
  1006f3:	8b 46 04             	mov    0x4(%esi),%eax
  1006f6:	0f bf 00             	movswl (%eax),%eax
  1006f9:	89 04 24             	mov    %eax,(%esp)
  1006fc:	e8 7b fa ff ff       	call   10017c <crc16>
  100701:	8b 1b                	mov    (%ebx),%ebx
  100703:	85 db                	test   %ebx,%ebx
  100705:	75 e5                	jne    1006ec <core_bench_list+0x1a4>
  100707:	89 c7                	mov    %eax,%edi
  100709:	89 f8                	mov    %edi,%eax
  10070b:	83 c4 3c             	add    $0x3c,%esp
  10070e:	5b                   	pop    %ebx
  10070f:	5e                   	pop    %esi
  100710:	5f                   	pop    %edi
  100711:	5d                   	pop    %ebp
  100712:	c3                   	ret    
  100713:	8b 33                	mov    (%ebx),%esi
  100715:	85 f6                	test   %esi,%esi
  100717:	0f 85 71 ff ff ff    	jne    10068e <core_bench_list+0x146>
  10071d:	31 c0                	xor    %eax,%eax
  10071f:	eb 94                	jmp    1006b5 <core_bench_list+0x16d>
  100721:	31 ff                	xor    %edi,%edi
  100723:	8d 45 e4             	lea    -0x1c(%ebp),%eax
  100726:	89 45 d4             	mov    %eax,-0x2c(%ebp)
  100729:	e9 04 ff ff ff       	jmp    100632 <core_bench_list+0xea>
  10072e:	66 90                	xchg   %ax,%ax

00100730 <core_list_init>:
  100730:	55                   	push   %ebp
  100731:	89 e5                	mov    %esp,%ebp
  100733:	57                   	push   %edi
  100734:	56                   	push   %esi
  100735:	53                   	push   %ebx
  100736:	83 ec 28             	sub    $0x28,%esp
  100739:	8b 45 0c             	mov    0xc(%ebp),%eax
  10073c:	89 c7                	mov    %eax,%edi
  10073e:	89 45 cc             	mov    %eax,-0x34(%ebp)
  100741:	8b 4d 10             	mov    0x10(%ebp),%ecx
  100744:	66 89 4d d2          	mov    %cx,-0x2e(%ebp)
  100748:	b8 cd cc cc cc       	mov    $0xcccccccd,%eax
  10074d:	f7 65 08             	mull   0x8(%ebp)
  100750:	89 d0                	mov    %edx,%eax
  100752:	c1 e8 04             	shr    $0x4,%eax
  100755:	83 e8 02             	sub    $0x2,%eax
  100758:	89 c3                	mov    %eax,%ebx
  10075a:	89 45 e4             	mov    %eax,-0x1c(%ebp)
  10075d:	8d 04 df             	lea    (%edi,%ebx,8),%eax
  100760:	89 45 e0             	mov    %eax,-0x20(%ebp)
  100763:	8d 1c 98             	lea    (%eax,%ebx,4),%ebx
  100766:	89 5d d4             	mov    %ebx,-0x2c(%ebp)
  100769:	c7 07 00 00 00 00    	movl   $0x0,(%edi)
  10076f:	89 47 04             	mov    %eax,0x4(%edi)
  100772:	66 c7 40 02 00 00    	movw   $0x0,0x2(%eax)
  100778:	66 c7 00 80 80       	movw   $0x8080,(%eax)
  10077d:	8d 57 08             	lea    0x8(%edi),%edx
  100780:	89 c6                	mov    %eax,%esi
  100782:	8d 58 04             	lea    0x4(%eax),%ebx
  100785:	89 f8                	mov    %edi,%eax
  100787:	83 c0 10             	add    $0x10,%eax
  10078a:	39 c6                	cmp    %eax,%esi
  10078c:	76 0c                	jbe    10079a <core_list_init+0x6a>
  10078e:	83 c6 08             	add    $0x8,%esi
  100791:	39 75 d4             	cmp    %esi,-0x2c(%ebp)
  100794:	0f 87 de 00 00 00    	ja     100878 <core_list_init+0x148>
  10079a:	c7 45 d8 00 00 00 00 	movl   $0x0,-0x28(%ebp)
  1007a1:	8b 45 e4             	mov    -0x1c(%ebp),%eax
  1007a4:	85 c0                	test   %eax,%eax
  1007a6:	74 58                	je     100800 <core_list_init+0xd0>
  1007a8:	66 89 4d d0          	mov    %cx,-0x30(%ebp)
  1007ac:	31 c0                	xor    %eax,%eax
  1007ae:	66 90                	xchg   %ax,%ax
  1007b0:	8d 4a 08             	lea    0x8(%edx),%ecx
  1007b3:	39 4d e0             	cmp    %ecx,-0x20(%ebp)
  1007b6:	76 42                	jbe    1007fa <core_list_init+0xca>
  1007b8:	8d 7b 04             	lea    0x4(%ebx),%edi
  1007bb:	89 7d dc             	mov    %edi,-0x24(%ebp)
  1007be:	39 7d d4             	cmp    %edi,-0x2c(%ebp)
  1007c1:	76 37                	jbe    1007fa <core_list_init+0xca>
  1007c3:	8b 75 d0             	mov    -0x30(%ebp),%esi
  1007c6:	31 c6                	xor    %eax,%esi
  1007c8:	83 e6 0f             	and    $0xf,%esi
  1007cb:	c1 e6 03             	shl    $0x3,%esi
  1007ce:	89 c7                	mov    %eax,%edi
  1007d0:	83 e7 07             	and    $0x7,%edi
  1007d3:	09 fe                	or     %edi,%esi
  1007d5:	8b 7d d8             	mov    -0x28(%ebp),%edi
  1007d8:	89 3a                	mov    %edi,(%edx)
  1007da:	8b 7d cc             	mov    -0x34(%ebp),%edi
  1007dd:	89 17                	mov    %edx,(%edi)
  1007df:	89 5a 04             	mov    %ebx,0x4(%edx)
  1007e2:	89 f7                	mov    %esi,%edi
  1007e4:	c1 e7 08             	shl    $0x8,%edi
  1007e7:	09 f7                	or     %esi,%edi
  1007e9:	66 89 3b             	mov    %di,(%ebx)
  1007ec:	66 c7 43 02 ff 7f    	movw   $0x7fff,0x2(%ebx)
  1007f2:	89 55 d8             	mov    %edx,-0x28(%ebp)
  1007f5:	8b 5d dc             	mov    -0x24(%ebp),%ebx
  1007f8:	89 ca                	mov    %ecx,%edx
  1007fa:	40                   	inc    %eax
  1007fb:	39 45 e4             	cmp    %eax,-0x1c(%ebp)
  1007fe:	75 b0                	jne    1007b0 <core_list_init+0x80>
  100800:	8b 5d d8             	mov    -0x28(%ebp),%ebx
  100803:	b8 cd cc cc cc       	mov    $0xcccccccd,%eax
  100808:	f7 65 e4             	mull   -0x1c(%ebp)
  10080b:	89 d0                	mov    %edx,%eax
  10080d:	c1 e8 02             	shr    $0x2,%eax
  100810:	89 45 e4             	mov    %eax,-0x1c(%ebp)
  100813:	b8 01 00 00 00       	mov    $0x1,%eax
  100818:	be 02 00 00 00       	mov    $0x2,%esi
  10081d:	eb 0c                	jmp    10082b <core_list_init+0xfb>
  10081f:	90                   	nop
  100820:	8b 53 04             	mov    0x4(%ebx),%edx
  100823:	66 89 42 02          	mov    %ax,0x2(%edx)
  100827:	46                   	inc    %esi
  100828:	40                   	inc    %eax
  100829:	89 cb                	mov    %ecx,%ebx
  10082b:	8b 0b                	mov    (%ebx),%ecx
  10082d:	85 c9                	test   %ecx,%ecx
  10082f:	74 27                	je     100858 <core_list_init+0x128>
  100831:	39 45 e4             	cmp    %eax,-0x1c(%ebp)
  100834:	77 ea                	ja     100820 <core_list_init+0xf0>
  100836:	8b 5b 04             	mov    0x4(%ebx),%ebx
  100839:	89 f2                	mov    %esi,%edx
  10083b:	83 e2 07             	and    $0x7,%edx
  10083e:	c1 e2 08             	shl    $0x8,%edx
  100841:	66 8b 7d d2          	mov    -0x2e(%ebp),%di
  100845:	31 c7                	xor    %eax,%edi
  100847:	09 fa                	or     %edi,%edx
  100849:	81 e2 ff 3f 00 00    	and    $0x3fff,%edx
  10084f:	66 89 53 02          	mov    %dx,0x2(%ebx)
  100853:	eb d2                	jmp    100827 <core_list_init+0xf7>
  100855:	8d 76 00             	lea    0x0(%esi),%esi
  100858:	c7 45 10 00 00 00 00 	movl   $0x0,0x10(%ebp)
  10085f:	c7 45 0c 9c 01 10 00 	movl   $0x10019c,0xc(%ebp)
  100866:	8b 45 cc             	mov    -0x34(%ebp),%eax
  100869:	89 45 08             	mov    %eax,0x8(%ebp)
  10086c:	83 c4 28             	add    $0x28,%esp
  10086f:	5b                   	pop    %ebx
  100870:	5e                   	pop    %esi
  100871:	5f                   	pop    %edi
  100872:	5d                   	pop    %ebp
  100873:	e9 d4 fb ff ff       	jmp    10044c <core_list_mergesort>
  100878:	c7 47 08 00 00 00 00 	movl   $0x0,0x8(%edi)
  10087f:	89 17                	mov    %edx,(%edi)
  100881:	89 5f 0c             	mov    %ebx,0xc(%edi)
  100884:	8b 5d e0             	mov    -0x20(%ebp),%ebx
  100887:	66 c7 43 04 ff ff    	movw   $0xffff,0x4(%ebx)
  10088d:	66 c7 43 06 ff 7f    	movw   $0x7fff,0x6(%ebx)
  100893:	89 55 d8             	mov    %edx,-0x28(%ebp)
  100896:	89 f3                	mov    %esi,%ebx
  100898:	89 c2                	mov    %eax,%edx
  10089a:	e9 02 ff ff ff       	jmp    1007a1 <core_list_init+0x71>
  10089f:	90                   	nop

001008a0 <core_init_matrix>:
  1008a0:	55                   	push   %ebp
  1008a1:	89 e5                	mov    %esp,%ebp
  1008a3:	57                   	push   %edi
  1008a4:	56                   	push   %esi
  1008a5:	53                   	push   %ebx
  1008a6:	83 ec 18             	sub    $0x18,%esp
  1008a9:	8b 5d 08             	mov    0x8(%ebp),%ebx
  1008ac:	8b 4d 10             	mov    0x10(%ebp),%ecx
  1008af:	85 c9                	test   %ecx,%ecx
  1008b1:	75 02                	jne    1008b5 <core_init_matrix+0x15>
  1008b3:	b1 01                	mov    $0x1,%cl
  1008b5:	85 db                	test   %ebx,%ebx
  1008b7:	0f 84 e0 00 00 00    	je     10099d <core_init_matrix+0xfd>
  1008bd:	31 f6                	xor    %esi,%esi
  1008bf:	eb 05                	jmp    1008c6 <core_init_matrix+0x26>
  1008c1:	8d 76 00             	lea    0x0(%esi),%esi
  1008c4:	89 c6                	mov    %eax,%esi
  1008c6:	8d 46 01             	lea    0x1(%esi),%eax
  1008c9:	89 c2                	mov    %eax,%edx
  1008cb:	0f af d0             	imul   %eax,%edx
  1008ce:	c1 e2 03             	shl    $0x3,%edx
  1008d1:	39 d3                	cmp    %edx,%ebx
  1008d3:	77 ef                	ja     1008c4 <core_init_matrix+0x24>
  1008d5:	89 f7                	mov    %esi,%edi
  1008d7:	89 75 f0             	mov    %esi,-0x10(%ebp)
  1008da:	8b 45 0c             	mov    0xc(%ebp),%eax
  1008dd:	48                   	dec    %eax
  1008de:	83 e0 fc             	and    $0xfffffffc,%eax
  1008e1:	83 c0 04             	add    $0x4,%eax
  1008e4:	89 c6                	mov    %eax,%esi
  1008e6:	89 45 e8             	mov    %eax,-0x18(%ebp)
  1008e9:	89 f8                	mov    %edi,%eax
  1008eb:	0f af c7             	imul   %edi,%eax
  1008ee:	01 c0                	add    %eax,%eax
  1008f0:	89 c2                	mov    %eax,%edx
  1008f2:	89 45 e0             	mov    %eax,-0x20(%ebp)
  1008f5:	89 f0                	mov    %esi,%eax
  1008f7:	01 d0                	add    %edx,%eax
  1008f9:	89 45 e4             	mov    %eax,-0x1c(%ebp)
  1008fc:	85 ff                	test   %edi,%edi
  1008fe:	0f 84 c6 00 00 00    	je     1009ca <core_init_matrix+0x12a>
  100904:	89 7d dc             	mov    %edi,-0x24(%ebp)
  100907:	c7 45 ec 00 00 00 00 	movl   $0x0,-0x14(%ebp)
  10090e:	ba 01 00 00 00       	mov    $0x1,%edx
  100913:	90                   	nop
  100914:	8b 75 ec             	mov    -0x14(%ebp),%esi
  100917:	0f af 75 f0          	imul   -0x10(%ebp),%esi
  10091b:	01 f6                	add    %esi,%esi
  10091d:	8b 45 e4             	mov    -0x1c(%ebp),%eax
  100920:	8d 3c 30             	lea    (%eax,%esi,1),%edi
  100923:	03 75 e8             	add    -0x18(%ebp),%esi
  100926:	31 c0                	xor    %eax,%eax
  100928:	eb 1c                	jmp    100946 <core_init_matrix+0xa6>
  10092a:	66 90                	xchg   %ax,%ax
  10092c:	8d 1c 0a             	lea    (%edx,%ecx,1),%ebx
  10092f:	66 89 1c 47          	mov    %bx,(%edi,%eax,2)
  100933:	01 d3                	add    %edx,%ebx
  100935:	81 e3 ff 00 00 00    	and    $0xff,%ebx
  10093b:	66 89 1c 46          	mov    %bx,(%esi,%eax,2)
  10093f:	42                   	inc    %edx
  100940:	40                   	inc    %eax
  100941:	3b 45 f0             	cmp    -0x10(%ebp),%eax
  100944:	73 16                	jae    10095c <core_init_matrix+0xbc>
  100946:	0f af ca             	imul   %edx,%ecx
  100949:	81 e1 ff ff 00 80    	and    $0x8000ffff,%ecx
  10094f:	79 db                	jns    10092c <core_init_matrix+0x8c>
  100951:	49                   	dec    %ecx
  100952:	81 c9 00 00 ff ff    	or     $0xffff0000,%ecx
  100958:	41                   	inc    %ecx
  100959:	eb d1                	jmp    10092c <core_init_matrix+0x8c>
  10095b:	90                   	nop
  10095c:	ff 45 ec             	incl   -0x14(%ebp)
  10095f:	8b 45 f0             	mov    -0x10(%ebp),%eax
  100962:	39 45 ec             	cmp    %eax,-0x14(%ebp)
  100965:	72 ad                	jb     100914 <core_init_matrix+0x74>
  100967:	8b 45 14             	mov    0x14(%ebp),%eax
  10096a:	8b 7d e8             	mov    -0x18(%ebp),%edi
  10096d:	89 78 04             	mov    %edi,0x4(%eax)
  100970:	89 c7                	mov    %eax,%edi
  100972:	8b 45 e4             	mov    -0x1c(%ebp),%eax
  100975:	89 47 08             	mov    %eax,0x8(%edi)
  100978:	8b 7d e0             	mov    -0x20(%ebp),%edi
  10097b:	8d 44 38 ff          	lea    -0x1(%eax,%edi,1),%eax
  10097f:	83 e0 fc             	and    $0xfffffffc,%eax
  100982:	83 c0 04             	add    $0x4,%eax
  100985:	8b 7d 14             	mov    0x14(%ebp),%edi
  100988:	89 47 0c             	mov    %eax,0xc(%edi)
  10098b:	89 f8                	mov    %edi,%eax
  10098d:	8b 7d dc             	mov    -0x24(%ebp),%edi
  100990:	89 38                	mov    %edi,(%eax)
  100992:	8b 45 f0             	mov    -0x10(%ebp),%eax
  100995:	83 c4 18             	add    $0x18,%esp
  100998:	5b                   	pop    %ebx
  100999:	5e                   	pop    %esi
  10099a:	5f                   	pop    %edi
  10099b:	5d                   	pop    %ebp
  10099c:	c3                   	ret    
  10099d:	8b 45 0c             	mov    0xc(%ebp),%eax
  1009a0:	48                   	dec    %eax
  1009a1:	83 e0 fc             	and    $0xfffffffc,%eax
  1009a4:	8d 78 04             	lea    0x4(%eax),%edi
  1009a7:	89 7d e8             	mov    %edi,-0x18(%ebp)
  1009aa:	83 c0 06             	add    $0x6,%eax
  1009ad:	89 45 e4             	mov    %eax,-0x1c(%ebp)
  1009b0:	c7 45 dc ff ff ff ff 	movl   $0xffffffff,-0x24(%ebp)
  1009b7:	c7 45 e0 02 00 00 00 	movl   $0x2,-0x20(%ebp)
  1009be:	c7 45 f0 ff ff ff ff 	movl   $0xffffffff,-0x10(%ebp)
  1009c5:	e9 3d ff ff ff       	jmp    100907 <core_init_matrix+0x67>
  1009ca:	c7 45 dc 00 00 00 00 	movl   $0x0,-0x24(%ebp)
  1009d1:	eb 94                	jmp    100967 <core_init_matrix+0xc7>
  1009d3:	90                   	nop

001009d4 <matrix_sum>:
  1009d4:	55                   	push   %ebp
  1009d5:	89 e5                	mov    %esp,%ebp
  1009d7:	57                   	push   %edi
  1009d8:	56                   	push   %esi
  1009d9:	53                   	push   %ebx
  1009da:	83 ec 0c             	sub    $0xc,%esp
  1009dd:	8b 45 10             	mov    0x10(%ebp),%eax
  1009e0:	8b 55 08             	mov    0x8(%ebp),%edx
  1009e3:	85 d2                	test   %edx,%edx
  1009e5:	74 5e                	je     100a45 <matrix_sum+0x71>
  1009e7:	98                   	cwtl   
  1009e8:	89 45 f0             	mov    %eax,-0x10(%ebp)
  1009eb:	8b 45 08             	mov    0x8(%ebp),%eax
  1009ee:	c1 e0 02             	shl    $0x2,%eax
  1009f1:	89 45 e8             	mov    %eax,-0x18(%ebp)
  1009f4:	8b 55 0c             	mov    0xc(%ebp),%edx
  1009f7:	c7 45 ec 00 00 00 00 	movl   $0x0,-0x14(%ebp)
  1009fe:	31 f6                	xor    %esi,%esi
  100a00:	31 c0                	xor    %eax,%eax
  100a02:	31 c9                	xor    %ecx,%ecx
  100a04:	8b 7d e8             	mov    -0x18(%ebp),%edi
  100a07:	01 d7                	add    %edx,%edi
  100a09:	eb 0f                	jmp    100a1a <matrix_sum+0x46>
  100a0b:	90                   	nop
  100a0c:	83 c6 0a             	add    $0xa,%esi
  100a0f:	31 c9                	xor    %ecx,%ecx
  100a11:	83 c2 04             	add    $0x4,%edx
  100a14:	39 d7                	cmp    %edx,%edi
  100a16:	74 1c                	je     100a34 <matrix_sum+0x60>
  100a18:	89 d8                	mov    %ebx,%eax
  100a1a:	8b 1a                	mov    (%edx),%ebx
  100a1c:	01 d9                	add    %ebx,%ecx
  100a1e:	3b 4d f0             	cmp    -0x10(%ebp),%ecx
  100a21:	7f e9                	jg     100a0c <matrix_sum+0x38>
  100a23:	39 c3                	cmp    %eax,%ebx
  100a25:	0f 9f c0             	setg   %al
  100a28:	0f b6 c0             	movzbl %al,%eax
  100a2b:	01 c6                	add    %eax,%esi
  100a2d:	83 c2 04             	add    $0x4,%edx
  100a30:	39 d7                	cmp    %edx,%edi
  100a32:	75 e4                	jne    100a18 <matrix_sum+0x44>
  100a34:	ff 45 ec             	incl   -0x14(%ebp)
  100a37:	8b 45 ec             	mov    -0x14(%ebp),%eax
  100a3a:	3b 45 08             	cmp    0x8(%ebp),%eax
  100a3d:	74 08                	je     100a47 <matrix_sum+0x73>
  100a3f:	89 fa                	mov    %edi,%edx
  100a41:	89 d8                	mov    %ebx,%eax
  100a43:	eb bf                	jmp    100a04 <matrix_sum+0x30>
  100a45:	31 f6                	xor    %esi,%esi
  100a47:	89 f0                	mov    %esi,%eax
  100a49:	83 c4 0c             	add    $0xc,%esp
  100a4c:	5b                   	pop    %ebx
  100a4d:	5e                   	pop    %esi
  100a4e:	5f                   	pop    %edi
  100a4f:	5d                   	pop    %ebp
  100a50:	c3                   	ret    
  100a51:	8d 76 00             	lea    0x0(%esi),%esi

00100a54 <matrix_mul_const>:
  100a54:	55                   	push   %ebp
  100a55:	89 e5                	mov    %esp,%ebp
  100a57:	57                   	push   %edi
  100a58:	56                   	push   %esi
  100a59:	53                   	push   %ebx
  100a5a:	83 ec 0c             	sub    $0xc,%esp
  100a5d:	8b 75 08             	mov    0x8(%ebp),%esi
  100a60:	8b 7d 14             	mov    0x14(%ebp),%edi
  100a63:	85 f6                	test   %esi,%esi
  100a65:	74 42                	je     100aa9 <matrix_mul_const+0x55>
  100a67:	0f bf ff             	movswl %di,%edi
  100a6a:	8d 04 36             	lea    (%esi,%esi,1),%eax
  100a6d:	89 45 e8             	mov    %eax,-0x18(%ebp)
  100a70:	8b 5d 10             	mov    0x10(%ebp),%ebx
  100a73:	8d 04 b5 00 00 00 00 	lea    0x0(,%esi,4),%eax
  100a7a:	89 45 ec             	mov    %eax,-0x14(%ebp)
  100a7d:	8b 4d 0c             	mov    0xc(%ebp),%ecx
  100a80:	c7 45 f0 00 00 00 00 	movl   $0x0,-0x10(%ebp)
  100a87:	90                   	nop
  100a88:	31 c0                	xor    %eax,%eax
  100a8a:	66 90                	xchg   %ax,%ax
  100a8c:	0f bf 14 43          	movswl (%ebx,%eax,2),%edx
  100a90:	0f af d7             	imul   %edi,%edx
  100a93:	89 14 81             	mov    %edx,(%ecx,%eax,4)
  100a96:	40                   	inc    %eax
  100a97:	39 f0                	cmp    %esi,%eax
  100a99:	75 f1                	jne    100a8c <matrix_mul_const+0x38>
  100a9b:	ff 45 f0             	incl   -0x10(%ebp)
  100a9e:	03 5d e8             	add    -0x18(%ebp),%ebx
  100aa1:	03 4d ec             	add    -0x14(%ebp),%ecx
  100aa4:	39 75 f0             	cmp    %esi,-0x10(%ebp)
  100aa7:	75 df                	jne    100a88 <matrix_mul_const+0x34>
  100aa9:	83 c4 0c             	add    $0xc,%esp
  100aac:	5b                   	pop    %ebx
  100aad:	5e                   	pop    %esi
  100aae:	5f                   	pop    %edi
  100aaf:	5d                   	pop    %ebp
  100ab0:	c3                   	ret    
  100ab1:	8d 76 00             	lea    0x0(%esi),%esi

00100ab4 <matrix_add_const>:
  100ab4:	55                   	push   %ebp
  100ab5:	89 e5                	mov    %esp,%ebp
  100ab7:	57                   	push   %edi
  100ab8:	56                   	push   %esi
  100ab9:	53                   	push   %ebx
  100aba:	8b 75 08             	mov    0x8(%ebp),%esi
  100abd:	8b 4d 10             	mov    0x10(%ebp),%ecx
  100ac0:	85 f6                	test   %esi,%esi
  100ac2:	74 1b                	je     100adf <matrix_add_const+0x2b>
  100ac4:	8d 3c 36             	lea    (%esi,%esi,1),%edi
  100ac7:	8b 45 0c             	mov    0xc(%ebp),%eax
  100aca:	31 db                	xor    %ebx,%ebx
  100acc:	8d 14 07             	lea    (%edi,%eax,1),%edx
  100acf:	90                   	nop
  100ad0:	66 01 08             	add    %cx,(%eax)
  100ad3:	83 c0 02             	add    $0x2,%eax
  100ad6:	39 d0                	cmp    %edx,%eax
  100ad8:	75 f6                	jne    100ad0 <matrix_add_const+0x1c>
  100ada:	43                   	inc    %ebx
  100adb:	39 f3                	cmp    %esi,%ebx
  100add:	75 ed                	jne    100acc <matrix_add_const+0x18>
  100adf:	5b                   	pop    %ebx
  100ae0:	5e                   	pop    %esi
  100ae1:	5f                   	pop    %edi
  100ae2:	5d                   	pop    %ebp
  100ae3:	c3                   	ret    

00100ae4 <matrix_mul_vect>:
  100ae4:	55                   	push   %ebp
  100ae5:	89 e5                	mov    %esp,%ebp
  100ae7:	57                   	push   %edi
  100ae8:	56                   	push   %esi
  100ae9:	53                   	push   %ebx
  100aea:	83 ec 08             	sub    $0x8,%esp
  100aed:	8b 7d 14             	mov    0x14(%ebp),%edi
  100af0:	8b 45 08             	mov    0x8(%ebp),%eax
  100af3:	85 c0                	test   %eax,%eax
  100af5:	74 43                	je     100b3a <matrix_mul_vect+0x56>
  100af7:	8b 45 08             	mov    0x8(%ebp),%eax
  100afa:	01 c0                	add    %eax,%eax
  100afc:	89 45 ec             	mov    %eax,-0x14(%ebp)
  100aff:	8b 75 10             	mov    0x10(%ebp),%esi
  100b02:	c7 45 f0 00 00 00 00 	movl   $0x0,-0x10(%ebp)
  100b09:	8d 76 00             	lea    0x0(%esi),%esi
  100b0c:	31 c9                	xor    %ecx,%ecx
  100b0e:	31 c0                	xor    %eax,%eax
  100b10:	0f bf 14 46          	movswl (%esi,%eax,2),%edx
  100b14:	0f bf 1c 47          	movswl (%edi,%eax,2),%ebx
  100b18:	0f af d3             	imul   %ebx,%edx
  100b1b:	01 d1                	add    %edx,%ecx
  100b1d:	40                   	inc    %eax
  100b1e:	3b 45 08             	cmp    0x8(%ebp),%eax
  100b21:	75 ed                	jne    100b10 <matrix_mul_vect+0x2c>
  100b23:	8b 45 0c             	mov    0xc(%ebp),%eax
  100b26:	8b 5d f0             	mov    -0x10(%ebp),%ebx
  100b29:	89 0c 98             	mov    %ecx,(%eax,%ebx,4)
  100b2c:	ff 45 f0             	incl   -0x10(%ebp)
  100b2f:	03 75 ec             	add    -0x14(%ebp),%esi
  100b32:	8b 45 f0             	mov    -0x10(%ebp),%eax
  100b35:	3b 45 08             	cmp    0x8(%ebp),%eax
  100b38:	75 d2                	jne    100b0c <matrix_mul_vect+0x28>
  100b3a:	83 c4 08             	add    $0x8,%esp
  100b3d:	5b                   	pop    %ebx
  100b3e:	5e                   	pop    %esi
  100b3f:	5f                   	pop    %edi
  100b40:	5d                   	pop    %ebp
  100b41:	c3                   	ret    
  100b42:	66 90                	xchg   %ax,%ax

00100b44 <matrix_mul_matrix>:
  100b44:	55                   	push   %ebp
  100b45:	89 e5                	mov    %esp,%ebp
  100b47:	57                   	push   %edi
  100b48:	56                   	push   %esi
  100b49:	53                   	push   %ebx
  100b4a:	83 ec 18             	sub    $0x18,%esp
  100b4d:	8b 45 08             	mov    0x8(%ebp),%eax
  100b50:	85 c0                	test   %eax,%eax
  100b52:	74 79                	je     100bcd <matrix_mul_matrix+0x89>
  100b54:	8b 45 08             	mov    0x8(%ebp),%eax
  100b57:	c1 e0 02             	shl    $0x2,%eax
  100b5a:	89 45 dc             	mov    %eax,-0x24(%ebp)
  100b5d:	8b 45 0c             	mov    0xc(%ebp),%eax
  100b60:	89 45 e4             	mov    %eax,-0x1c(%ebp)
  100b63:	8b 45 08             	mov    0x8(%ebp),%eax
  100b66:	01 c0                	add    %eax,%eax
  100b68:	89 45 f0             	mov    %eax,-0x10(%ebp)
  100b6b:	8b 7d 10             	mov    0x10(%ebp),%edi
  100b6e:	c7 45 e0 00 00 00 00 	movl   $0x0,-0x20(%ebp)
  100b75:	8b 45 14             	mov    0x14(%ebp),%eax
  100b78:	89 45 e8             	mov    %eax,-0x18(%ebp)
  100b7b:	c7 45 ec 00 00 00 00 	movl   $0x0,-0x14(%ebp)
  100b82:	66 90                	xchg   %ax,%ax
  100b84:	8b 4d e8             	mov    -0x18(%ebp),%ecx
  100b87:	31 db                	xor    %ebx,%ebx
  100b89:	31 c0                	xor    %eax,%eax
  100b8b:	90                   	nop
  100b8c:	0f bf 14 47          	movswl (%edi,%eax,2),%edx
  100b90:	0f bf 31             	movswl (%ecx),%esi
  100b93:	0f af d6             	imul   %esi,%edx
  100b96:	01 d3                	add    %edx,%ebx
  100b98:	40                   	inc    %eax
  100b99:	03 4d f0             	add    -0x10(%ebp),%ecx
  100b9c:	3b 45 08             	cmp    0x8(%ebp),%eax
  100b9f:	75 eb                	jne    100b8c <matrix_mul_matrix+0x48>
  100ba1:	8b 45 e4             	mov    -0x1c(%ebp),%eax
  100ba4:	8b 75 ec             	mov    -0x14(%ebp),%esi
  100ba7:	89 1c b0             	mov    %ebx,(%eax,%esi,4)
  100baa:	ff 45 ec             	incl   -0x14(%ebp)
  100bad:	83 45 e8 02          	addl   $0x2,-0x18(%ebp)
  100bb1:	8b 45 ec             	mov    -0x14(%ebp),%eax
  100bb4:	3b 45 08             	cmp    0x8(%ebp),%eax
  100bb7:	75 cb                	jne    100b84 <matrix_mul_matrix+0x40>
  100bb9:	ff 45 e0             	incl   -0x20(%ebp)
  100bbc:	8b 45 dc             	mov    -0x24(%ebp),%eax
  100bbf:	01 45 e4             	add    %eax,-0x1c(%ebp)
  100bc2:	03 7d f0             	add    -0x10(%ebp),%edi
  100bc5:	8b 45 e0             	mov    -0x20(%ebp),%eax
  100bc8:	3b 45 08             	cmp    0x8(%ebp),%eax
  100bcb:	75 a8                	jne    100b75 <matrix_mul_matrix+0x31>
  100bcd:	83 c4 18             	add    $0x18,%esp
  100bd0:	5b                   	pop    %ebx
  100bd1:	5e                   	pop    %esi
  100bd2:	5f                   	pop    %edi
  100bd3:	5d                   	pop    %ebp
  100bd4:	c3                   	ret    
  100bd5:	8d 76 00             	lea    0x0(%esi),%esi

00100bd8 <matrix_mul_matrix_bitextract>:
  100bd8:	55                   	push   %ebp
  100bd9:	89 e5                	mov    %esp,%ebp
  100bdb:	57                   	push   %edi
  100bdc:	56                   	push   %esi
  100bdd:	53                   	push   %ebx
  100bde:	83 ec 18             	sub    $0x18,%esp
  100be1:	8b 45 08             	mov    0x8(%ebp),%eax
  100be4:	85 c0                	test   %eax,%eax
  100be6:	0f 84 8a 00 00 00    	je     100c76 <matrix_mul_matrix_bitextract+0x9e>
  100bec:	8b 45 08             	mov    0x8(%ebp),%eax
  100bef:	c1 e0 02             	shl    $0x2,%eax
  100bf2:	89 45 dc             	mov    %eax,-0x24(%ebp)
  100bf5:	8b 45 0c             	mov    0xc(%ebp),%eax
  100bf8:	89 45 e4             	mov    %eax,-0x1c(%ebp)
  100bfb:	8b 45 08             	mov    0x8(%ebp),%eax
  100bfe:	01 c0                	add    %eax,%eax
  100c00:	89 45 f0             	mov    %eax,-0x10(%ebp)
  100c03:	8b 7d 10             	mov    0x10(%ebp),%edi
  100c06:	c7 45 e0 00 00 00 00 	movl   $0x0,-0x20(%ebp)
  100c0d:	8b 45 14             	mov    0x14(%ebp),%eax
  100c10:	89 45 e8             	mov    %eax,-0x18(%ebp)
  100c13:	c7 45 ec 00 00 00 00 	movl   $0x0,-0x14(%ebp)
  100c1a:	66 90                	xchg   %ax,%ax
  100c1c:	8b 5d e8             	mov    -0x18(%ebp),%ebx
  100c1f:	31 f6                	xor    %esi,%esi
  100c21:	31 c9                	xor    %ecx,%ecx
  100c23:	90                   	nop
  100c24:	0f bf 14 4f          	movswl (%edi,%ecx,2),%edx
  100c28:	0f bf 03             	movswl (%ebx),%eax
  100c2b:	0f af d0             	imul   %eax,%edx
  100c2e:	89 d0                	mov    %edx,%eax
  100c30:	c1 f8 05             	sar    $0x5,%eax
  100c33:	83 e0 7f             	and    $0x7f,%eax
  100c36:	c1 fa 02             	sar    $0x2,%edx
  100c39:	83 e2 0f             	and    $0xf,%edx
  100c3c:	0f af c2             	imul   %edx,%eax
  100c3f:	01 c6                	add    %eax,%esi
  100c41:	41                   	inc    %ecx
  100c42:	03 5d f0             	add    -0x10(%ebp),%ebx
  100c45:	3b 4d 08             	cmp    0x8(%ebp),%ecx
  100c48:	75 da                	jne    100c24 <matrix_mul_matrix_bitextract+0x4c>
  100c4a:	8b 45 e4             	mov    -0x1c(%ebp),%eax
  100c4d:	8b 5d ec             	mov    -0x14(%ebp),%ebx
  100c50:	89 34 98             	mov    %esi,(%eax,%ebx,4)
  100c53:	ff 45 ec             	incl   -0x14(%ebp)
  100c56:	83 45 e8 02          	addl   $0x2,-0x18(%ebp)
  100c5a:	8b 45 ec             	mov    -0x14(%ebp),%eax
  100c5d:	3b 45 08             	cmp    0x8(%ebp),%eax
  100c60:	75 ba                	jne    100c1c <matrix_mul_matrix_bitextract+0x44>
  100c62:	ff 45 e0             	incl   -0x20(%ebp)
  100c65:	8b 45 dc             	mov    -0x24(%ebp),%eax
  100c68:	01 45 e4             	add    %eax,-0x1c(%ebp)
  100c6b:	03 7d f0             	add    -0x10(%ebp),%edi
  100c6e:	8b 45 e0             	mov    -0x20(%ebp),%eax
  100c71:	3b 45 08             	cmp    0x8(%ebp),%eax
  100c74:	75 97                	jne    100c0d <matrix_mul_matrix_bitextract+0x35>
  100c76:	83 c4 18             	add    $0x18,%esp
  100c79:	5b                   	pop    %ebx
  100c7a:	5e                   	pop    %esi
  100c7b:	5f                   	pop    %edi
  100c7c:	5d                   	pop    %ebp
  100c7d:	c3                   	ret    
  100c7e:	66 90                	xchg   %ax,%ax

00100c80 <matrix_test>:
  100c80:	55                   	push   %ebp
  100c81:	89 e5                	mov    %esp,%ebp
  100c83:	57                   	push   %edi
  100c84:	56                   	push   %esi
  100c85:	53                   	push   %ebx
  100c86:	83 ec 3c             	sub    $0x3c,%esp
  100c89:	8b 5d 08             	mov    0x8(%ebp),%ebx
  100c8c:	8b 45 18             	mov    0x18(%ebp),%eax
  100c8f:	89 45 d8             	mov    %eax,-0x28(%ebp)
  100c92:	89 c7                	mov    %eax,%edi
  100c94:	81 cf 00 f0 ff ff    	or     $0xfffff000,%edi
  100c9a:	66 89 7d d6          	mov    %di,-0x2a(%ebp)
  100c9e:	85 db                	test   %ebx,%ebx
  100ca0:	74 67                	je     100d09 <matrix_test+0x89>
  100ca2:	89 c1                	mov    %eax,%ecx
  100ca4:	8d 04 1b             	lea    (%ebx,%ebx,1),%eax
  100ca7:	89 c7                	mov    %eax,%edi
  100ca9:	89 45 dc             	mov    %eax,-0x24(%ebp)
  100cac:	8b 45 10             	mov    0x10(%ebp),%eax
  100caf:	31 f6                	xor    %esi,%esi
  100cb1:	8d 76 00             	lea    0x0(%esi),%esi
  100cb4:	8d 14 07             	lea    (%edi,%eax,1),%edx
  100cb7:	90                   	nop
  100cb8:	66 01 08             	add    %cx,(%eax)
  100cbb:	83 c0 02             	add    $0x2,%eax
  100cbe:	39 c2                	cmp    %eax,%edx
  100cc0:	75 f6                	jne    100cb8 <matrix_test+0x38>
  100cc2:	46                   	inc    %esi
  100cc3:	39 de                	cmp    %ebx,%esi
  100cc5:	74 04                	je     100ccb <matrix_test+0x4b>
  100cc7:	89 d0                	mov    %edx,%eax
  100cc9:	eb e9                	jmp    100cb4 <matrix_test+0x34>
  100ccb:	0f bf 7d d8          	movswl -0x28(%ebp),%edi
  100ccf:	8d 04 9d 00 00 00 00 	lea    0x0(,%ebx,4),%eax
  100cd6:	89 45 e0             	mov    %eax,-0x20(%ebp)
  100cd9:	8b 75 0c             	mov    0xc(%ebp),%esi
  100cdc:	8b 4d 10             	mov    0x10(%ebp),%ecx
  100cdf:	c7 45 e4 00 00 00 00 	movl   $0x0,-0x1c(%ebp)
  100ce6:	66 90                	xchg   %ax,%ax
  100ce8:	31 c0                	xor    %eax,%eax
  100cea:	66 90                	xchg   %ax,%ax
  100cec:	0f bf 14 41          	movswl (%ecx,%eax,2),%edx
  100cf0:	0f af d7             	imul   %edi,%edx
  100cf3:	89 14 86             	mov    %edx,(%esi,%eax,4)
  100cf6:	40                   	inc    %eax
  100cf7:	39 d8                	cmp    %ebx,%eax
  100cf9:	75 f1                	jne    100cec <matrix_test+0x6c>
  100cfb:	ff 45 e4             	incl   -0x1c(%ebp)
  100cfe:	03 4d dc             	add    -0x24(%ebp),%ecx
  100d01:	03 75 e0             	add    -0x20(%ebp),%esi
  100d04:	39 5d e4             	cmp    %ebx,-0x1c(%ebp)
  100d07:	75 df                	jne    100ce8 <matrix_test+0x68>
  100d09:	8b 75 d8             	mov    -0x28(%ebp),%esi
  100d0c:	0f bf 7d d6          	movswl -0x2a(%ebp),%edi
  100d10:	89 7c 24 08          	mov    %edi,0x8(%esp)
  100d14:	8b 45 0c             	mov    0xc(%ebp),%eax
  100d17:	89 44 24 04          	mov    %eax,0x4(%esp)
  100d1b:	89 1c 24             	mov    %ebx,(%esp)
  100d1e:	e8 b1 fc ff ff       	call   1009d4 <matrix_sum>
  100d23:	c7 44 24 04 00 00 00 	movl   $0x0,0x4(%esp)
  100d2a:	00 
  100d2b:	98                   	cwtl   
  100d2c:	89 04 24             	mov    %eax,(%esp)
  100d2f:	e8 48 f4 ff ff       	call   10017c <crc16>
  100d34:	89 45 e4             	mov    %eax,-0x1c(%ebp)
  100d37:	8b 45 14             	mov    0x14(%ebp),%eax
  100d3a:	89 44 24 0c          	mov    %eax,0xc(%esp)
  100d3e:	8b 45 10             	mov    0x10(%ebp),%eax
  100d41:	89 44 24 08          	mov    %eax,0x8(%esp)
  100d45:	8b 45 0c             	mov    0xc(%ebp),%eax
  100d48:	89 44 24 04          	mov    %eax,0x4(%esp)
  100d4c:	89 1c 24             	mov    %ebx,(%esp)
  100d4f:	e8 90 fd ff ff       	call   100ae4 <matrix_mul_vect>
  100d54:	8b 45 e4             	mov    -0x1c(%ebp),%eax
  100d57:	0f b7 d0             	movzwl %ax,%edx
  100d5a:	89 55 e4             	mov    %edx,-0x1c(%ebp)
  100d5d:	89 7c 24 08          	mov    %edi,0x8(%esp)
  100d61:	8b 45 0c             	mov    0xc(%ebp),%eax
  100d64:	89 44 24 04          	mov    %eax,0x4(%esp)
  100d68:	89 1c 24             	mov    %ebx,(%esp)
  100d6b:	e8 64 fc ff ff       	call   1009d4 <matrix_sum>
  100d70:	8b 55 e4             	mov    -0x1c(%ebp),%edx
  100d73:	89 54 24 04          	mov    %edx,0x4(%esp)
  100d77:	98                   	cwtl   
  100d78:	89 04 24             	mov    %eax,(%esp)
  100d7b:	e8 fc f3 ff ff       	call   10017c <crc16>
  100d80:	89 45 e4             	mov    %eax,-0x1c(%ebp)
  100d83:	8b 45 14             	mov    0x14(%ebp),%eax
  100d86:	89 44 24 0c          	mov    %eax,0xc(%esp)
  100d8a:	8b 45 10             	mov    0x10(%ebp),%eax
  100d8d:	89 44 24 08          	mov    %eax,0x8(%esp)
  100d91:	8b 45 0c             	mov    0xc(%ebp),%eax
  100d94:	89 44 24 04          	mov    %eax,0x4(%esp)
  100d98:	89 1c 24             	mov    %ebx,(%esp)
  100d9b:	e8 a4 fd ff ff       	call   100b44 <matrix_mul_matrix>
  100da0:	8b 45 e4             	mov    -0x1c(%ebp),%eax
  100da3:	0f b7 d0             	movzwl %ax,%edx
  100da6:	89 55 e4             	mov    %edx,-0x1c(%ebp)
  100da9:	89 7c 24 08          	mov    %edi,0x8(%esp)
  100dad:	8b 45 0c             	mov    0xc(%ebp),%eax
  100db0:	89 44 24 04          	mov    %eax,0x4(%esp)
  100db4:	89 1c 24             	mov    %ebx,(%esp)
  100db7:	e8 18 fc ff ff       	call   1009d4 <matrix_sum>
  100dbc:	8b 55 e4             	mov    -0x1c(%ebp),%edx
  100dbf:	89 54 24 04          	mov    %edx,0x4(%esp)
  100dc3:	98                   	cwtl   
  100dc4:	89 04 24             	mov    %eax,(%esp)
  100dc7:	e8 b0 f3 ff ff       	call   10017c <crc16>
  100dcc:	89 45 e4             	mov    %eax,-0x1c(%ebp)
  100dcf:	8b 45 14             	mov    0x14(%ebp),%eax
  100dd2:	89 44 24 0c          	mov    %eax,0xc(%esp)
  100dd6:	8b 45 10             	mov    0x10(%ebp),%eax
  100dd9:	89 44 24 08          	mov    %eax,0x8(%esp)
  100ddd:	8b 45 0c             	mov    0xc(%ebp),%eax
  100de0:	89 44 24 04          	mov    %eax,0x4(%esp)
  100de4:	89 1c 24             	mov    %ebx,(%esp)
  100de7:	e8 ec fd ff ff       	call   100bd8 <matrix_mul_matrix_bitextract>
  100dec:	8b 45 e4             	mov    -0x1c(%ebp),%eax
  100def:	0f b7 d0             	movzwl %ax,%edx
  100df2:	89 55 e4             	mov    %edx,-0x1c(%ebp)
  100df5:	89 7c 24 08          	mov    %edi,0x8(%esp)
  100df9:	8b 45 0c             	mov    0xc(%ebp),%eax
  100dfc:	89 44 24 04          	mov    %eax,0x4(%esp)
  100e00:	89 1c 24             	mov    %ebx,(%esp)
  100e03:	e8 cc fb ff ff       	call   1009d4 <matrix_sum>
  100e08:	8b 55 e4             	mov    -0x1c(%ebp),%edx
  100e0b:	89 54 24 04          	mov    %edx,0x4(%esp)
  100e0f:	98                   	cwtl   
  100e10:	89 04 24             	mov    %eax,(%esp)
  100e13:	e8 64 f3 ff ff       	call   10017c <crc16>
  100e18:	66 89 45 e4          	mov    %ax,-0x1c(%ebp)
  100e1c:	85 db                	test   %ebx,%ebx
  100e1e:	74 1b                	je     100e3b <matrix_test+0x1bb>
  100e20:	8d 3c 1b             	lea    (%ebx,%ebx,1),%edi
  100e23:	8b 45 10             	mov    0x10(%ebp),%eax
  100e26:	31 c9                	xor    %ecx,%ecx
  100e28:	8d 14 07             	lea    (%edi,%eax,1),%edx
  100e2b:	90                   	nop
  100e2c:	66 29 30             	sub    %si,(%eax)
  100e2f:	83 c0 02             	add    $0x2,%eax
  100e32:	39 d0                	cmp    %edx,%eax
  100e34:	75 f6                	jne    100e2c <matrix_test+0x1ac>
  100e36:	41                   	inc    %ecx
  100e37:	39 d9                	cmp    %ebx,%ecx
  100e39:	75 ed                	jne    100e28 <matrix_test+0x1a8>
  100e3b:	8b 45 e4             	mov    -0x1c(%ebp),%eax
  100e3e:	83 c4 3c             	add    $0x3c,%esp
  100e41:	5b                   	pop    %ebx
  100e42:	5e                   	pop    %esi
  100e43:	5f                   	pop    %edi
  100e44:	5d                   	pop    %ebp
  100e45:	c3                   	ret    
  100e46:	66 90                	xchg   %ax,%ax

00100e48 <core_bench_matrix>:
  100e48:	55                   	push   %ebp
  100e49:	89 e5                	mov    %esp,%ebp
  100e4b:	53                   	push   %ebx
  100e4c:	83 ec 24             	sub    $0x24,%esp
  100e4f:	8b 45 08             	mov    0x8(%ebp),%eax
  100e52:	0f b7 5d 10          	movzwl 0x10(%ebp),%ebx
  100e56:	0f bf 55 0c          	movswl 0xc(%ebp),%edx
  100e5a:	89 54 24 10          	mov    %edx,0x10(%esp)
  100e5e:	8b 50 08             	mov    0x8(%eax),%edx
  100e61:	89 54 24 0c          	mov    %edx,0xc(%esp)
  100e65:	8b 50 04             	mov    0x4(%eax),%edx
  100e68:	89 54 24 08          	mov    %edx,0x8(%esp)
  100e6c:	8b 50 0c             	mov    0xc(%eax),%edx
  100e6f:	89 54 24 04          	mov    %edx,0x4(%esp)
  100e73:	8b 00                	mov    (%eax),%eax
  100e75:	89 04 24             	mov    %eax,(%esp)
  100e78:	e8 03 fe ff ff       	call   100c80 <matrix_test>
  100e7d:	89 5d 0c             	mov    %ebx,0xc(%ebp)
  100e80:	98                   	cwtl   
  100e81:	89 45 08             	mov    %eax,0x8(%ebp)
  100e84:	83 c4 24             	add    $0x24,%esp
  100e87:	5b                   	pop    %ebx
  100e88:	5d                   	pop    %ebp
  100e89:	e9 ee f2 ff ff       	jmp    10017c <crc16>
  100e8e:	66 90                	xchg   %ax,%ax

00100e90 <start_time>:
  100e90:	55                   	push   %ebp
  100e91:	89 e5                	mov    %esp,%ebp
  100e93:	83 ec 08             	sub    $0x8,%esp
  100e96:	e8 ad 12 00 00       	call   102148 <_uptime>
  100e9b:	a3 d0 27 10 00       	mov    %eax,0x1027d0
  100ea0:	c9                   	leave  
  100ea1:	c3                   	ret    
  100ea2:	66 90                	xchg   %ax,%ax

00100ea4 <stop_time>:
  100ea4:	55                   	push   %ebp
  100ea5:	89 e5                	mov    %esp,%ebp
  100ea7:	83 ec 08             	sub    $0x8,%esp
  100eaa:	e8 99 12 00 00       	call   102148 <_uptime>
  100eaf:	a3 d4 27 10 00       	mov    %eax,0x1027d4
  100eb4:	c9                   	leave  
  100eb5:	c3                   	ret    
  100eb6:	66 90                	xchg   %ax,%ax

00100eb8 <get_time>:
  100eb8:	55                   	push   %ebp
  100eb9:	89 e5                	mov    %esp,%ebp
  100ebb:	a1 d4 27 10 00       	mov    0x1027d4,%eax
  100ec0:	2b 05 d0 27 10 00    	sub    0x1027d0,%eax
  100ec6:	5d                   	pop    %ebp
  100ec7:	c3                   	ret    

00100ec8 <time_in_secs>:
  100ec8:	55                   	push   %ebp
  100ec9:	89 e5                	mov    %esp,%ebp
  100ecb:	8b 45 08             	mov    0x8(%ebp),%eax
  100ece:	5d                   	pop    %ebp
  100ecf:	c3                   	ret    

00100ed0 <portable_init>:
  100ed0:	55                   	push   %ebp
  100ed1:	89 e5                	mov    %esp,%ebp
  100ed3:	8b 45 08             	mov    0x8(%ebp),%eax
  100ed6:	c6 00 01             	movb   $0x1,(%eax)
  100ed9:	5d                   	pop    %ebp
  100eda:	c3                   	ret    
  100edb:	90                   	nop

00100edc <portable_fini>:
  100edc:	55                   	push   %ebp
  100edd:	89 e5                	mov    %esp,%ebp
  100edf:	8b 45 08             	mov    0x8(%ebp),%eax
  100ee2:	c6 00 00             	movb   $0x0,(%eax)
  100ee5:	5d                   	pop    %ebp
  100ee6:	c3                   	ret    
  100ee7:	90                   	nop

00100ee8 <core_init_state>:
  100ee8:	55                   	push   %ebp
  100ee9:	89 e5                	mov    %esp,%ebp
  100eeb:	57                   	push   %edi
  100eec:	56                   	push   %esi
  100eed:	53                   	push   %ebx
  100eee:	83 ec 10             	sub    $0x10,%esp
  100ef1:	8b 75 0c             	mov    0xc(%ebp),%esi
  100ef4:	8b 45 08             	mov    0x8(%ebp),%eax
  100ef7:	48                   	dec    %eax
  100ef8:	89 45 e8             	mov    %eax,-0x18(%ebp)
  100efb:	31 c9                	xor    %ecx,%ecx
  100efd:	31 d2                	xor    %edx,%edx
  100eff:	31 db                	xor    %ebx,%ebx
  100f01:	8d 76 00             	lea    0x0(%esi),%esi
  100f04:	8d 3c 13             	lea    (%ebx,%edx,1),%edi
  100f07:	8d 47 01             	lea    0x1(%edi),%eax
  100f0a:	89 45 ec             	mov    %eax,-0x14(%ebp)
  100f0d:	39 45 e8             	cmp    %eax,-0x18(%ebp)
  100f10:	76 6e                	jbe    100f80 <core_init_state+0x98>
  100f12:	85 d2                	test   %edx,%edx
  100f14:	74 28                	je     100f3e <core_init_state+0x56>
  100f16:	c7 45 e4 00 00 00 00 	movl   $0x0,-0x1c(%ebp)
  100f1d:	8b 45 10             	mov    0x10(%ebp),%eax
  100f20:	01 c3                	add    %eax,%ebx
  100f22:	89 55 f0             	mov    %edx,-0x10(%ebp)
  100f25:	31 c0                	xor    %eax,%eax
  100f27:	90                   	nop
  100f28:	8a 14 01             	mov    (%ecx,%eax,1),%dl
  100f2b:	88 14 03             	mov    %dl,(%ebx,%eax,1)
  100f2e:	40                   	inc    %eax
  100f2f:	3b 45 f0             	cmp    -0x10(%ebp),%eax
  100f32:	75 f4                	jne    100f28 <core_init_state+0x40>
  100f34:	8b 45 10             	mov    0x10(%ebp),%eax
  100f37:	c6 04 38 2c          	movb   $0x2c,(%eax,%edi,1)
  100f3b:	8b 5d ec             	mov    -0x14(%ebp),%ebx
  100f3e:	8d 56 01             	lea    0x1(%esi),%edx
  100f41:	89 d6                	mov    %edx,%esi
  100f43:	89 d0                	mov    %edx,%eax
  100f45:	83 e0 07             	and    $0x7,%eax
  100f48:	83 e8 03             	sub    $0x3,%eax
  100f4b:	66 83 f8 04          	cmp    $0x4,%ax
  100f4f:	77 73                	ja     100fc4 <core_init_state+0xdc>
  100f51:	0f b7 c0             	movzwl %ax,%eax
  100f54:	66 c1 fa 03          	sar    $0x3,%dx
  100f58:	83 e2 03             	and    $0x3,%edx
  100f5b:	ff 24 85 74 21 10 00 	jmp    *0x102174(,%eax,4)
  100f62:	66 90                	xchg   %ax,%ax
  100f64:	8b 0c 95 c8 21 10 00 	mov    0x1021c8(,%edx,4),%ecx
  100f6b:	ba 08 00 00 00       	mov    $0x8,%edx
  100f70:	8d 3c 13             	lea    (%ebx,%edx,1),%edi
  100f73:	8d 47 01             	lea    0x1(%edi),%eax
  100f76:	89 45 ec             	mov    %eax,-0x14(%ebp)
  100f79:	39 45 e8             	cmp    %eax,-0x18(%ebp)
  100f7c:	77 94                	ja     100f12 <core_init_state+0x2a>
  100f7e:	66 90                	xchg   %ax,%ax
  100f80:	39 5d 08             	cmp    %ebx,0x8(%ebp)
  100f83:	76 13                	jbe    100f98 <core_init_state+0xb0>
  100f85:	03 5d 10             	add    0x10(%ebp),%ebx
  100f88:	8b 45 10             	mov    0x10(%ebp),%eax
  100f8b:	03 45 08             	add    0x8(%ebp),%eax
  100f8e:	66 90                	xchg   %ax,%ax
  100f90:	c6 03 00             	movb   $0x0,(%ebx)
  100f93:	43                   	inc    %ebx
  100f94:	39 c3                	cmp    %eax,%ebx
  100f96:	75 f8                	jne    100f90 <core_init_state+0xa8>
  100f98:	83 c4 10             	add    $0x10,%esp
  100f9b:	5b                   	pop    %ebx
  100f9c:	5e                   	pop    %esi
  100f9d:	5f                   	pop    %edi
  100f9e:	5d                   	pop    %ebp
  100f9f:	c3                   	ret    
  100fa0:	8b 0c 95 b8 21 10 00 	mov    0x1021b8(,%edx,4),%ecx
  100fa7:	ba 08 00 00 00       	mov    $0x8,%edx
  100fac:	e9 53 ff ff ff       	jmp    100f04 <core_init_state+0x1c>
  100fb1:	8b 0c 95 a8 21 10 00 	mov    0x1021a8(,%edx,4),%ecx
  100fb8:	ba 08 00 00 00       	mov    $0x8,%edx
  100fbd:	e9 42 ff ff ff       	jmp    100f04 <core_init_state+0x1c>
  100fc2:	66 90                	xchg   %ax,%ax
  100fc4:	89 d0                	mov    %edx,%eax
  100fc6:	66 c1 f8 03          	sar    $0x3,%ax
  100fca:	83 e0 03             	and    $0x3,%eax
  100fcd:	8b 0c 85 d8 21 10 00 	mov    0x1021d8(,%eax,4),%ecx
  100fd4:	ba 04 00 00 00       	mov    $0x4,%edx
  100fd9:	e9 26 ff ff ff       	jmp    100f04 <core_init_state+0x1c>
  100fde:	66 90                	xchg   %ax,%ax

00100fe0 <core_state_transition>:
  100fe0:	55                   	push   %ebp
  100fe1:	89 e5                	mov    %esp,%ebp
  100fe3:	57                   	push   %edi
  100fe4:	56                   	push   %esi
  100fe5:	53                   	push   %ebx
  100fe6:	8b 7d 08             	mov    0x8(%ebp),%edi
  100fe9:	8b 37                	mov    (%edi),%esi
  100feb:	8a 16                	mov    (%esi),%dl
  100fed:	84 d2                	test   %dl,%dl
  100fef:	0f 84 9d 01 00 00    	je     101192 <core_state_transition+0x1b2>
  100ff5:	80 fa 2c             	cmp    $0x2c,%dl
  100ff8:	0f 84 9b 01 00 00    	je     101199 <core_state_transition+0x1b9>
  100ffe:	8d 4e 01             	lea    0x1(%esi),%ecx
  101001:	31 c0                	xor    %eax,%eax
  101003:	90                   	nop
  101004:	ff 24 85 88 21 10 00 	jmp    *0x102188(,%eax,4)
  10100b:	90                   	nop
  10100c:	83 ea 30             	sub    $0x30,%edx
  10100f:	80 fa 09             	cmp    $0x9,%dl
  101012:	0f 87 e4 00 00 00    	ja     1010fc <core_state_transition+0x11c>
  101018:	89 ce                	mov    %ecx,%esi
  10101a:	8a 11                	mov    (%ecx),%dl
  10101c:	84 d2                	test   %dl,%dl
  10101e:	0f 85 ae 00 00 00    	jne    1010d2 <core_state_transition+0xf2>
  101024:	89 37                	mov    %esi,(%edi)
  101026:	5b                   	pop    %ebx
  101027:	5e                   	pop    %esi
  101028:	5f                   	pop    %edi
  101029:	5d                   	pop    %ebp
  10102a:	c3                   	ret    
  10102b:	90                   	nop
  10102c:	83 ea 30             	sub    $0x30,%edx
  10102f:	80 fa 09             	cmp    $0x9,%dl
  101032:	0f 87 d0 00 00 00    	ja     101108 <core_state_transition+0x128>
  101038:	8b 45 0c             	mov    0xc(%ebp),%eax
  10103b:	ff 40 18             	incl   0x18(%eax)
  10103e:	b8 07 00 00 00       	mov    $0x7,%eax
  101043:	eb d3                	jmp    101018 <core_state_transition+0x38>
  101045:	8d 76 00             	lea    0x0(%esi),%esi
  101048:	89 d6                	mov    %edx,%esi
  10104a:	83 e6 df             	and    $0xffffffdf,%esi
  10104d:	89 f3                	mov    %esi,%ebx
  10104f:	80 fb 45             	cmp    $0x45,%bl
  101052:	0f 84 e8 00 00 00    	je     101140 <core_state_transition+0x160>
  101058:	83 ea 30             	sub    $0x30,%edx
  10105b:	80 fa 09             	cmp    $0x9,%dl
  10105e:	76 b8                	jbe    101018 <core_state_transition+0x38>
  101060:	8b 45 0c             	mov    0xc(%ebp),%eax
  101063:	ff 40 14             	incl   0x14(%eax)
  101066:	eb 18                	jmp    101080 <core_state_transition+0xa0>
  101068:	8b 45 0c             	mov    0xc(%ebp),%eax
  10106b:	ff 40 0c             	incl   0xc(%eax)
  10106e:	80 fa 2b             	cmp    $0x2b,%dl
  101071:	0f 84 d9 00 00 00    	je     101150 <core_state_transition+0x170>
  101077:	80 fa 2d             	cmp    $0x2d,%dl
  10107a:	0f 84 d0 00 00 00    	je     101150 <core_state_transition+0x170>
  101080:	89 ce                	mov    %ecx,%esi
  101082:	66 90                	xchg   %ax,%ax
  101084:	b8 01 00 00 00       	mov    $0x1,%eax
  101089:	89 37                	mov    %esi,(%edi)
  10108b:	5b                   	pop    %ebx
  10108c:	5e                   	pop    %esi
  10108d:	5f                   	pop    %edi
  10108e:	5d                   	pop    %ebp
  10108f:	c3                   	ret    
  101090:	80 fa 2e             	cmp    $0x2e,%dl
  101093:	0f 84 cf 00 00 00    	je     101168 <core_state_transition+0x188>
  101099:	83 ea 30             	sub    $0x30,%edx
  10109c:	80 fa 09             	cmp    $0x9,%dl
  10109f:	0f 86 73 ff ff ff    	jbe    101018 <core_state_transition+0x38>
  1010a5:	8b 45 0c             	mov    0xc(%ebp),%eax
  1010a8:	ff 40 10             	incl   0x10(%eax)
  1010ab:	eb d3                	jmp    101080 <core_state_transition+0xa0>
  1010ad:	8d 76 00             	lea    0x0(%esi),%esi
  1010b0:	8d 42 d0             	lea    -0x30(%edx),%eax
  1010b3:	3c 09                	cmp    $0x9,%al
  1010b5:	77 5d                	ja     101114 <core_state_transition+0x134>
  1010b7:	b8 04 00 00 00       	mov    $0x4,%eax
  1010bc:	8b 5d 0c             	mov    0xc(%ebp),%ebx
  1010bf:	ff 03                	incl   (%ebx)
  1010c1:	89 ce                	mov    %ecx,%esi
  1010c3:	8a 11                	mov    (%ecx),%dl
  1010c5:	84 d2                	test   %dl,%dl
  1010c7:	0f 84 57 ff ff ff    	je     101024 <core_state_transition+0x44>
  1010cd:	83 f8 01             	cmp    $0x1,%eax
  1010d0:	74 b2                	je     101084 <core_state_transition+0xa4>
  1010d2:	41                   	inc    %ecx
  1010d3:	80 fa 2c             	cmp    $0x2c,%dl
  1010d6:	0f 85 28 ff ff ff    	jne    101004 <core_state_transition+0x24>
  1010dc:	46                   	inc    %esi
  1010dd:	89 37                	mov    %esi,(%edi)
  1010df:	5b                   	pop    %ebx
  1010e0:	5e                   	pop    %esi
  1010e1:	5f                   	pop    %edi
  1010e2:	5d                   	pop    %ebp
  1010e3:	c3                   	ret    
  1010e4:	8d 42 d0             	lea    -0x30(%edx),%eax
  1010e7:	3c 09                	cmp    $0x9,%al
  1010e9:	77 45                	ja     101130 <core_state_transition+0x150>
  1010eb:	8b 45 0c             	mov    0xc(%ebp),%eax
  1010ee:	ff 40 08             	incl   0x8(%eax)
  1010f1:	b8 04 00 00 00       	mov    $0x4,%eax
  1010f6:	e9 1d ff ff ff       	jmp    101018 <core_state_transition+0x38>
  1010fb:	90                   	nop
  1010fc:	8b 45 0c             	mov    0xc(%ebp),%eax
  1010ff:	ff 40 04             	incl   0x4(%eax)
  101102:	e9 79 ff ff ff       	jmp    101080 <core_state_transition+0xa0>
  101107:	90                   	nop
  101108:	8b 45 0c             	mov    0xc(%ebp),%eax
  10110b:	ff 40 18             	incl   0x18(%eax)
  10110e:	e9 6d ff ff ff       	jmp    101080 <core_state_transition+0xa0>
  101113:	90                   	nop
  101114:	80 fa 2b             	cmp    $0x2b,%dl
  101117:	74 43                	je     10115c <core_state_transition+0x17c>
  101119:	80 fa 2d             	cmp    $0x2d,%dl
  10111c:	74 3e                	je     10115c <core_state_transition+0x17c>
  10111e:	80 fa 2e             	cmp    $0x2e,%dl
  101121:	74 65                	je     101188 <core_state_transition+0x1a8>
  101123:	8b 45 0c             	mov    0xc(%ebp),%eax
  101126:	ff 40 04             	incl   0x4(%eax)
  101129:	b8 01 00 00 00       	mov    $0x1,%eax
  10112e:	eb 8c                	jmp    1010bc <core_state_transition+0xdc>
  101130:	80 fa 2e             	cmp    $0x2e,%dl
  101133:	74 43                	je     101178 <core_state_transition+0x198>
  101135:	8b 45 0c             	mov    0xc(%ebp),%eax
  101138:	ff 40 08             	incl   0x8(%eax)
  10113b:	e9 40 ff ff ff       	jmp    101080 <core_state_transition+0xa0>
  101140:	8b 45 0c             	mov    0xc(%ebp),%eax
  101143:	ff 40 14             	incl   0x14(%eax)
  101146:	b8 03 00 00 00       	mov    $0x3,%eax
  10114b:	e9 c8 fe ff ff       	jmp    101018 <core_state_transition+0x38>
  101150:	b8 06 00 00 00       	mov    $0x6,%eax
  101155:	e9 be fe ff ff       	jmp    101018 <core_state_transition+0x38>
  10115a:	66 90                	xchg   %ax,%ax
  10115c:	b8 02 00 00 00       	mov    $0x2,%eax
  101161:	e9 56 ff ff ff       	jmp    1010bc <core_state_transition+0xdc>
  101166:	66 90                	xchg   %ax,%ax
  101168:	8b 45 0c             	mov    0xc(%ebp),%eax
  10116b:	ff 40 10             	incl   0x10(%eax)
  10116e:	b8 05 00 00 00       	mov    $0x5,%eax
  101173:	e9 a0 fe ff ff       	jmp    101018 <core_state_transition+0x38>
  101178:	8b 45 0c             	mov    0xc(%ebp),%eax
  10117b:	ff 40 08             	incl   0x8(%eax)
  10117e:	b8 05 00 00 00       	mov    $0x5,%eax
  101183:	e9 90 fe ff ff       	jmp    101018 <core_state_transition+0x38>
  101188:	b8 05 00 00 00       	mov    $0x5,%eax
  10118d:	e9 2a ff ff ff       	jmp    1010bc <core_state_transition+0xdc>
  101192:	31 c0                	xor    %eax,%eax
  101194:	e9 8b fe ff ff       	jmp    101024 <core_state_transition+0x44>
  101199:	31 c0                	xor    %eax,%eax
  10119b:	46                   	inc    %esi
  10119c:	e9 3c ff ff ff       	jmp    1010dd <core_state_transition+0xfd>
  1011a1:	8d 76 00             	lea    0x0(%esi),%esi

001011a4 <core_bench_state>:
  1011a4:	55                   	push   %ebp
  1011a5:	89 e5                	mov    %esp,%ebp
  1011a7:	57                   	push   %edi
  1011a8:	56                   	push   %esi
  1011a9:	53                   	push   %ebx
  1011aa:	83 ec 7c             	sub    $0x7c,%esp
  1011ad:	8b 45 18             	mov    0x18(%ebp),%eax
  1011b0:	89 45 8c             	mov    %eax,-0x74(%ebp)
  1011b3:	8b 45 10             	mov    0x10(%ebp),%eax
  1011b6:	66 89 45 96          	mov    %ax,-0x6a(%ebp)
  1011ba:	8b 45 14             	mov    0x14(%ebp),%eax
  1011bd:	66 89 45 94          	mov    %ax,-0x6c(%ebp)
  1011c1:	8b 7d 1c             	mov    0x1c(%ebp),%edi
  1011c4:	8b 45 0c             	mov    0xc(%ebp),%eax
  1011c7:	89 45 a4             	mov    %eax,-0x5c(%ebp)
  1011ca:	31 c0                	xor    %eax,%eax
  1011cc:	8d 5d c8             	lea    -0x38(%ebp),%ebx
  1011cf:	90                   	nop
  1011d0:	c7 04 83 00 00 00 00 	movl   $0x0,(%ebx,%eax,4)
  1011d7:	c7 44 85 a8 00 00 00 	movl   $0x0,-0x58(%ebp,%eax,4)
  1011de:	00 
  1011df:	40                   	inc    %eax
  1011e0:	83 f8 08             	cmp    $0x8,%eax
  1011e3:	75 eb                	jne    1011d0 <core_bench_state+0x2c>
  1011e5:	8b 45 0c             	mov    0xc(%ebp),%eax
  1011e8:	80 38 00             	cmpb   $0x0,(%eax)
  1011eb:	0f 84 ea 00 00 00    	je     1012db <core_bench_state+0x137>
  1011f1:	8d 75 a4             	lea    -0x5c(%ebp),%esi
  1011f4:	89 5c 24 04          	mov    %ebx,0x4(%esp)
  1011f8:	89 34 24             	mov    %esi,(%esp)
  1011fb:	e8 e0 fd ff ff       	call   100fe0 <core_state_transition>
  101200:	ff 44 85 a8          	incl   -0x58(%ebp,%eax,4)
  101204:	8b 45 a4             	mov    -0x5c(%ebp),%eax
  101207:	80 38 00             	cmpb   $0x0,(%eax)
  10120a:	75 e8                	jne    1011f4 <core_bench_state+0x50>
  10120c:	8b 45 0c             	mov    0xc(%ebp),%eax
  10120f:	8a 10                	mov    (%eax),%dl
  101211:	8b 45 0c             	mov    0xc(%ebp),%eax
  101214:	89 45 a4             	mov    %eax,-0x5c(%ebp)
  101217:	03 45 08             	add    0x8(%ebp),%eax
  10121a:	89 c6                	mov    %eax,%esi
  10121c:	89 45 90             	mov    %eax,-0x70(%ebp)
  10121f:	39 45 0c             	cmp    %eax,0xc(%ebp)
  101222:	73 29                	jae    10124d <core_bench_state+0xa9>
  101224:	0f bf 4d 8c          	movswl -0x74(%ebp),%ecx
  101228:	8b 45 0c             	mov    0xc(%ebp),%eax
  10122b:	eb 05                	jmp    101232 <core_bench_state+0x8e>
  10122d:	8d 76 00             	lea    0x0(%esi),%esi
  101230:	8a 10                	mov    (%eax),%dl
  101232:	80 fa 2c             	cmp    $0x2c,%dl
  101235:	74 05                	je     10123c <core_bench_state+0x98>
  101237:	32 55 96             	xor    -0x6a(%ebp),%dl
  10123a:	88 10                	mov    %dl,(%eax)
  10123c:	8b 45 a4             	mov    -0x5c(%ebp),%eax
  10123f:	01 c8                	add    %ecx,%eax
  101241:	89 45 a4             	mov    %eax,-0x5c(%ebp)
  101244:	39 f0                	cmp    %esi,%eax
  101246:	72 e8                	jb     101230 <core_bench_state+0x8c>
  101248:	8b 45 0c             	mov    0xc(%ebp),%eax
  10124b:	8a 10                	mov    (%eax),%dl
  10124d:	8b 45 0c             	mov    0xc(%ebp),%eax
  101250:	89 45 a4             	mov    %eax,-0x5c(%ebp)
  101253:	8d 75 a4             	lea    -0x5c(%ebp),%esi
  101256:	84 d2                	test   %dl,%dl
  101258:	74 1a                	je     101274 <core_bench_state+0xd0>
  10125a:	66 90                	xchg   %ax,%ax
  10125c:	89 5c 24 04          	mov    %ebx,0x4(%esp)
  101260:	89 34 24             	mov    %esi,(%esp)
  101263:	e8 78 fd ff ff       	call   100fe0 <core_state_transition>
  101268:	ff 44 85 a8          	incl   -0x58(%ebp,%eax,4)
  10126c:	8b 45 a4             	mov    -0x5c(%ebp),%eax
  10126f:	80 38 00             	cmpb   $0x0,(%eax)
  101272:	75 e8                	jne    10125c <core_bench_state+0xb8>
  101274:	8b 45 0c             	mov    0xc(%ebp),%eax
  101277:	89 45 a4             	mov    %eax,-0x5c(%ebp)
  10127a:	8b 45 90             	mov    -0x70(%ebp),%eax
  10127d:	39 45 0c             	cmp    %eax,0xc(%ebp)
  101280:	73 22                	jae    1012a4 <core_bench_state+0x100>
  101282:	0f bf 4d 8c          	movswl -0x74(%ebp),%ecx
  101286:	8b 45 0c             	mov    0xc(%ebp),%eax
  101289:	8b 75 90             	mov    -0x70(%ebp),%esi
  10128c:	8a 10                	mov    (%eax),%dl
  10128e:	80 fa 2c             	cmp    $0x2c,%dl
  101291:	74 05                	je     101298 <core_bench_state+0xf4>
  101293:	33 55 94             	xor    -0x6c(%ebp),%edx
  101296:	88 10                	mov    %dl,(%eax)
  101298:	8b 45 a4             	mov    -0x5c(%ebp),%eax
  10129b:	01 c8                	add    %ecx,%eax
  10129d:	89 45 a4             	mov    %eax,-0x5c(%ebp)
  1012a0:	39 c6                	cmp    %eax,%esi
  1012a2:	77 e8                	ja     10128c <core_bench_state+0xe8>
  1012a4:	31 f6                	xor    %esi,%esi
  1012a6:	89 f8                	mov    %edi,%eax
  1012a8:	0f b7 c0             	movzwl %ax,%eax
  1012ab:	89 44 24 04          	mov    %eax,0x4(%esp)
  1012af:	8b 44 b5 a8          	mov    -0x58(%ebp,%esi,4),%eax
  1012b3:	89 04 24             	mov    %eax,(%esp)
  1012b6:	e8 8d ee ff ff       	call   100148 <crcu32>
  1012bb:	0f b7 c0             	movzwl %ax,%eax
  1012be:	89 44 24 04          	mov    %eax,0x4(%esp)
  1012c2:	8b 04 b3             	mov    (%ebx,%esi,4),%eax
  1012c5:	89 04 24             	mov    %eax,(%esp)
  1012c8:	e8 7b ee ff ff       	call   100148 <crcu32>
  1012cd:	46                   	inc    %esi
  1012ce:	83 fe 08             	cmp    $0x8,%esi
  1012d1:	75 d5                	jne    1012a8 <core_bench_state+0x104>
  1012d3:	83 c4 7c             	add    $0x7c,%esp
  1012d6:	5b                   	pop    %ebx
  1012d7:	5e                   	pop    %esi
  1012d8:	5f                   	pop    %edi
  1012d9:	5d                   	pop    %ebp
  1012da:	c3                   	ret    
  1012db:	31 d2                	xor    %edx,%edx
  1012dd:	e9 2f ff ff ff       	jmp    101211 <core_bench_state+0x6d>
  1012e2:	66 90                	xchg   %ax,%ax

001012e4 <iterate>:
  1012e4:	55                   	push   %ebp
  1012e5:	89 e5                	mov    %esp,%ebp
  1012e7:	57                   	push   %edi
  1012e8:	56                   	push   %esi
  1012e9:	53                   	push   %ebx
  1012ea:	83 ec 1c             	sub    $0x1c,%esp
  1012ed:	8b 5d 08             	mov    0x8(%ebp),%ebx
  1012f0:	8b 7b 1c             	mov    0x1c(%ebx),%edi
  1012f3:	66 c7 43 38 00 00    	movw   $0x0,0x38(%ebx)
  1012f9:	66 c7 43 3a 00 00    	movw   $0x0,0x3a(%ebx)
  1012ff:	66 c7 43 3c 00 00    	movw   $0x0,0x3c(%ebx)
  101305:	66 c7 43 3e 00 00    	movw   $0x0,0x3e(%ebx)
  10130b:	31 f6                	xor    %esi,%esi
  10130d:	85 ff                	test   %edi,%edi
  10130f:	74 5a                	je     10136b <iterate+0x87>
  101311:	8d 76 00             	lea    0x0(%esi),%esi
  101314:	c7 44 24 04 01 00 00 	movl   $0x1,0x4(%esp)
  10131b:	00 
  10131c:	89 1c 24             	mov    %ebx,(%esp)
  10131f:	e8 24 f2 ff ff       	call   100548 <core_bench_list>
  101324:	0f b7 53 38          	movzwl 0x38(%ebx),%edx
  101328:	89 54 24 04          	mov    %edx,0x4(%esp)
  10132c:	0f b7 c0             	movzwl %ax,%eax
  10132f:	89 04 24             	mov    %eax,(%esp)
  101332:	e8 a9 ed ff ff       	call   1000e0 <crcu16>
  101337:	66 89 43 38          	mov    %ax,0x38(%ebx)
  10133b:	c7 44 24 04 ff ff ff 	movl   $0xffffffff,0x4(%esp)
  101342:	ff 
  101343:	89 1c 24             	mov    %ebx,(%esp)
  101346:	e8 fd f1 ff ff       	call   100548 <core_bench_list>
  10134b:	0f b7 53 38          	movzwl 0x38(%ebx),%edx
  10134f:	89 54 24 04          	mov    %edx,0x4(%esp)
  101353:	0f b7 c0             	movzwl %ax,%eax
  101356:	89 04 24             	mov    %eax,(%esp)
  101359:	e8 82 ed ff ff       	call   1000e0 <crcu16>
  10135e:	66 89 43 38          	mov    %ax,0x38(%ebx)
  101362:	85 f6                	test   %esi,%esi
  101364:	74 0f                	je     101375 <iterate+0x91>
  101366:	46                   	inc    %esi
  101367:	39 fe                	cmp    %edi,%esi
  101369:	75 a9                	jne    101314 <iterate+0x30>
  10136b:	31 c0                	xor    %eax,%eax
  10136d:	83 c4 1c             	add    $0x1c,%esp
  101370:	5b                   	pop    %ebx
  101371:	5e                   	pop    %esi
  101372:	5f                   	pop    %edi
  101373:	5d                   	pop    %ebp
  101374:	c3                   	ret    
  101375:	66 89 43 3a          	mov    %ax,0x3a(%ebx)
  101379:	eb eb                	jmp    101366 <iterate+0x82>
  10137b:	90                   	nop

0010137c <main>:
  10137c:	55                   	push   %ebp
  10137d:	89 e5                	mov    %esp,%ebp
  10137f:	57                   	push   %edi
  101380:	56                   	push   %esi
  101381:	53                   	push   %ebx
  101382:	83 e4 f0             	and    $0xfffffff0,%esp
  101385:	83 ec 70             	sub    $0x70,%esp
  101388:	e8 ab 0d 00 00       	call   102138 <_ioe_init>
  10138d:	c7 44 24 04 e8 03 00 	movl   $0x3e8,0x4(%esp)
  101394:	00 
  101395:	c7 04 24 68 22 10 00 	movl   $0x102268,(%esp)
  10139c:	e8 63 0d 00 00       	call   102104 <printf>
  1013a1:	8b 45 0c             	mov    0xc(%ebp),%eax
  1013a4:	89 44 24 08          	mov    %eax,0x8(%esp)
  1013a8:	8d 45 08             	lea    0x8(%ebp),%eax
  1013ab:	89 44 24 04          	mov    %eax,0x4(%esp)
  1013af:	8d 44 24 6e          	lea    0x6e(%esp),%eax
  1013b3:	89 04 24             	mov    %eax,(%esp)
  1013b6:	e8 15 fb ff ff       	call   100ed0 <portable_init>
  1013bb:	c7 04 24 01 00 00 00 	movl   $0x1,(%esp)
  1013c2:	e8 a1 ec ff ff       	call   100068 <get_seed_32>
  1013c7:	66 89 44 24 2c       	mov    %ax,0x2c(%esp)
  1013cc:	c7 04 24 02 00 00 00 	movl   $0x2,(%esp)
  1013d3:	e8 90 ec ff ff       	call   100068 <get_seed_32>
  1013d8:	66 89 44 24 2e       	mov    %ax,0x2e(%esp)
  1013dd:	c7 04 24 03 00 00 00 	movl   $0x3,(%esp)
  1013e4:	e8 7f ec ff ff       	call   100068 <get_seed_32>
  1013e9:	66 89 44 24 30       	mov    %ax,0x30(%esp)
  1013ee:	c7 04 24 04 00 00 00 	movl   $0x4,(%esp)
  1013f5:	e8 6e ec ff ff       	call   100068 <get_seed_32>
  1013fa:	89 44 24 48          	mov    %eax,0x48(%esp)
  1013fe:	c7 04 24 05 00 00 00 	movl   $0x5,(%esp)
  101405:	e8 5e ec ff ff       	call   100068 <get_seed_32>
  10140a:	85 c0                	test   %eax,%eax
  10140c:	0f 84 7a 02 00 00    	je     10168c <main+0x310>
  101412:	89 44 24 4c          	mov    %eax,0x4c(%esp)
  101416:	8b 74 24 2c          	mov    0x2c(%esp),%esi
  10141a:	85 f6                	test   %esi,%esi
  10141c:	0f 85 39 02 00 00    	jne    10165b <main+0x2df>
  101422:	66 83 7c 24 30 00    	cmpw   $0x0,0x30(%esp)
  101428:	0f 84 18 02 00 00    	je     101646 <main+0x2ca>
  10142e:	c7 44 24 34 e0 27 10 	movl   $0x1027e0,0x34(%esp)
  101435:	00 
  101436:	66 c7 44 24 6c 00 00 	movw   $0x0,0x6c(%esp)
  10143d:	8b 5c 24 4c          	mov    0x4c(%esp),%ebx
  101441:	89 de                	mov    %ebx,%esi
  101443:	31 c0                	xor    %eax,%eax
  101445:	83 e6 01             	and    $0x1,%esi
  101448:	0f 95 c0             	setne  %al
  10144b:	89 da                	mov    %ebx,%edx
  10144d:	83 e2 02             	and    $0x2,%edx
  101450:	83 fa 01             	cmp    $0x1,%edx
  101453:	66 83 d8 ff          	sbb    $0xffff,%ax
  101457:	89 da                	mov    %ebx,%edx
  101459:	83 e2 04             	and    $0x4,%edx
  10145c:	83 fa 01             	cmp    $0x1,%edx
  10145f:	66 83 d8 ff          	sbb    $0xffff,%ax
  101463:	0f b7 c8             	movzwl %ax,%ecx
  101466:	b8 d0 07 00 00       	mov    $0x7d0,%eax
  10146b:	31 d2                	xor    %edx,%edx
  10146d:	f7 f1                	div    %ecx
  10146f:	89 44 24 1c          	mov    %eax,0x1c(%esp)
  101473:	89 44 24 44          	mov    %eax,0x44(%esp)
  101477:	31 c9                	xor    %ecx,%ecx
  101479:	31 c0                	xor    %eax,%eax
  10147b:	8d 7c 24 2c          	lea    0x2c(%esp),%edi
  10147f:	ba 01 00 00 00       	mov    $0x1,%edx
  101484:	d3 e2                	shl    %cl,%edx
  101486:	85 da                	test   %ebx,%edx
  101488:	74 11                	je     10149b <main+0x11f>
  10148a:	0f b7 d0             	movzwl %ax,%edx
  10148d:	0f af 54 24 1c       	imul   0x1c(%esp),%edx
  101492:	03 54 24 34          	add    0x34(%esp),%edx
  101496:	89 54 8f 0c          	mov    %edx,0xc(%edi,%ecx,4)
  10149a:	40                   	inc    %eax
  10149b:	41                   	inc    %ecx
  10149c:	83 f9 03             	cmp    $0x3,%ecx
  10149f:	75 de                	jne    10147f <main+0x103>
  1014a1:	85 f6                	test   %esi,%esi
  1014a3:	0f 85 73 01 00 00    	jne    10161c <main+0x2a0>
  1014a9:	f6 c3 02             	test   $0x2,%bl
  1014ac:	0f 85 32 01 00 00    	jne    1015e4 <main+0x268>
  1014b2:	83 e3 04             	and    $0x4,%ebx
  1014b5:	0f 85 05 01 00 00    	jne    1015c0 <main+0x244>
  1014bb:	8b 5c 24 48          	mov    0x48(%esp),%ebx
  1014bf:	85 db                	test   %ebx,%ebx
  1014c1:	75 51                	jne    101514 <main+0x198>
  1014c3:	c7 44 24 48 01 00 00 	movl   $0x1,0x48(%esp)
  1014ca:	00 
  1014cb:	90                   	nop
  1014cc:	8b 44 24 48          	mov    0x48(%esp),%eax
  1014d0:	8d 04 80             	lea    (%eax,%eax,4),%eax
  1014d3:	01 c0                	add    %eax,%eax
  1014d5:	89 44 24 48          	mov    %eax,0x48(%esp)
  1014d9:	e8 b2 f9 ff ff       	call   100e90 <start_time>
  1014de:	89 3c 24             	mov    %edi,(%esp)
  1014e1:	e8 fe fd ff ff       	call   1012e4 <iterate>
  1014e6:	e8 b9 f9 ff ff       	call   100ea4 <stop_time>
  1014eb:	e8 c8 f9 ff ff       	call   100eb8 <get_time>
  1014f0:	89 04 24             	mov    %eax,(%esp)
  1014f3:	e8 d0 f9 ff ff       	call   100ec8 <time_in_secs>
  1014f8:	85 c0                	test   %eax,%eax
  1014fa:	74 d0                	je     1014cc <main+0x150>
  1014fc:	89 c1                	mov    %eax,%ecx
  1014fe:	b8 0a 00 00 00       	mov    $0xa,%eax
  101503:	31 d2                	xor    %edx,%edx
  101505:	f7 f1                	div    %ecx
  101507:	40                   	inc    %eax
  101508:	0f af 44 24 48       	imul   0x48(%esp),%eax
  10150d:	89 44 24 48          	mov    %eax,0x48(%esp)
  101511:	8d 76 00             	lea    0x0(%esi),%esi
  101514:	e8 77 f9 ff ff       	call   100e90 <start_time>
  101519:	89 3c 24             	mov    %edi,(%esp)
  10151c:	e8 c3 fd ff ff       	call   1012e4 <iterate>
  101521:	e8 7e f9 ff ff       	call   100ea4 <stop_time>
  101526:	e8 8d f9 ff ff       	call   100eb8 <get_time>
  10152b:	89 44 24 14          	mov    %eax,0x14(%esp)
  10152f:	c7 44 24 04 00 00 00 	movl   $0x0,0x4(%esp)
  101536:	00 
  101537:	0f bf 44 24 2c       	movswl 0x2c(%esp),%eax
  10153c:	89 04 24             	mov    %eax,(%esp)
  10153f:	e8 38 ec ff ff       	call   10017c <crc16>
  101544:	0f b7 c0             	movzwl %ax,%eax
  101547:	89 44 24 04          	mov    %eax,0x4(%esp)
  10154b:	0f bf 44 24 2e       	movswl 0x2e(%esp),%eax
  101550:	89 04 24             	mov    %eax,(%esp)
  101553:	e8 24 ec ff ff       	call   10017c <crc16>
  101558:	0f b7 c0             	movzwl %ax,%eax
  10155b:	89 44 24 04          	mov    %eax,0x4(%esp)
  10155f:	0f bf 44 24 30       	movswl 0x30(%esp),%eax
  101564:	89 04 24             	mov    %eax,(%esp)
  101567:	e8 10 ec ff ff       	call   10017c <crc16>
  10156c:	0f b7 c0             	movzwl %ax,%eax
  10156f:	89 44 24 04          	mov    %eax,0x4(%esp)
  101573:	0f bf 44 24 44       	movswl 0x44(%esp),%eax
  101578:	89 04 24             	mov    %eax,(%esp)
  10157b:	e8 fc eb ff ff       	call   10017c <crc16>
  101580:	66 89 44 24 18       	mov    %ax,0x18(%esp)
  101585:	66 3d 05 7b          	cmp    $0x7b05,%ax
  101589:	0f 84 b5 04 00 00    	je     101a44 <main+0x6c8>
  10158f:	0f 87 04 01 00 00    	ja     101699 <main+0x31d>
  101595:	66 3d f2 18          	cmp    $0x18f2,%ax
  101599:	0f 84 7c 04 00 00    	je     101a1b <main+0x69f>
  10159f:	66 3d af 4e          	cmp    $0x4eaf,%ax
  1015a3:	0f 85 26 02 00 00    	jne    1017cf <main+0x453>
  1015a9:	c7 04 24 e8 22 10 00 	movl   $0x1022e8,(%esp)
  1015b0:	e8 4f 0b 00 00       	call   102104 <printf>
  1015b5:	b8 02 00 00 00       	mov    $0x2,%eax
  1015ba:	e9 03 01 00 00       	jmp    1016c2 <main+0x346>
  1015bf:	90                   	nop
  1015c0:	8b 44 24 40          	mov    0x40(%esp),%eax
  1015c4:	89 44 24 08          	mov    %eax,0x8(%esp)
  1015c8:	0f bf 44 24 2c       	movswl 0x2c(%esp),%eax
  1015cd:	89 44 24 04          	mov    %eax,0x4(%esp)
  1015d1:	8b 44 24 44          	mov    0x44(%esp),%eax
  1015d5:	89 04 24             	mov    %eax,(%esp)
  1015d8:	e8 0b f9 ff ff       	call   100ee8 <core_init_state>
  1015dd:	e9 d9 fe ff ff       	jmp    1014bb <main+0x13f>
  1015e2:	66 90                	xchg   %ax,%ax
  1015e4:	8d 44 24 54          	lea    0x54(%esp),%eax
  1015e8:	89 44 24 0c          	mov    %eax,0xc(%esp)
  1015ec:	0f bf 44 24 2e       	movswl 0x2e(%esp),%eax
  1015f1:	c1 e0 10             	shl    $0x10,%eax
  1015f4:	0f bf 54 24 2c       	movswl 0x2c(%esp),%edx
  1015f9:	09 d0                	or     %edx,%eax
  1015fb:	89 44 24 08          	mov    %eax,0x8(%esp)
  1015ff:	8b 44 24 3c          	mov    0x3c(%esp),%eax
  101603:	89 44 24 04          	mov    %eax,0x4(%esp)
  101607:	8b 44 24 44          	mov    0x44(%esp),%eax
  10160b:	89 04 24             	mov    %eax,(%esp)
  10160e:	e8 8d f2 ff ff       	call   1008a0 <core_init_matrix>
  101613:	8b 5c 24 4c          	mov    0x4c(%esp),%ebx
  101617:	e9 96 fe ff ff       	jmp    1014b2 <main+0x136>
  10161c:	0f bf 44 24 2c       	movswl 0x2c(%esp),%eax
  101621:	89 44 24 08          	mov    %eax,0x8(%esp)
  101625:	8b 44 24 38          	mov    0x38(%esp),%eax
  101629:	89 44 24 04          	mov    %eax,0x4(%esp)
  10162d:	8b 44 24 1c          	mov    0x1c(%esp),%eax
  101631:	89 04 24             	mov    %eax,(%esp)
  101634:	e8 f7 f0 ff ff       	call   100730 <core_list_init>
  101639:	89 44 24 50          	mov    %eax,0x50(%esp)
  10163d:	8b 5c 24 4c          	mov    0x4c(%esp),%ebx
  101641:	e9 63 fe ff ff       	jmp    1014a9 <main+0x12d>
  101646:	66 c7 44 24 2c 00 00 	movw   $0x0,0x2c(%esp)
  10164d:	66 c7 44 24 2e 00 00 	movw   $0x0,0x2e(%esp)
  101654:	66 c7 44 24 30 66 00 	movw   $0x66,0x30(%esp)
  10165b:	83 7c 24 2c 01       	cmpl   $0x1,0x2c(%esp)
  101660:	0f 85 c8 fd ff ff    	jne    10142e <main+0xb2>
  101666:	66 83 7c 24 30 00    	cmpw   $0x0,0x30(%esp)
  10166c:	0f 85 bc fd ff ff    	jne    10142e <main+0xb2>
  101672:	66 c7 44 24 2c 15 34 	movw   $0x3415,0x2c(%esp)
  101679:	66 c7 44 24 2e 15 34 	movw   $0x3415,0x2e(%esp)
  101680:	66 c7 44 24 30 66 00 	movw   $0x66,0x30(%esp)
  101687:	e9 a2 fd ff ff       	jmp    10142e <main+0xb2>
  10168c:	c7 44 24 4c 07 00 00 	movl   $0x7,0x4c(%esp)
  101693:	00 
  101694:	e9 7d fd ff ff       	jmp    101416 <main+0x9a>
  101699:	8b 44 24 18          	mov    0x18(%esp),%eax
  10169d:	66 3d 02 8a          	cmp    $0x8a02,%ax
  1016a1:	0f 84 8a 03 00 00    	je     101a31 <main+0x6b5>
  1016a7:	66 3d f5 e9          	cmp    $0xe9f5,%ax
  1016ab:	0f 85 1e 01 00 00    	jne    1017cf <main+0x453>
  1016b1:	c7 04 24 1c 23 10 00 	movl   $0x10231c,(%esp)
  1016b8:	e8 47 0a 00 00       	call   102104 <printf>
  1016bd:	b8 03 00 00 00       	mov    $0x3,%eax
  1016c2:	8b 15 a4 27 10 00    	mov    0x1027a4,%edx
  1016c8:	85 d2                	test   %edx,%edx
  1016ca:	66 c7 44 24 1a 00 00 	movw   $0x0,0x1a(%esp)
  1016d1:	0f 84 01 01 00 00    	je     1017d8 <main+0x45c>
  1016d7:	31 ff                	xor    %edi,%edi
  1016d9:	31 db                	xor    %ebx,%ebx
  1016db:	89 44 24 1c          	mov    %eax,0x1c(%esp)
  1016df:	eb 22                	jmp    101703 <main+0x387>
  1016e1:	8d 76 00             	lea    0x0(%esi),%esi
  1016e4:	c1 e0 06             	shl    $0x6,%eax
  1016e7:	8d 04 98             	lea    (%eax,%ebx,4),%eax
  1016ea:	8b 44 04 6c          	mov    0x6c(%esp,%eax,1),%eax
  1016ee:	66 01 44 24 1a       	add    %ax,0x1a(%esp)
  1016f3:	47                   	inc    %edi
  1016f4:	0f b7 df             	movzwl %di,%ebx
  1016f7:	3b 1d a4 27 10 00    	cmp    0x1027a4,%ebx
  1016fd:	0f 83 d5 00 00 00    	jae    1017d8 <main+0x45c>
  101703:	89 d8                	mov    %ebx,%eax
  101705:	c1 e0 06             	shl    $0x6,%eax
  101708:	8d 34 98             	lea    (%eax,%ebx,4),%esi
  10170b:	8d 44 24 70          	lea    0x70(%esp),%eax
  10170f:	01 c6                	add    %eax,%esi
  101711:	66 c7 46 fc 00 00    	movw   $0x0,-0x4(%esi)
  101717:	8b 46 dc             	mov    -0x24(%esi),%eax
  10171a:	a8 01                	test   $0x1,%al
  10171c:	74 34                	je     101752 <main+0x3d6>
  10171e:	0f b7 56 f6          	movzwl -0xa(%esi),%edx
  101722:	8b 4c 24 1c          	mov    0x1c(%esp),%ecx
  101726:	0f b7 8c 09 34 26 10 	movzwl 0x102634(%ecx,%ecx,1),%ecx
  10172d:	00 
  10172e:	66 39 ca             	cmp    %cx,%dx
  101731:	74 1f                	je     101752 <main+0x3d6>
  101733:	89 4c 24 0c          	mov    %ecx,0xc(%esp)
  101737:	89 54 24 08          	mov    %edx,0x8(%esp)
  10173b:	89 5c 24 04          	mov    %ebx,0x4(%esp)
  10173f:	c7 04 24 78 23 10 00 	movl   $0x102378,(%esp)
  101746:	e8 b9 09 00 00       	call   102104 <printf>
  10174b:	66 ff 46 fc          	incw   -0x4(%esi)
  10174f:	8b 46 dc             	mov    -0x24(%esi),%eax
  101752:	a8 02                	test   $0x2,%al
  101754:	74 42                	je     101798 <main+0x41c>
  101756:	89 da                	mov    %ebx,%edx
  101758:	c1 e2 06             	shl    $0x6,%edx
  10175b:	8d 34 9a             	lea    (%edx,%ebx,4),%esi
  10175e:	8d 4c 24 70          	lea    0x70(%esp),%ecx
  101762:	01 ce                	add    %ecx,%esi
  101764:	0f b7 56 f8          	movzwl -0x8(%esi),%edx
  101768:	8b 4c 24 1c          	mov    0x1c(%esp),%ecx
  10176c:	0f b7 8c 09 2a 26 10 	movzwl 0x10262a(%ecx,%ecx,1),%ecx
  101773:	00 
  101774:	66 39 ca             	cmp    %cx,%dx
  101777:	74 1f                	je     101798 <main+0x41c>
  101779:	89 4c 24 0c          	mov    %ecx,0xc(%esp)
  10177d:	89 54 24 08          	mov    %edx,0x8(%esp)
  101781:	89 5c 24 04          	mov    %ebx,0x4(%esp)
  101785:	c7 04 24 a8 23 10 00 	movl   $0x1023a8,(%esp)
  10178c:	e8 73 09 00 00       	call   102104 <printf>
  101791:	66 ff 46 fc          	incw   -0x4(%esi)
  101795:	8b 46 dc             	mov    -0x24(%esi),%eax
  101798:	a8 04                	test   $0x4,%al
  10179a:	89 d8                	mov    %ebx,%eax
  10179c:	0f 84 42 ff ff ff    	je     1016e4 <main+0x368>
  1017a2:	c1 e0 06             	shl    $0x6,%eax
  1017a5:	8d 34 98             	lea    (%eax,%ebx,4),%esi
  1017a8:	8d 44 24 70          	lea    0x70(%esp),%eax
  1017ac:	01 c6                	add    %eax,%esi
  1017ae:	0f b7 46 fa          	movzwl -0x6(%esi),%eax
  1017b2:	8b 4c 24 1c          	mov    0x1c(%esp),%ecx
  1017b6:	0f b7 94 09 20 26 10 	movzwl 0x102620(%ecx,%ecx,1),%edx
  1017bd:	00 
  1017be:	66 39 d0             	cmp    %dx,%ax
  1017c1:	0f 85 dd 01 00 00    	jne    1019a4 <main+0x628>
  1017c7:	8b 46 fc             	mov    -0x4(%esi),%eax
  1017ca:	e9 1f ff ff ff       	jmp    1016ee <main+0x372>
  1017cf:	66 c7 44 24 1a ff ff 	movw   $0xffff,0x1a(%esp)
  1017d6:	66 90                	xchg   %ax,%ax
  1017d8:	e8 b7 e9 ff ff       	call   100194 <check_data_types>
  1017dd:	0f b6 d8             	movzbl %al,%ebx
  1017e0:	66 03 5c 24 1a       	add    0x1a(%esp),%bx
  1017e5:	8b 44 24 44          	mov    0x44(%esp),%eax
  1017e9:	89 44 24 04          	mov    %eax,0x4(%esp)
  1017ed:	c7 04 24 dc 24 10 00 	movl   $0x1024dc,(%esp)
  1017f4:	e8 0b 09 00 00       	call   102104 <printf>
  1017f9:	8b 44 24 14          	mov    0x14(%esp),%eax
  1017fd:	89 04 24             	mov    %eax,(%esp)
  101800:	e8 c3 f6 ff ff       	call   100ec8 <time_in_secs>
  101805:	89 44 24 04          	mov    %eax,0x4(%esp)
  101809:	c7 04 24 f3 24 10 00 	movl   $0x1024f3,(%esp)
  101810:	e8 ef 08 00 00       	call   102104 <printf>
  101815:	a1 a4 27 10 00       	mov    0x1027a4,%eax
  10181a:	0f af 44 24 48       	imul   0x48(%esp),%eax
  10181f:	89 44 24 04          	mov    %eax,0x4(%esp)
  101823:	c7 04 24 0a 25 10 00 	movl   $0x10250a,(%esp)
  10182a:	e8 d5 08 00 00       	call   102104 <printf>
  10182f:	c7 44 24 04 21 25 10 	movl   $0x102521,0x4(%esp)
  101836:	00 
  101837:	c7 04 24 2a 25 10 00 	movl   $0x10252a,(%esp)
  10183e:	e8 c1 08 00 00       	call   102104 <printf>
  101843:	0f b7 44 24 18       	movzwl 0x18(%esp),%eax
  101848:	89 44 24 04          	mov    %eax,0x4(%esp)
  10184c:	c7 04 24 41 25 10 00 	movl   $0x102541,(%esp)
  101853:	e8 ac 08 00 00       	call   102104 <printf>
  101858:	8b 44 24 4c          	mov    0x4c(%esp),%eax
  10185c:	a8 01                	test   $0x1,%al
  10185e:	74 41                	je     1018a1 <main+0x525>
  101860:	83 3d a4 27 10 00 00 	cmpl   $0x0,0x1027a4
  101867:	74 38                	je     1018a1 <main+0x525>
  101869:	31 f6                	xor    %esi,%esi
  10186b:	31 c0                	xor    %eax,%eax
  10186d:	8d 76 00             	lea    0x0(%esi),%esi
  101870:	89 c2                	mov    %eax,%edx
  101872:	c1 e2 06             	shl    $0x6,%edx
  101875:	8d 14 82             	lea    (%edx,%eax,4),%edx
  101878:	0f b7 54 14 66       	movzwl 0x66(%esp,%edx,1),%edx
  10187d:	89 54 24 08          	mov    %edx,0x8(%esp)
  101881:	89 44 24 04          	mov    %eax,0x4(%esp)
  101885:	c7 04 24 5c 25 10 00 	movl   $0x10255c,(%esp)
  10188c:	e8 73 08 00 00       	call   102104 <printf>
  101891:	46                   	inc    %esi
  101892:	0f b7 c6             	movzwl %si,%eax
  101895:	3b 05 a4 27 10 00    	cmp    0x1027a4,%eax
  10189b:	72 d3                	jb     101870 <main+0x4f4>
  10189d:	8b 44 24 4c          	mov    0x4c(%esp),%eax
  1018a1:	a8 02                	test   $0x2,%al
  1018a3:	74 40                	je     1018e5 <main+0x569>
  1018a5:	83 3d a4 27 10 00 00 	cmpl   $0x0,0x1027a4
  1018ac:	74 37                	je     1018e5 <main+0x569>
  1018ae:	31 f6                	xor    %esi,%esi
  1018b0:	31 c0                	xor    %eax,%eax
  1018b2:	66 90                	xchg   %ax,%ax
  1018b4:	89 c2                	mov    %eax,%edx
  1018b6:	c1 e2 06             	shl    $0x6,%edx
  1018b9:	8d 14 82             	lea    (%edx,%eax,4),%edx
  1018bc:	0f b7 54 14 68       	movzwl 0x68(%esp,%edx,1),%edx
  1018c1:	89 54 24 08          	mov    %edx,0x8(%esp)
  1018c5:	89 44 24 04          	mov    %eax,0x4(%esp)
  1018c9:	c7 04 24 78 25 10 00 	movl   $0x102578,(%esp)
  1018d0:	e8 2f 08 00 00       	call   102104 <printf>
  1018d5:	46                   	inc    %esi
  1018d6:	0f b7 c6             	movzwl %si,%eax
  1018d9:	3b 05 a4 27 10 00    	cmp    0x1027a4,%eax
  1018df:	72 d3                	jb     1018b4 <main+0x538>
  1018e1:	8b 44 24 4c          	mov    0x4c(%esp),%eax
  1018e5:	a8 04                	test   $0x4,%al
  1018e7:	74 3c                	je     101925 <main+0x5a9>
  1018e9:	31 f6                	xor    %esi,%esi
  1018eb:	31 c0                	xor    %eax,%eax
  1018ed:	83 3d a4 27 10 00 00 	cmpl   $0x0,0x1027a4
  1018f4:	74 6b                	je     101961 <main+0x5e5>
  1018f6:	66 90                	xchg   %ax,%ax
  1018f8:	89 c2                	mov    %eax,%edx
  1018fa:	c1 e2 06             	shl    $0x6,%edx
  1018fd:	8d 14 82             	lea    (%edx,%eax,4),%edx
  101900:	0f b7 54 14 6a       	movzwl 0x6a(%esp,%edx,1),%edx
  101905:	89 54 24 08          	mov    %edx,0x8(%esp)
  101909:	89 44 24 04          	mov    %eax,0x4(%esp)
  10190d:	c7 04 24 a7 25 10 00 	movl   $0x1025a7,(%esp)
  101914:	e8 eb 07 00 00       	call   102104 <printf>
  101919:	46                   	inc    %esi
  10191a:	0f b7 c6             	movzwl %si,%eax
  10191d:	3b 05 a4 27 10 00    	cmp    0x1027a4,%eax
  101923:	72 d3                	jb     1018f8 <main+0x57c>
  101925:	8b 0d a4 27 10 00    	mov    0x1027a4,%ecx
  10192b:	85 c9                	test   %ecx,%ecx
  10192d:	74 32                	je     101961 <main+0x5e5>
  10192f:	31 f6                	xor    %esi,%esi
  101931:	31 c0                	xor    %eax,%eax
  101933:	90                   	nop
  101934:	89 c2                	mov    %eax,%edx
  101936:	c1 e2 06             	shl    $0x6,%edx
  101939:	8d 14 82             	lea    (%edx,%eax,4),%edx
  10193c:	0f b7 54 14 64       	movzwl 0x64(%esp,%edx,1),%edx
  101941:	89 54 24 08          	mov    %edx,0x8(%esp)
  101945:	89 44 24 04          	mov    %eax,0x4(%esp)
  101949:	c7 04 24 c3 25 10 00 	movl   $0x1025c3,(%esp)
  101950:	e8 af 07 00 00       	call   102104 <printf>
  101955:	46                   	inc    %esi
  101956:	0f b7 c6             	movzwl %si,%eax
  101959:	3b 05 a4 27 10 00    	cmp    0x1027a4,%eax
  10195f:	72 d3                	jb     101934 <main+0x5b8>
  101961:	8b 44 24 14          	mov    0x14(%esp),%eax
  101965:	89 44 24 04          	mov    %eax,0x4(%esp)
  101969:	c7 04 24 94 25 10 00 	movl   $0x102594,(%esp)
  101970:	e8 8f 07 00 00       	call   102104 <printf>
  101975:	66 83 fb 00          	cmp    $0x0,%bx
  101979:	74 4e                	je     1019c9 <main+0x64d>
  10197b:	0f 8e 89 00 00 00    	jle    101a0a <main+0x68e>
  101981:	c7 04 24 fd 25 10 00 	movl   $0x1025fd,(%esp)
  101988:	e8 77 07 00 00       	call   102104 <printf>
  10198d:	8d 44 24 6e          	lea    0x6e(%esp),%eax
  101991:	89 04 24             	mov    %eax,(%esp)
  101994:	e8 43 f5 ff ff       	call   100edc <portable_fini>
  101999:	31 c0                	xor    %eax,%eax
  10199b:	8d 65 f4             	lea    -0xc(%ebp),%esp
  10199e:	5b                   	pop    %ebx
  10199f:	5e                   	pop    %esi
  1019a0:	5f                   	pop    %edi
  1019a1:	5d                   	pop    %ebp
  1019a2:	c3                   	ret    
  1019a3:	90                   	nop
  1019a4:	89 54 24 0c          	mov    %edx,0xc(%esp)
  1019a8:	89 44 24 08          	mov    %eax,0x8(%esp)
  1019ac:	89 5c 24 04          	mov    %ebx,0x4(%esp)
  1019b0:	c7 04 24 dc 23 10 00 	movl   $0x1023dc,(%esp)
  1019b7:	e8 48 07 00 00       	call   102104 <printf>
  1019bc:	8b 46 fc             	mov    -0x4(%esi),%eax
  1019bf:	40                   	inc    %eax
  1019c0:	66 89 46 fc          	mov    %ax,-0x4(%esi)
  1019c4:	e9 25 fd ff ff       	jmp    1016ee <main+0x372>
  1019c9:	c7 04 24 0c 24 10 00 	movl   $0x10240c,(%esp)
  1019d0:	e8 2f 07 00 00       	call   102104 <printf>
  1019d5:	8b 44 24 14          	mov    0x14(%esp),%eax
  1019d9:	89 04 24             	mov    %eax,(%esp)
  1019dc:	e8 e7 f4 ff ff       	call   100ec8 <time_in_secs>
  1019e1:	89 c1                	mov    %eax,%ecx
  1019e3:	b8 80 2f 44 00       	mov    $0x442f80,%eax
  1019e8:	31 d2                	xor    %edx,%edx
  1019ea:	f7 f1                	div    %ecx
  1019ec:	89 44 24 04          	mov    %eax,0x4(%esp)
  1019f0:	c7 04 24 df 25 10 00 	movl   $0x1025df,(%esp)
  1019f7:	e8 08 07 00 00       	call   102104 <printf>
  1019fc:	c7 04 24 40 24 10 00 	movl   $0x102440,(%esp)
  101a03:	e8 fc 06 00 00       	call   102104 <printf>
  101a08:	eb 83                	jmp    10198d <main+0x611>
  101a0a:	c7 04 24 78 24 10 00 	movl   $0x102478,(%esp)
  101a11:	e8 ee 06 00 00       	call   102104 <printf>
  101a16:	e9 72 ff ff ff       	jmp    10198d <main+0x611>
  101a1b:	c7 04 24 4c 23 10 00 	movl   $0x10234c,(%esp)
  101a22:	e8 dd 06 00 00       	call   102104 <printf>
  101a27:	b8 04 00 00 00       	mov    $0x4,%eax
  101a2c:	e9 91 fc ff ff       	jmp    1016c2 <main+0x346>
  101a31:	c7 04 24 8c 22 10 00 	movl   $0x10228c,(%esp)
  101a38:	e8 c7 06 00 00       	call   102104 <printf>
  101a3d:	31 c0                	xor    %eax,%eax
  101a3f:	e9 7e fc ff ff       	jmp    1016c2 <main+0x346>
  101a44:	c7 04 24 bc 22 10 00 	movl   $0x1022bc,(%esp)
  101a4b:	e8 b4 06 00 00       	call   102104 <printf>
  101a50:	b8 01 00 00 00       	mov    $0x1,%eax
  101a55:	e9 68 fc ff ff       	jmp    1016c2 <main+0x346>
  101a5a:	66 90                	xchg   %ax,%ax

00101a5c <vprintdec>:
  101a5c:	55                   	push   %ebp
  101a5d:	89 e5                	mov    %esp,%ebp
  101a5f:	57                   	push   %edi
  101a60:	56                   	push   %esi
  101a61:	53                   	push   %ebx
  101a62:	83 ec 1c             	sub    $0x1c,%esp
  101a65:	8b 45 08             	mov    0x8(%ebp),%eax
  101a68:	8b 7d 14             	mov    0x14(%ebp),%edi
  101a6b:	89 7d e0             	mov    %edi,-0x20(%ebp)
  101a6e:	8b 4d 18             	mov    0x18(%ebp),%ecx
  101a71:	8b 5d 1c             	mov    0x1c(%ebp),%ebx
  101a74:	89 5d e4             	mov    %ebx,-0x1c(%ebp)
  101a77:	85 c0                	test   %eax,%eax
  101a79:	0f 85 85 00 00 00    	jne    101b04 <vprintdec+0xa8>
  101a7f:	80 f9 2d             	cmp    $0x2d,%cl
  101a82:	0f 84 54 01 00 00    	je     101bdc <vprintdec+0x180>
  101a88:	88 ca                	mov    %cl,%dl
  101a8a:	89 f8                	mov    %edi,%eax
  101a8c:	3c 2d                	cmp    $0x2d,%al
  101a8e:	8b 45 10             	mov    0x10(%ebp),%eax
  101a91:	74 01                	je     101a94 <vprintdec+0x38>
  101a93:	40                   	inc    %eax
  101a94:	0f be fa             	movsbl %dl,%edi
  101a97:	8b 5d e4             	mov    -0x1c(%ebp),%ebx
  101a9a:	48                   	dec    %eax
  101a9b:	8d 70 01             	lea    0x1(%eax),%esi
  101a9e:	4e                   	dec    %esi
  101a9f:	7e 1a                	jle    101abb <vprintdec+0x5f>
  101aa1:	8b 33                	mov    (%ebx),%esi
  101aa3:	80 fa 2b             	cmp    $0x2b,%dl
  101aa6:	74 4c                	je     101af4 <vprintdec+0x98>
  101aa8:	85 f6                	test   %esi,%esi
  101aaa:	0f 84 d4 00 00 00    	je     101b84 <vprintdec+0x128>
  101ab0:	88 16                	mov    %dl,(%esi)
  101ab2:	ff 03                	incl   (%ebx)
  101ab4:	48                   	dec    %eax
  101ab5:	8d 70 01             	lea    0x1(%eax),%esi
  101ab8:	4e                   	dec    %esi
  101ab9:	7f e6                	jg     101aa1 <vprintdec+0x45>
  101abb:	89 5d e4             	mov    %ebx,-0x1c(%ebp)
  101abe:	80 f9 2b             	cmp    $0x2b,%cl
  101ac1:	0f 84 f9 00 00 00    	je     101bc0 <vprintdec+0x164>
  101ac7:	80 7d e0 2d          	cmpb   $0x2d,-0x20(%ebp)
  101acb:	0f 84 1f 01 00 00    	je     101bf0 <vprintdec+0x194>
  101ad1:	85 c0                	test   %eax,%eax
  101ad3:	7e 14                	jle    101ae9 <vprintdec+0x8d>
  101ad5:	8b 7d e4             	mov    -0x1c(%ebp),%edi
  101ad8:	8b 17                	mov    (%edi),%edx
  101ada:	85 d2                	test   %edx,%edx
  101adc:	0f 84 83 01 00 00    	je     101c65 <vprintdec+0x209>
  101ae2:	88 0a                	mov    %cl,(%edx)
  101ae4:	8b 4d e4             	mov    -0x1c(%ebp),%ecx
  101ae7:	ff 01                	incl   (%ecx)
  101ae9:	8d 65 f4             	lea    -0xc(%ebp),%esp
  101aec:	5b                   	pop    %ebx
  101aed:	5e                   	pop    %esi
  101aee:	5f                   	pop    %edi
  101aef:	5d                   	pop    %ebp
  101af0:	c3                   	ret    
  101af1:	8d 76 00             	lea    0x0(%esi),%esi
  101af4:	85 f6                	test   %esi,%esi
  101af6:	0f 84 10 01 00 00    	je     101c0c <vprintdec+0x1b0>
  101afc:	c6 06 20             	movb   $0x20,(%esi)
  101aff:	ff 03                	incl   (%ebx)
  101b01:	eb 97                	jmp    101a9a <vprintdec+0x3e>
  101b03:	90                   	nop
  101b04:	53                   	push   %ebx
  101b05:	8b 7d 20             	mov    0x20(%ebp),%edi
  101b08:	8d 57 01             	lea    0x1(%edi),%edx
  101b0b:	52                   	push   %edx
  101b0c:	8b 5d e4             	mov    -0x1c(%ebp),%ebx
  101b0f:	53                   	push   %ebx
  101b10:	0f be d1             	movsbl %cl,%edx
  101b13:	89 4d dc             	mov    %ecx,-0x24(%ebp)
  101b16:	52                   	push   %edx
  101b17:	0f be 7d e0          	movsbl -0x20(%ebp),%edi
  101b1b:	57                   	push   %edi
  101b1c:	8b 7d 10             	mov    0x10(%ebp),%edi
  101b1f:	8d 57 ff             	lea    -0x1(%edi),%edx
  101b22:	52                   	push   %edx
  101b23:	ff 75 0c             	pushl  0xc(%ebp)
  101b26:	31 d2                	xor    %edx,%edx
  101b28:	f7 75 0c             	divl   0xc(%ebp)
  101b2b:	89 d6                	mov    %edx,%esi
  101b2d:	50                   	push   %eax
  101b2e:	e8 29 ff ff ff       	call   101a5c <vprintdec>
  101b33:	83 c4 20             	add    $0x20,%esp
  101b36:	83 fe 09             	cmp    $0x9,%esi
  101b39:	8b 4d dc             	mov    -0x24(%ebp),%ecx
  101b3c:	77 6a                	ja     101ba8 <vprintdec+0x14c>
  101b3e:	8d 56 30             	lea    0x30(%esi),%edx
  101b41:	8b 7d e4             	mov    -0x1c(%ebp),%edi
  101b44:	8b 37                	mov    (%edi),%esi
  101b46:	85 f6                	test   %esi,%esi
  101b48:	0f 84 35 01 00 00    	je     101c83 <vprintdec+0x227>
  101b4e:	88 16                	mov    %dl,(%esi)
  101b50:	8b 7d e4             	mov    -0x1c(%ebp),%edi
  101b53:	ff 07                	incl   (%edi)
  101b55:	80 f9 2d             	cmp    $0x2d,%cl
  101b58:	75 8f                	jne    101ae9 <vprintdec+0x8d>
  101b5a:	8b 55 20             	mov    0x20(%ebp),%edx
  101b5d:	85 d2                	test   %edx,%edx
  101b5f:	75 88                	jne    101ae9 <vprintdec+0x8d>
  101b61:	89 c6                	mov    %eax,%esi
  101b63:	89 c7                	mov    %eax,%edi
  101b65:	8b 5d e4             	mov    -0x1c(%ebp),%ebx
  101b68:	85 f6                	test   %esi,%esi
  101b6a:	0f 8e d0 00 00 00    	jle    101c40 <vprintdec+0x1e4>
  101b70:	8b 13                	mov    (%ebx),%edx
  101b72:	85 d2                	test   %edx,%edx
  101b74:	0f 84 d8 00 00 00    	je     101c52 <vprintdec+0x1f6>
  101b7a:	c6 02 20             	movb   $0x20,(%edx)
  101b7d:	ff 03                	incl   (%ebx)
  101b7f:	4e                   	dec    %esi
  101b80:	eb e6                	jmp    101b68 <vprintdec+0x10c>
  101b82:	66 90                	xchg   %ax,%ax
  101b84:	89 4d d8             	mov    %ecx,-0x28(%ebp)
  101b87:	88 55 dc             	mov    %dl,-0x24(%ebp)
  101b8a:	89 45 e4             	mov    %eax,-0x1c(%ebp)
  101b8d:	83 ec 0c             	sub    $0xc,%esp
  101b90:	57                   	push   %edi
  101b91:	e8 7a e4 ff ff       	call   100010 <_putc>
  101b96:	83 c4 10             	add    $0x10,%esp
  101b99:	8b 45 e4             	mov    -0x1c(%ebp),%eax
  101b9c:	8a 55 dc             	mov    -0x24(%ebp),%dl
  101b9f:	8b 4d d8             	mov    -0x28(%ebp),%ecx
  101ba2:	e9 f3 fe ff ff       	jmp    101a9a <vprintdec+0x3e>
  101ba7:	90                   	nop
  101ba8:	83 c6 57             	add    $0x57,%esi
  101bab:	8b 13                	mov    (%ebx),%edx
  101bad:	85 d2                	test   %edx,%edx
  101baf:	0f 84 09 01 00 00    	je     101cbe <vprintdec+0x262>
  101bb5:	89 f3                	mov    %esi,%ebx
  101bb7:	88 1a                	mov    %bl,(%edx)
  101bb9:	8b 7d e4             	mov    -0x1c(%ebp),%edi
  101bbc:	ff 07                	incl   (%edi)
  101bbe:	eb 95                	jmp    101b55 <vprintdec+0xf9>
  101bc0:	8b 13                	mov    (%ebx),%edx
  101bc2:	85 d2                	test   %edx,%edx
  101bc4:	0f 84 d9 00 00 00    	je     101ca3 <vprintdec+0x247>
  101bca:	8a 4d e0             	mov    -0x20(%ebp),%cl
  101bcd:	88 0a                	mov    %cl,(%edx)
  101bcf:	8b 4d e4             	mov    -0x1c(%ebp),%ecx
  101bd2:	ff 01                	incl   (%ecx)
  101bd4:	8d 65 f4             	lea    -0xc(%ebp),%esp
  101bd7:	5b                   	pop    %ebx
  101bd8:	5e                   	pop    %esi
  101bd9:	5f                   	pop    %edi
  101bda:	5d                   	pop    %ebp
  101bdb:	c3                   	ret    
  101bdc:	80 7d e0 2d          	cmpb   $0x2d,-0x20(%ebp)
  101be0:	74 3e                	je     101c20 <vprintdec+0x1c4>
  101be2:	8b 45 10             	mov    0x10(%ebp),%eax
  101be5:	8d 65 f4             	lea    -0xc(%ebp),%esp
  101be8:	5b                   	pop    %ebx
  101be9:	5e                   	pop    %esi
  101bea:	5f                   	pop    %edi
  101beb:	5d                   	pop    %ebp
  101bec:	c3                   	ret    
  101bed:	8d 76 00             	lea    0x0(%esi),%esi
  101bf0:	8b 4d e4             	mov    -0x1c(%ebp),%ecx
  101bf3:	8b 11                	mov    (%ecx),%edx
  101bf5:	85 d2                	test   %edx,%edx
  101bf7:	0f 84 e0 00 00 00    	je     101cdd <vprintdec+0x281>
  101bfd:	c6 02 2d             	movb   $0x2d,(%edx)
  101c00:	8b 4d e4             	mov    -0x1c(%ebp),%ecx
  101c03:	ff 01                	incl   (%ecx)
  101c05:	e9 df fe ff ff       	jmp    101ae9 <vprintdec+0x8d>
  101c0a:	66 90                	xchg   %ax,%ax
  101c0c:	89 4d d8             	mov    %ecx,-0x28(%ebp)
  101c0f:	88 55 dc             	mov    %dl,-0x24(%ebp)
  101c12:	89 45 e4             	mov    %eax,-0x1c(%ebp)
  101c15:	83 ec 0c             	sub    $0xc,%esp
  101c18:	6a 20                	push   $0x20
  101c1a:	e9 72 ff ff ff       	jmp    101b91 <vprintdec+0x135>
  101c1f:	90                   	nop
  101c20:	8b 45 e4             	mov    -0x1c(%ebp),%eax
  101c23:	8b 00                	mov    (%eax),%eax
  101c25:	85 c0                	test   %eax,%eax
  101c27:	0f 84 c8 00 00 00    	je     101cf5 <vprintdec+0x299>
  101c2d:	c6 00 2d             	movb   $0x2d,(%eax)
  101c30:	8b 45 e4             	mov    -0x1c(%ebp),%eax
  101c33:	ff 00                	incl   (%eax)
  101c35:	8b 45 10             	mov    0x10(%ebp),%eax
  101c38:	48                   	dec    %eax
  101c39:	e9 ab fe ff ff       	jmp    101ae9 <vprintdec+0x8d>
  101c3e:	66 90                	xchg   %ax,%ax
  101c40:	89 f8                	mov    %edi,%eax
  101c42:	8d 57 ff             	lea    -0x1(%edi),%edx
  101c45:	85 ff                	test   %edi,%edi
  101c47:	78 36                	js     101c7f <vprintdec+0x223>
  101c49:	29 c2                	sub    %eax,%edx
  101c4b:	89 d0                	mov    %edx,%eax
  101c4d:	e9 97 fe ff ff       	jmp    101ae9 <vprintdec+0x8d>
  101c52:	83 ec 0c             	sub    $0xc,%esp
  101c55:	6a 20                	push   $0x20
  101c57:	e8 b4 e3 ff ff       	call   100010 <_putc>
  101c5c:	83 c4 10             	add    $0x10,%esp
  101c5f:	4e                   	dec    %esi
  101c60:	e9 03 ff ff ff       	jmp    101b68 <vprintdec+0x10c>
  101c65:	89 45 e4             	mov    %eax,-0x1c(%ebp)
  101c68:	83 ec 0c             	sub    $0xc,%esp
  101c6b:	0f be c9             	movsbl %cl,%ecx
  101c6e:	51                   	push   %ecx
  101c6f:	e8 9c e3 ff ff       	call   100010 <_putc>
  101c74:	83 c4 10             	add    $0x10,%esp
  101c77:	8b 45 e4             	mov    -0x1c(%ebp),%eax
  101c7a:	e9 6a fe ff ff       	jmp    101ae9 <vprintdec+0x8d>
  101c7f:	31 c0                	xor    %eax,%eax
  101c81:	eb c6                	jmp    101c49 <vprintdec+0x1ed>
  101c83:	89 4d dc             	mov    %ecx,-0x24(%ebp)
  101c86:	89 45 e0             	mov    %eax,-0x20(%ebp)
  101c89:	83 ec 0c             	sub    $0xc,%esp
  101c8c:	0f b6 d2             	movzbl %dl,%edx
  101c8f:	52                   	push   %edx
  101c90:	e8 7b e3 ff ff       	call   100010 <_putc>
  101c95:	83 c4 10             	add    $0x10,%esp
  101c98:	8b 45 e0             	mov    -0x20(%ebp),%eax
  101c9b:	8b 4d dc             	mov    -0x24(%ebp),%ecx
  101c9e:	e9 b2 fe ff ff       	jmp    101b55 <vprintdec+0xf9>
  101ca3:	89 45 e4             	mov    %eax,-0x1c(%ebp)
  101ca6:	83 ec 0c             	sub    $0xc,%esp
  101ca9:	0f be 7d e0          	movsbl -0x20(%ebp),%edi
  101cad:	57                   	push   %edi
  101cae:	e8 5d e3 ff ff       	call   100010 <_putc>
  101cb3:	83 c4 10             	add    $0x10,%esp
  101cb6:	8b 45 e4             	mov    -0x1c(%ebp),%eax
  101cb9:	e9 2b fe ff ff       	jmp    101ae9 <vprintdec+0x8d>
  101cbe:	89 45 e0             	mov    %eax,-0x20(%ebp)
  101cc1:	83 ec 0c             	sub    $0xc,%esp
  101cc4:	89 f0                	mov    %esi,%eax
  101cc6:	0f be f0             	movsbl %al,%esi
  101cc9:	56                   	push   %esi
  101cca:	e8 41 e3 ff ff       	call   100010 <_putc>
  101ccf:	83 c4 10             	add    $0x10,%esp
  101cd2:	8b 45 e0             	mov    -0x20(%ebp),%eax
  101cd5:	8b 4d dc             	mov    -0x24(%ebp),%ecx
  101cd8:	e9 78 fe ff ff       	jmp    101b55 <vprintdec+0xf9>
  101cdd:	89 45 e4             	mov    %eax,-0x1c(%ebp)
  101ce0:	83 ec 0c             	sub    $0xc,%esp
  101ce3:	6a 2d                	push   $0x2d
  101ce5:	e8 26 e3 ff ff       	call   100010 <_putc>
  101cea:	83 c4 10             	add    $0x10,%esp
  101ced:	8b 45 e4             	mov    -0x1c(%ebp),%eax
  101cf0:	e9 f4 fd ff ff       	jmp    101ae9 <vprintdec+0x8d>
  101cf5:	83 ec 0c             	sub    $0xc,%esp
  101cf8:	6a 2d                	push   $0x2d
  101cfa:	e8 11 e3 ff ff       	call   100010 <_putc>
  101cff:	83 c4 10             	add    $0x10,%esp
  101d02:	e9 2e ff ff ff       	jmp    101c35 <vprintdec+0x1d9>
  101d07:	90                   	nop

00101d08 <printdec>:
  101d08:	55                   	push   %ebp
  101d09:	89 e5                	mov    %esp,%ebp
  101d0b:	57                   	push   %edi
  101d0c:	56                   	push   %esi
  101d0d:	53                   	push   %ebx
  101d0e:	83 ec 1c             	sub    $0x1c,%esp
  101d11:	8b 7d 0c             	mov    0xc(%ebp),%edi
  101d14:	8b 4d 10             	mov    0x10(%ebp),%ecx
  101d17:	8b 55 14             	mov    0x14(%ebp),%edx
  101d1a:	8b 45 18             	mov    0x18(%ebp),%eax
  101d1d:	89 c3                	mov    %eax,%ebx
  101d1f:	8b 45 1c             	mov    0x1c(%ebp),%eax
  101d22:	89 5d e0             	mov    %ebx,-0x20(%ebp)
  101d25:	88 5d e4             	mov    %bl,-0x1c(%ebp)
  101d28:	31 db                	xor    %ebx,%ebx
  101d2a:	80 fa 2d             	cmp    $0x2d,%dl
  101d2d:	0f 94 c3             	sete   %bl
  101d30:	89 de                	mov    %ebx,%esi
  101d32:	8b 5d 08             	mov    0x8(%ebp),%ebx
  101d35:	85 db                	test   %ebx,%ebx
  101d37:	75 5f                	jne    101d98 <printdec+0x90>
  101d39:	8b 10                	mov    (%eax),%edx
  101d3b:	85 c9                	test   %ecx,%ecx
  101d3d:	0f 8e c5 00 00 00    	jle    101e08 <printdec+0x100>
  101d43:	80 7d e0 2d          	cmpb   $0x2d,-0x20(%ebp)
  101d47:	74 28                	je     101d71 <printdec+0x69>
  101d49:	0f be 5d e4          	movsbl -0x1c(%ebp),%ebx
  101d4d:	89 cf                	mov    %ecx,%edi
  101d4f:	4f                   	dec    %edi
  101d50:	74 1d                	je     101d6f <printdec+0x67>
  101d52:	80 7d e4 2b          	cmpb   $0x2b,-0x1c(%ebp)
  101d56:	74 7c                	je     101dd4 <printdec+0xcc>
  101d58:	85 d2                	test   %edx,%edx
  101d5a:	0f 84 b8 00 00 00    	je     101e18 <printdec+0x110>
  101d60:	8a 4d e4             	mov    -0x1c(%ebp),%cl
  101d63:	88 0a                	mov    %cl,(%edx)
  101d65:	8b 08                	mov    (%eax),%ecx
  101d67:	8d 51 01             	lea    0x1(%ecx),%edx
  101d6a:	89 10                	mov    %edx,(%eax)
  101d6c:	4f                   	dec    %edi
  101d6d:	75 e3                	jne    101d52 <printdec+0x4a>
  101d6f:	89 f9                	mov    %edi,%ecx
  101d71:	85 d2                	test   %edx,%edx
  101d73:	0f 84 e1 00 00 00    	je     101e5a <printdec+0x152>
  101d79:	c6 02 30             	movb   $0x30,(%edx)
  101d7c:	ff 00                	incl   (%eax)
  101d7e:	80 7d e0 2d          	cmpb   $0x2d,-0x20(%ebp)
  101d82:	74 64                	je     101de8 <printdec+0xe0>
  101d84:	46                   	inc    %esi
  101d85:	85 c9                	test   %ecx,%ecx
  101d87:	7e 04                	jle    101d8d <printdec+0x85>
  101d89:	39 ce                	cmp    %ecx,%esi
  101d8b:	7f 3b                	jg     101dc8 <printdec+0xc0>
  101d8d:	89 f0                	mov    %esi,%eax
  101d8f:	8d 65 f4             	lea    -0xc(%ebp),%esp
  101d92:	5b                   	pop    %ebx
  101d93:	5e                   	pop    %esi
  101d94:	5f                   	pop    %edi
  101d95:	5d                   	pop    %ebp
  101d96:	c3                   	ret    
  101d97:	90                   	nop
  101d98:	53                   	push   %ebx
  101d99:	6a 00                	push   $0x0
  101d9b:	50                   	push   %eax
  101d9c:	0f be 45 e0          	movsbl -0x20(%ebp),%eax
  101da0:	50                   	push   %eax
  101da1:	0f be d2             	movsbl %dl,%edx
  101da4:	52                   	push   %edx
  101da5:	51                   	push   %ecx
  101da6:	89 4d e4             	mov    %ecx,-0x1c(%ebp)
  101da9:	57                   	push   %edi
  101daa:	ff 75 08             	pushl  0x8(%ebp)
  101dad:	e8 aa fc ff ff       	call   101a5c <vprintdec>
  101db2:	83 c4 20             	add    $0x20,%esp
  101db5:	8b 45 08             	mov    0x8(%ebp),%eax
  101db8:	8b 4d e4             	mov    -0x1c(%ebp),%ecx
  101dbb:	90                   	nop
  101dbc:	31 d2                	xor    %edx,%edx
  101dbe:	f7 f7                	div    %edi
  101dc0:	46                   	inc    %esi
  101dc1:	85 c0                	test   %eax,%eax
  101dc3:	75 f7                	jne    101dbc <printdec+0xb4>
  101dc5:	eb be                	jmp    101d85 <printdec+0x7d>
  101dc7:	90                   	nop
  101dc8:	89 ce                	mov    %ecx,%esi
  101dca:	89 f0                	mov    %esi,%eax
  101dcc:	8d 65 f4             	lea    -0xc(%ebp),%esp
  101dcf:	5b                   	pop    %ebx
  101dd0:	5e                   	pop    %esi
  101dd1:	5f                   	pop    %edi
  101dd2:	5d                   	pop    %ebp
  101dd3:	c3                   	ret    
  101dd4:	85 d2                	test   %edx,%edx
  101dd6:	74 68                	je     101e40 <printdec+0x138>
  101dd8:	c6 02 20             	movb   $0x20,(%edx)
  101ddb:	8b 08                	mov    (%eax),%ecx
  101ddd:	8d 51 01             	lea    0x1(%ecx),%edx
  101de0:	89 10                	mov    %edx,(%eax)
  101de2:	e9 68 ff ff ff       	jmp    101d4f <printdec+0x47>
  101de7:	90                   	nop
  101de8:	89 cb                	mov    %ecx,%ebx
  101dea:	89 c7                	mov    %eax,%edi
  101dec:	eb 0d                	jmp    101dfb <printdec+0xf3>
  101dee:	66 90                	xchg   %ax,%ax
  101df0:	8b 17                	mov    (%edi),%edx
  101df2:	85 d2                	test   %edx,%edx
  101df4:	74 3b                	je     101e31 <printdec+0x129>
  101df6:	c6 02 20             	movb   $0x20,(%edx)
  101df9:	ff 07                	incl   (%edi)
  101dfb:	4b                   	dec    %ebx
  101dfc:	85 db                	test   %ebx,%ebx
  101dfe:	7f f0                	jg     101df0 <printdec+0xe8>
  101e00:	89 d9                	mov    %ebx,%ecx
  101e02:	46                   	inc    %esi
  101e03:	eb 80                	jmp    101d85 <printdec+0x7d>
  101e05:	8d 76 00             	lea    0x0(%esi),%esi
  101e08:	85 d2                	test   %edx,%edx
  101e0a:	74 6c                	je     101e78 <printdec+0x170>
  101e0c:	c6 02 30             	movb   $0x30,(%edx)
  101e0f:	ff 00                	incl   (%eax)
  101e11:	46                   	inc    %esi
  101e12:	e9 6e ff ff ff       	jmp    101d85 <printdec+0x7d>
  101e17:	90                   	nop
  101e18:	89 45 dc             	mov    %eax,-0x24(%ebp)
  101e1b:	83 ec 0c             	sub    $0xc,%esp
  101e1e:	53                   	push   %ebx
  101e1f:	e8 ec e1 ff ff       	call   100010 <_putc>
  101e24:	8b 45 dc             	mov    -0x24(%ebp),%eax
  101e27:	8b 10                	mov    (%eax),%edx
  101e29:	83 c4 10             	add    $0x10,%esp
  101e2c:	e9 1e ff ff ff       	jmp    101d4f <printdec+0x47>
  101e31:	83 ec 0c             	sub    $0xc,%esp
  101e34:	6a 20                	push   $0x20
  101e36:	e8 d5 e1 ff ff       	call   100010 <_putc>
  101e3b:	83 c4 10             	add    $0x10,%esp
  101e3e:	eb bb                	jmp    101dfb <printdec+0xf3>
  101e40:	89 45 dc             	mov    %eax,-0x24(%ebp)
  101e43:	83 ec 0c             	sub    $0xc,%esp
  101e46:	6a 20                	push   $0x20
  101e48:	e8 c3 e1 ff ff       	call   100010 <_putc>
  101e4d:	8b 45 dc             	mov    -0x24(%ebp),%eax
  101e50:	8b 10                	mov    (%eax),%edx
  101e52:	83 c4 10             	add    $0x10,%esp
  101e55:	e9 f5 fe ff ff       	jmp    101d4f <printdec+0x47>
  101e5a:	89 45 dc             	mov    %eax,-0x24(%ebp)
  101e5d:	89 4d e4             	mov    %ecx,-0x1c(%ebp)
  101e60:	83 ec 0c             	sub    $0xc,%esp
  101e63:	6a 30                	push   $0x30
  101e65:	e8 a6 e1 ff ff       	call   100010 <_putc>
  101e6a:	83 c4 10             	add    $0x10,%esp
  101e6d:	8b 4d e4             	mov    -0x1c(%ebp),%ecx
  101e70:	8b 45 dc             	mov    -0x24(%ebp),%eax
  101e73:	e9 06 ff ff ff       	jmp    101d7e <printdec+0x76>
  101e78:	89 4d e4             	mov    %ecx,-0x1c(%ebp)
  101e7b:	83 ec 0c             	sub    $0xc,%esp
  101e7e:	6a 30                	push   $0x30
  101e80:	e8 8b e1 ff ff       	call   100010 <_putc>
  101e85:	83 c4 10             	add    $0x10,%esp
  101e88:	8b 4d e4             	mov    -0x1c(%ebp),%ecx
  101e8b:	46                   	inc    %esi
  101e8c:	e9 f4 fe ff ff       	jmp    101d85 <printdec+0x7d>
  101e91:	66 90                	xchg   %ax,%ax
  101e93:	90                   	nop

00101e94 <printstr>:
  101e94:	55                   	push   %ebp
  101e95:	89 e5                	mov    %esp,%ebp
  101e97:	56                   	push   %esi
  101e98:	53                   	push   %ebx
  101e99:	8b 5d 08             	mov    0x8(%ebp),%ebx
  101e9c:	8b 75 0c             	mov    0xc(%ebp),%esi
  101e9f:	8b 06                	mov    (%esi),%eax
  101ea1:	eb 0d                	jmp    101eb0 <printstr+0x1c>
  101ea3:	90                   	nop
  101ea4:	43                   	inc    %ebx
  101ea5:	85 c0                	test   %eax,%eax
  101ea7:	74 17                	je     101ec0 <printstr+0x2c>
  101ea9:	88 10                	mov    %dl,(%eax)
  101eab:	8b 06                	mov    (%esi),%eax
  101ead:	40                   	inc    %eax
  101eae:	89 06                	mov    %eax,(%esi)
  101eb0:	0f be 13             	movsbl (%ebx),%edx
  101eb3:	84 d2                	test   %dl,%dl
  101eb5:	75 ed                	jne    101ea4 <printstr+0x10>
  101eb7:	8d 65 f8             	lea    -0x8(%ebp),%esp
  101eba:	5b                   	pop    %ebx
  101ebb:	5e                   	pop    %esi
  101ebc:	5d                   	pop    %ebp
  101ebd:	c3                   	ret    
  101ebe:	66 90                	xchg   %ax,%ax
  101ec0:	83 ec 0c             	sub    $0xc,%esp
  101ec3:	52                   	push   %edx
  101ec4:	e8 47 e1 ff ff       	call   100010 <_putc>
  101ec9:	8b 06                	mov    (%esi),%eax
  101ecb:	83 c4 10             	add    $0x10,%esp
  101ece:	eb e0                	jmp    101eb0 <printstr+0x1c>

00101ed0 <vprintk>:
  101ed0:	55                   	push   %ebp
  101ed1:	89 e5                	mov    %esp,%ebp
  101ed3:	57                   	push   %edi
  101ed4:	56                   	push   %esi
  101ed5:	53                   	push   %ebx
  101ed6:	83 ec 1c             	sub    $0x1c,%esp
  101ed9:	8b 75 0c             	mov    0xc(%ebp),%esi
  101edc:	31 ff                	xor    %edi,%edi
  101ede:	0f be 06             	movsbl (%esi),%eax
  101ee1:	84 c0                	test   %al,%al
  101ee3:	74 1d                	je     101f02 <vprintk+0x32>
  101ee5:	3c 25                	cmp    $0x25,%al
  101ee7:	74 2f                	je     101f18 <vprintk+0x48>
  101ee9:	46                   	inc    %esi
  101eea:	8b 55 08             	mov    0x8(%ebp),%edx
  101eed:	85 d2                	test   %edx,%edx
  101eef:	0f 84 97 01 00 00    	je     10208c <vprintk+0x1bc>
  101ef5:	88 02                	mov    %al,(%edx)
  101ef7:	ff 45 08             	incl   0x8(%ebp)
  101efa:	47                   	inc    %edi
  101efb:	0f be 06             	movsbl (%esi),%eax
  101efe:	84 c0                	test   %al,%al
  101f00:	75 e3                	jne    101ee5 <vprintk+0x15>
  101f02:	8b 45 08             	mov    0x8(%ebp),%eax
  101f05:	85 c0                	test   %eax,%eax
  101f07:	74 04                	je     101f0d <vprintk+0x3d>
  101f09:	c6 00 00             	movb   $0x0,(%eax)
  101f0c:	47                   	inc    %edi
  101f0d:	89 f8                	mov    %edi,%eax
  101f0f:	8d 65 f4             	lea    -0xc(%ebp),%esp
  101f12:	5b                   	pop    %ebx
  101f13:	5e                   	pop    %esi
  101f14:	5f                   	pop    %edi
  101f15:	5d                   	pop    %ebp
  101f16:	c3                   	ret    
  101f17:	90                   	nop
  101f18:	0f be 46 01          	movsbl 0x1(%esi),%eax
  101f1c:	bb ff ff ff ff       	mov    $0xffffffff,%ebx
  101f21:	c6 45 e4 20          	movb   $0x20,-0x1c(%ebp)
  101f25:	8d 4e 01             	lea    0x1(%esi),%ecx
  101f28:	8d 50 e0             	lea    -0x20(%eax),%edx
  101f2b:	80 fa 58             	cmp    $0x58,%dl
  101f2e:	77 72                	ja     101fa2 <vprintk+0xd2>
  101f30:	0f b6 d2             	movzbl %dl,%edx
  101f33:	ff 24 95 40 26 10 00 	jmp    *0x102640(,%edx,4)
  101f3a:	66 90                	xchg   %ax,%ax
  101f3c:	8a 56 02             	mov    0x2(%esi),%dl
  101f3f:	89 ce                	mov    %ecx,%esi
  101f41:	88 45 e4             	mov    %al,-0x1c(%ebp)
  101f44:	0f be c2             	movsbl %dl,%eax
  101f47:	eb dc                	jmp    101f25 <vprintk+0x55>
  101f49:	8d 76 00             	lea    0x0(%esi),%esi
  101f4c:	8b 45 08             	mov    0x8(%ebp),%eax
  101f4f:	85 c0                	test   %eax,%eax
  101f51:	0f 84 84 01 00 00    	je     1020db <vprintk+0x20b>
  101f57:	c6 00 30             	movb   $0x30,(%eax)
  101f5a:	8b 45 08             	mov    0x8(%ebp),%eax
  101f5d:	40                   	inc    %eax
  101f5e:	89 45 08             	mov    %eax,0x8(%ebp)
  101f61:	85 c0                	test   %eax,%eax
  101f63:	0f 84 87 01 00 00    	je     1020f0 <vprintk+0x220>
  101f69:	c6 00 78             	movb   $0x78,(%eax)
  101f6c:	ff 45 08             	incl   0x8(%ebp)
  101f6f:	8b 45 10             	mov    0x10(%ebp),%eax
  101f72:	8b 10                	mov    (%eax),%edx
  101f74:	83 c0 04             	add    $0x4,%eax
  101f77:	89 45 10             	mov    %eax,0x10(%ebp)
  101f7a:	b9 2b 00 00 00       	mov    $0x2b,%ecx
  101f7f:	c7 45 e0 10 00 00 00 	movl   $0x10,-0x20(%ebp)
  101f86:	83 ec 08             	sub    $0x8,%esp
  101f89:	8d 45 08             	lea    0x8(%ebp),%eax
  101f8c:	50                   	push   %eax
  101f8d:	0f be 45 e4          	movsbl -0x1c(%ebp),%eax
  101f91:	50                   	push   %eax
  101f92:	51                   	push   %ecx
  101f93:	53                   	push   %ebx
  101f94:	ff 75 e0             	pushl  -0x20(%ebp)
  101f97:	52                   	push   %edx
  101f98:	e8 6b fd ff ff       	call   101d08 <printdec>
  101f9d:	01 c7                	add    %eax,%edi
  101f9f:	83 c4 20             	add    $0x20,%esp
  101fa2:	83 c6 02             	add    $0x2,%esi
  101fa5:	e9 34 ff ff ff       	jmp    101ede <vprintk+0xe>
  101faa:	66 90                	xchg   %ax,%ax
  101fac:	8b 45 10             	mov    0x10(%ebp),%eax
  101faf:	83 c0 04             	add    $0x4,%eax
  101fb2:	8b 4d 10             	mov    0x10(%ebp),%ecx
  101fb5:	8b 11                	mov    (%ecx),%edx
  101fb7:	85 d2                	test   %edx,%edx
  101fb9:	0f 88 df 00 00 00    	js     10209e <vprintk+0x1ce>
  101fbf:	89 45 10             	mov    %eax,0x10(%ebp)
  101fc2:	b9 2b 00 00 00       	mov    $0x2b,%ecx
  101fc7:	c7 45 e0 0a 00 00 00 	movl   $0xa,-0x20(%ebp)
  101fce:	eb b6                	jmp    101f86 <vprintk+0xb6>
  101fd0:	8b 45 10             	mov    0x10(%ebp),%eax
  101fd3:	8d 58 04             	lea    0x4(%eax),%ebx
  101fd6:	8b 10                	mov    (%eax),%edx
  101fd8:	8b 45 08             	mov    0x8(%ebp),%eax
  101fdb:	85 c0                	test   %eax,%eax
  101fdd:	0f 84 e4 00 00 00    	je     1020c7 <vprintk+0x1f7>
  101fe3:	88 10                	mov    %dl,(%eax)
  101fe5:	ff 45 08             	incl   0x8(%ebp)
  101fe8:	47                   	inc    %edi
  101fe9:	89 5d 10             	mov    %ebx,0x10(%ebp)
  101fec:	eb b4                	jmp    101fa2 <vprintk+0xd2>
  101fee:	66 90                	xchg   %ax,%ax
  101ff0:	83 c6 02             	add    $0x2,%esi
  101ff3:	31 db                	xor    %ebx,%ebx
  101ff5:	eb 03                	jmp    101ffa <vprintk+0x12a>
  101ff7:	90                   	nop
  101ff8:	89 d6                	mov    %edx,%esi
  101ffa:	8d 14 9b             	lea    (%ebx,%ebx,4),%edx
  101ffd:	01 d2                	add    %edx,%edx
  101fff:	8d 5c 02 d0          	lea    -0x30(%edx,%eax,1),%ebx
  102003:	8d 56 01             	lea    0x1(%esi),%edx
  102006:	0f be 42 ff          	movsbl -0x1(%edx),%eax
  10200a:	8d 48 d0             	lea    -0x30(%eax),%ecx
  10200d:	80 f9 09             	cmp    $0x9,%cl
  102010:	76 e6                	jbe    101ff8 <vprintk+0x128>
  102012:	4e                   	dec    %esi
  102013:	e9 0d ff ff ff       	jmp    101f25 <vprintk+0x55>
  102018:	8b 45 10             	mov    0x10(%ebp),%eax
  10201b:	83 c0 04             	add    $0x4,%eax
  10201e:	89 45 e4             	mov    %eax,-0x1c(%ebp)
  102021:	8b 4d 10             	mov    0x10(%ebp),%ecx
  102024:	8b 19                	mov    (%ecx),%ebx
  102026:	83 ec 08             	sub    $0x8,%esp
  102029:	8d 45 08             	lea    0x8(%ebp),%eax
  10202c:	50                   	push   %eax
  10202d:	53                   	push   %ebx
  10202e:	e8 61 fe ff ff       	call   101e94 <printstr>
  102033:	89 1c 24             	mov    %ebx,(%esp)
  102036:	e8 e1 00 00 00       	call   10211c <strlen>
  10203b:	01 c7                	add    %eax,%edi
  10203d:	83 c4 10             	add    $0x10,%esp
  102040:	8b 45 e4             	mov    -0x1c(%ebp),%eax
  102043:	89 45 10             	mov    %eax,0x10(%ebp)
  102046:	e9 57 ff ff ff       	jmp    101fa2 <vprintk+0xd2>
  10204b:	90                   	nop
  10204c:	8b 45 10             	mov    0x10(%ebp),%eax
  10204f:	8b 18                	mov    (%eax),%ebx
  102051:	0f be 46 02          	movsbl 0x2(%esi),%eax
  102055:	8b 75 10             	mov    0x10(%ebp),%esi
  102058:	83 c6 04             	add    $0x4,%esi
  10205b:	89 75 10             	mov    %esi,0x10(%ebp)
  10205e:	89 ce                	mov    %ecx,%esi
  102060:	e9 c0 fe ff ff       	jmp    101f25 <vprintk+0x55>
  102065:	8d 76 00             	lea    0x0(%esi),%esi
  102068:	8b 45 08             	mov    0x8(%ebp),%eax
  10206b:	85 c0                	test   %eax,%eax
  10206d:	74 45                	je     1020b4 <vprintk+0x1e4>
  10206f:	c6 00 25             	movb   $0x25,(%eax)
  102072:	ff 45 08             	incl   0x8(%ebp)
  102075:	47                   	inc    %edi
  102076:	e9 27 ff ff ff       	jmp    101fa2 <vprintk+0xd2>
  10207b:	90                   	nop
  10207c:	8b 45 10             	mov    0x10(%ebp),%eax
  10207f:	8b 10                	mov    (%eax),%edx
  102081:	83 c0 04             	add    $0x4,%eax
  102084:	e9 36 ff ff ff       	jmp    101fbf <vprintk+0xef>
  102089:	8d 76 00             	lea    0x0(%esi),%esi
  10208c:	83 ec 0c             	sub    $0xc,%esp
  10208f:	50                   	push   %eax
  102090:	e8 7b df ff ff       	call   100010 <_putc>
  102095:	83 c4 10             	add    $0x10,%esp
  102098:	47                   	inc    %edi
  102099:	e9 5d fe ff ff       	jmp    101efb <vprintk+0x2b>
  10209e:	f7 da                	neg    %edx
  1020a0:	89 45 10             	mov    %eax,0x10(%ebp)
  1020a3:	b9 2d 00 00 00       	mov    $0x2d,%ecx
  1020a8:	c7 45 e0 0a 00 00 00 	movl   $0xa,-0x20(%ebp)
  1020af:	e9 d2 fe ff ff       	jmp    101f86 <vprintk+0xb6>
  1020b4:	83 ec 0c             	sub    $0xc,%esp
  1020b7:	6a 25                	push   $0x25
  1020b9:	e8 52 df ff ff       	call   100010 <_putc>
  1020be:	83 c4 10             	add    $0x10,%esp
  1020c1:	47                   	inc    %edi
  1020c2:	e9 db fe ff ff       	jmp    101fa2 <vprintk+0xd2>
  1020c7:	83 ec 0c             	sub    $0xc,%esp
  1020ca:	0f be d2             	movsbl %dl,%edx
  1020cd:	52                   	push   %edx
  1020ce:	e8 3d df ff ff       	call   100010 <_putc>
  1020d3:	83 c4 10             	add    $0x10,%esp
  1020d6:	e9 0d ff ff ff       	jmp    101fe8 <vprintk+0x118>
  1020db:	83 ec 0c             	sub    $0xc,%esp
  1020de:	6a 30                	push   $0x30
  1020e0:	e8 2b df ff ff       	call   100010 <_putc>
  1020e5:	8b 45 08             	mov    0x8(%ebp),%eax
  1020e8:	83 c4 10             	add    $0x10,%esp
  1020eb:	e9 71 fe ff ff       	jmp    101f61 <vprintk+0x91>
  1020f0:	83 ec 0c             	sub    $0xc,%esp
  1020f3:	6a 78                	push   $0x78
  1020f5:	e8 16 df ff ff       	call   100010 <_putc>
  1020fa:	83 c4 10             	add    $0x10,%esp
  1020fd:	e9 6d fe ff ff       	jmp    101f6f <vprintk+0x9f>
  102102:	66 90                	xchg   %ax,%ax

00102104 <printf>:
  102104:	55                   	push   %ebp
  102105:	89 e5                	mov    %esp,%ebp
  102107:	83 ec 0c             	sub    $0xc,%esp
  10210a:	8d 45 0c             	lea    0xc(%ebp),%eax
  10210d:	50                   	push   %eax
  10210e:	ff 75 08             	pushl  0x8(%ebp)
  102111:	6a 00                	push   $0x0
  102113:	e8 b8 fd ff ff       	call   101ed0 <vprintk>
  102118:	c9                   	leave  
  102119:	c3                   	ret    
  10211a:	66 90                	xchg   %ax,%ax

0010211c <strlen>:
  10211c:	55                   	push   %ebp
  10211d:	89 e5                	mov    %esp,%ebp
  10211f:	8b 55 08             	mov    0x8(%ebp),%edx
  102122:	31 c0                	xor    %eax,%eax
  102124:	80 3a 00             	cmpb   $0x0,(%edx)
  102127:	74 0a                	je     102133 <strlen+0x17>
  102129:	8d 76 00             	lea    0x0(%esi),%esi
  10212c:	40                   	inc    %eax
  10212d:	80 3c 02 00          	cmpb   $0x0,(%edx,%eax,1)
  102131:	75 f9                	jne    10212c <strlen+0x10>
  102133:	5d                   	pop    %ebp
  102134:	c3                   	ret    
  102135:	66 90                	xchg   %ax,%ax
  102137:	90                   	nop

00102138 <_ioe_init>:
  102138:	55                   	push   %ebp
  102139:	89 e5                	mov    %esp,%ebp
  10213b:	ba 48 00 00 00       	mov    $0x48,%edx
  102140:	ed                   	in     (%dx),%eax
  102141:	a3 cc 27 10 00       	mov    %eax,0x1027cc
  102146:	5d                   	pop    %ebp
  102147:	c3                   	ret    

00102148 <_uptime>:
  102148:	55                   	push   %ebp
  102149:	89 e5                	mov    %esp,%ebp
  10214b:	ba 48 00 00 00       	mov    $0x48,%edx
  102150:	ed                   	in     (%dx),%eax
  102151:	2b 05 cc 27 10 00    	sub    0x1027cc,%eax
  102157:	5d                   	pop    %ebp
  102158:	c3                   	ret    
